ccopy_reg
_reconstructor
p1
(cfeedparser
FeedParserDict
p2
c__builtin__
dict
p3
(dp4
S'feed'
p5
g1
(g2
g3
(dp6
S'title_detail'
p7
g1
(g2
g3
(dp8
S'base'
p9
Vhttp://iloveubuntu.net
p10
sS'type'
p11
Vtext/plain
p12
sS'language'
p13
Ven
p14
sS'value'
p15
VIloveubuntu: Ubuntu blog
p16
stRp17
sS'subtitle'
p18
V
sS'links'
p19
(lp20
g1
(g2
g3
(dp21
S'href'
p22
Vhttp://iloveubuntu.net
p23
sg11
Vtext/html
p24
sS'rel'
p25
Valternate
p26
stRp27
asg13
Ven
p28
sS'title'
p29
g16
sS'link'
p30
g23
sS'subtitle_detail'
p31
g1
(g2
g3
(dp32
g9
Vhttp://iloveubuntu.net
p33
sg11
Vtext/html
p34
sg13
g14
sg15
V
stRp35
stRp36
sS'status'
p37
I200
sS'updated'
p38
S'Fri, 11 Jul 2014 00:12:57 GMT'
p39
sS'updated_parsed'
p40
ctime
struct_time
p41
((I2014
I7
I11
I0
I12
I57
I4
I192
I0
t(dtRp42
sS'encoding'
p43
Vutf-8
p44
sS'bozo'
p45
I0
sS'headers'
p46
(dp47
S'x-drupal-cache'
p48
S'HIT'
p49
sS'content-language'
p50
S'en'
p51
sS'content-encoding'
p52
S'gzip'
p53
sS'transfer-encoding'
p54
S'chunked'
p55
sS'expires'
p56
S'Sun, 19 Nov 1978 05:00:00 GMT'
p57
sS'vary'
p58
S'Cookie,Accept-Encoding'
p59
sS'server'
p60
S'nginx/1.6.0'
p61
sS'last-modified'
p62
g39
sS'connection'
p63
S'close'
p64
sS'etag'
p65
S'"1405037577-1"'
p66
sS'cache-control'
p67
S'public, max-age=0'
p68
sS'date'
p69
S'Fri, 11 Jul 2014 00:24:13 GMT'
p70
sS'content-type'
p71
S'application/rss+xml; charset=utf-8'
p72
ssS'etag'
p73
V"1405037577-1"
p74
sg22
Vhttp://iloveubuntu.net/rss.xml
p75
sS'version'
p76
Vrss20
p77
sS'entries'
p78
(lp79
g1
(g2
g3
(dp80
S'summary_detail'
p81
g1
(g2
g3
(dp82
g9
Vhttp://iloveubuntu.net
p83
sg11
g34
sg13
g14
sg15
V<div class="easy_social_box clearfix horizontal easy_social_lang_und">\u000a            <div class="easy_social-widget easy_social-widget-twitter first"><a class="twitter-share-button" href="http://twitter.com/share">Tweet</a></div>\u000a          <div class="easy_social-widget easy_social-widget-facebook"></div>\u000a          <div class="easy_social-widget easy_social-widget-googleplus last"><div class="g-plusone"></div></div>\u000a  </div> <!-- /.easy_social_box --><div class="field field-name-body field-type-text-with-summary field-label-hidden"><div class="field-items"><div class="field-item even"><p>As you know, in Ubuntu the app menus follow a double-sided appearance: on one hand, there are applications using the standard regular appmenu, on the other hand, there are apps using a GNOME-specific menu.</p>\u000a<p>You are to recognize the GNOME-specific menu by a menu entry that displays an extra menu when clicked, as opposed to the regular menu's display of all menu entries on the Unity panel.</p>\u000a<p>Nautilus has been updated in Ubuntu 14.04 via the regular updates, introducing a minor-yet-handy refinement: its menus are now expressed as standard, thus replacing the GNOME-wise menu with a fully-expanded menu.</p>\u000a<p>For example, if you launch the new Nautilus and hover your mouse pointer over the Unity panel, you will see its standard menu.<br /><a class="colorbox colorbox-insert-image" href="http://iloveubuntu.net/pictures_me/nautilus standard appmenu ubuntu 14.04.png" rel="gallery-all" title=""><img alt="" class="" height="368" src="http://iloveubuntu.net/pictures_me/nautilus standard appmenu ubuntu 14.04.png" title="" width="640" /></a></p>\u000a<p>Another change arrived in Trusty Tahr is the login-history support in System Settings; that means that if you navigate to <code>System Settings--&gt;User Accounts</code> and click on <code>History</code>, you will be able to look at your login history via a dedicated dialog with time intervals (<code>Last Week</code>, <code>Feb 3 - Feb 9</code>, <code>This Week</code>, etc).<br /><a class="colorbox colorbox-insert-image" href="http://iloveubuntu.net/pictures_me/login history ubuntu 14.04.png" rel="gallery-all" title=""><img alt="" class="" height="480" src="http://iloveubuntu.net/pictures_me/login history ubuntu 14.04.png" title="" width="472" /></a></p>\u000a</div></div></div><a href="http://iloveubuntu.net/tags/trusty-tahr">trusty-tahr</a>
p84
stRp85
sg19
(lp86
g1
(g2
g3
(dp87
g22
Vhttp://iloveubuntu.net/ubuntu-1404-received-standard-appmenu-nautilus-and-login-history
p88
sg11
g24
sg25
g26
stRp89
asS'published_parsed'
p90
g41
((I2014
I2
I28
I20
I1
I42
I4
I59
I0
t(dtRp91
sg29
VUbuntu 14.04 received standard appmenu for Nautilus and login history
p92
sS'author'
p93
Vrazvi
p94
sS'summary'
p95
g84
sS'guidislink'
p96
I00
sS'title_detail'
p97
g1
(g2
g3
(dp98
g9
Vhttp://iloveubuntu.net
p99
sg11
g12
sg13
g14
sg15
g92
stRp100
sg30
g88
sS'authors'
p101
(lp102
g1
(g2
g3
(dtRp103
asS'author_detail'
p104
g1
(g2
g3
(dp105
S'name'
p106
g94
stRp107
sS'id'
p108
Vhttp://iloveubuntu.net/3442 at http://iloveubuntu.net
p109
sS'published'
p110
VFri, 28 Feb 2014 20:01:42 +0000
p111
stRp112
ag1
(g2
g3
(dp113
S'summary_detail'
p114
g1
(g2
g3
(dp115
g9
Vhttp://iloveubuntu.net
p116
sg11
g34
sg13
g14
sg15
V<div class="easy_social_box clearfix horizontal easy_social_lang_und">\u000a            <div class="easy_social-widget easy_social-widget-twitter first"><a class="twitter-share-button" href="http://twitter.com/share">Tweet</a></div>\u000a          <div class="easy_social-widget easy_social-widget-facebook"></div>\u000a          <div class="easy_social-widget easy_social-widget-googleplus last"><div class="g-plusone"></div></div>\u000a  </div> <!-- /.easy_social_box --><div class="field field-name-body field-type-text-with-summary field-label-hidden"><div class="field-items"><div class="field-item even"><p>During the latest weeks, Ubuntu 14.04's System Settings has received several tweakable options, among which the in-window titlebars.</p>\u000a<p>Yet, there is more, System Settings has been updated in Trusty Tahr via the regular updates, bringing a minor-yet-handy addition: the ability to set the output sound volume louder than 100%.</p>\u000a<p>That equals a new option implemented in <code>System Settings--&gt;Sound</code>, where you are to notice <code>Allow louder than 100%</code>.</p>\u000a<p>The option is disabled by default, you are to enable it by checking it; after you check <code>Allow louder than 100%</code> the output volume's line is increased with an extra range.<br /><a class="colorbox colorbox-insert-image" href="http://iloveubuntu.net/pictures_me/before allow louder.png" rel="gallery-all" title=""><img alt="" class="" height="382" src="http://iloveubuntu.net/pictures_me/before allow louder.png" title="" width="640" /></a></p>\u000a<p><a class="colorbox colorbox-insert-image" href="http://iloveubuntu.net/pictures_me/after allow louder.png" rel="gallery-all" title=""><img alt="" class="" height="379" src="http://iloveubuntu.net/pictures_me/after allow louder.png" title="" width="640" /></a></p>\u000a<p>That translates as you being now able to set the sound volume higher than 100% (the maximum recommended volume level) and, as a consequence, to enjoy a higher volume for your sound.</p>\u000a<p>Yet, you are not to ignore the <code>may distort sound</code> bit, along with the higher volume comes a potential distortion of sound, it is you who will test and decide if the new feature is of use for you or not.</p>\u000a</div></div></div><a href="http://iloveubuntu.net/tags/trusty-tahr">trusty-tahr</a>
p117
stRp118
sg19
(lp119
g1
(g2
g3
(dp120
g22
Vhttp://iloveubuntu.net/ubuntu-1404s-system-settings-received-volume-louder-100-option
p121
sg11
g24
sg25
g26
stRp122
asg90
g41
((I2014
I2
I25
I17
I49
I59
I1
I56
I0
t(dtRp123
sg29
VUbuntu 14.04's System Settings received volume-louder-than-100% option
p124
sg93
Vrazvi
p125
sg95
g117
sg96
I00
sS'title_detail'
p126
g1
(g2
g3
(dp127
g9
Vhttp://iloveubuntu.net
p128
sg11
g12
sg13
g14
sg15
g124
stRp129
sg30
g121
sg101
(lp130
g1
(g2
g3
(dtRp131
asS'author_detail'
p132
g1
(g2
g3
(dp133
g106
g125
stRp134
sg108
Vhttp://iloveubuntu.net/3441 at http://iloveubuntu.net
p135
sg110
VTue, 25 Feb 2014 17:49:59 +0000
p136
stRp137
ag1
(g2
g3
(dp138
S'summary_detail'
p139
g1
(g2
g3
(dp140
g9
Vhttp://iloveubuntu.net
p141
sg11
g34
sg13
g14
sg15
V<div class="easy_social_box clearfix horizontal easy_social_lang_und">\u000a            <div class="easy_social-widget easy_social-widget-twitter first"><a class="twitter-share-button" href="http://twitter.com/share">Tweet</a></div>\u000a          <div class="easy_social-widget easy_social-widget-facebook"></div>\u000a          <div class="easy_social-widget easy_social-widget-googleplus last"><div class="g-plusone"></div></div>\u000a  </div> <!-- /.easy_social_box --><div class="field field-name-body field-type-text-with-summary field-label-hidden"><div class="field-items"><div class="field-item even"><p>If you are a heavy command-line user or a freshman seeking to familiarize with the terminal, you have probably kept an eye on Final Term's <a href="http://iloveubuntu.net/tags/final-term">development</a>.</p>\u000a<p><a href="http://finalterm.org/">Final Term</a> (UNDER DEVELOPMENT) is a terminal application that features an extra dose of eyecandy as compared to traditional terminals, while paired with drop-down menus offering command completion, ability to contract commands, responsive appearance, etc.</p>\u000a<p>Across the latest months, Final Term experienced various Ubuntu-specific issues, that translates as you being unable to test the latest features due to a relatively minor bug, bug now fixed.</p>\u000a<p>As a consequence, Final Term is now available via PPA, meaning, you can enjoy the long-awaited split feature.</p>\u000a<p><a class="colorbox colorbox-insert-image" href="http://iloveubuntu.net/pictures_me/final term split view.png" rel="gallery-all" title=""><img alt="" class="" height="411" src="http://iloveubuntu.net/pictures_me/final term split view.png" title="" width="640" /></a><br />\u000aSee for yourself in the below clip how the terminal app can be split in as many areas as you wish, while keeping in mind that the lines dividing the areas are draggable and, therefore, you can further resize the split view as you desire.</p>\u000a<p>\u000aTabs are also a recent feature of Final Term, you know tabs and how they work, but you are to welcome their draggable state even between areas; for example, you can drag a tab from a split to another split, new tab being glued to the dropped-onto view.</p>\u000a<p><span class="round label">Install Final Term 0.1</span><br /><span class="alert label">Add the following PPA (Ubuntu 13.10)</span></p>\u000a<div class="eleven columns">\u000a<div class="panel callout radius">\u000a<h5></h5>\u000a<p>sudo add-apt-repository ppa:finalterm/daily<br />\u000a         sudo apt-get update<br />\u000a         sudo apt-get install finalterm </p>\u000a</div>\u000a</div>\u000a\u000a</div></div></div><a href="http://iloveubuntu.net/tags/final-term">final-term</a>
p142
stRp143
sg19
(lp144
g1
(g2
g3
(dp145
g22
Vhttp://iloveubuntu.net/final-term-available-ppa-split-view
p146
sg11
g24
sg25
g26
stRp147
asg90
g41
((I2014
I2
I24
I17
I31
I21
I0
I55
I0
t(dtRp148
sg29
VFinal Term available via PPA with split view
p149
sg93
Vrazvi
p150
sg95
g142
sg96
I00
sS'title_detail'
p151
g1
(g2
g3
(dp152
g9
Vhttp://iloveubuntu.net
p153
sg11
g12
sg13
g14
sg15
g149
stRp154
sg30
g146
sg101
(lp155
g1
(g2
g3
(dtRp156
asS'author_detail'
p157
g1
(g2
g3
(dp158
g106
g150
stRp159
sg108
Vhttp://iloveubuntu.net/3440 at http://iloveubuntu.net
p160
sg110
VMon, 24 Feb 2014 17:31:21 +0000
p161
stRp162
ag1
(g2
g3
(dp163
S'summary_detail'
p164
g1
(g2
g3
(dp165
g9
Vhttp://iloveubuntu.net
p166
sg11
g34
sg13
g14
sg15
V<div class="easy_social_box clearfix horizontal easy_social_lang_und">\u000a            <div class="easy_social-widget easy_social-widget-twitter first"><a class="twitter-share-button" href="http://twitter.com/share">Tweet</a></div>\u000a          <div class="easy_social-widget easy_social-widget-facebook"></div>\u000a          <div class="easy_social-widget easy_social-widget-googleplus last"><div class="g-plusone"></div></div>\u000a  </div> <!-- /.easy_social_box --><div class="field field-name-body field-type-text-with-summary field-label-hidden"><div class="field-items"><div class="field-item even"><p>Cycles ago, the developers moved the app menus from within the app windows to the Unity panel, feature labeled as appmenu or global menu.</p>\u000a<p>Yet, since the appmenu implementation, various users have expressed demands for a within-windows menu, in order to easily access the menu.</p>\u000a<p>If you have been using the appmenu and you are still uncomfortable with it, then you are to welcome the newly-arrived in-window titlebars, new menus landed in Ubuntu 14.04 via the regular updates.</p>\u000a<p><a class="colorbox colorbox-insert-image" href="http://iloveubuntu.net/pictures_me/in window titlebars ubuntu 14.04.png" rel="gallery-all" title=""><img alt="" class="" height="427" src="http://iloveubuntu.net/pictures_me/in window titlebars ubuntu 14.04.png" title="" width="640" /></a><br />\u000aThe in-window menus are menus expressed on the titlebar itself, as opposed to the classic implementation on toolbars, that means that when you hover over the mouse pointer over a titlebar the titlebar displays the app's menu.</p>\u000a<p>The in-window titlebars are disabled by default, yet, you can enable the new menus as easily as navigating to <code>System Settings--&gt;Appearance--&gt;Behavior</code> and checking <code>In window title bars</code>.</p>\u000a<p>\u000aOnce the in-window menus are activated the regular global menu vanishes from the Unity panel, the in-window titlebars become the only accessible menu, mere pixels away from your mouse cursor.</p>\u000a</div></div></div><a href="http://iloveubuntu.net/tags/trusty-tahr">trusty-tahr</a>
p167
stRp168
sg19
(lp169
g1
(g2
g3
(dp170
g22
Vhttp://iloveubuntu.net/ubuntu-1404-received-demand-window-titlebars
p171
sg11
g24
sg25
g26
stRp172
asg90
g41
((I2014
I2
I21
I18
I28
I40
I4
I52
I0
t(dtRp173
sg29
VUbuntu 14.04 received on-demand in-window titlebars
p174
sg93
Vrazvi
p175
sg95
g167
sg96
I00
sS'title_detail'
p176
g1
(g2
g3
(dp177
g9
Vhttp://iloveubuntu.net
p178
sg11
g12
sg13
g14
sg15
g174
stRp179
sg30
g171
sg101
(lp180
g1
(g2
g3
(dtRp181
asS'author_detail'
p182
g1
(g2
g3
(dp183
g106
g175
stRp184
sg108
Vhttp://iloveubuntu.net/3439 at http://iloveubuntu.net
p185
sg110
VFri, 21 Feb 2014 18:28:40 +0000
p186
stRp187
ag1
(g2
g3
(dp188
S'summary_detail'
p189
g1
(g2
g3
(dp190
g9
Vhttp://iloveubuntu.net
p191
sg11
g34
sg13
g14
sg15
V<div class="easy_social_box clearfix horizontal easy_social_lang_und">\u000a            <div class="easy_social-widget easy_social-widget-twitter first"><a class="twitter-share-button" href="http://twitter.com/share">Tweet</a></div>\u000a          <div class="easy_social-widget easy_social-widget-facebook"></div>\u000a          <div class="easy_social-widget easy_social-widget-googleplus last"><div class="g-plusone"></div></div>\u000a  </div> <!-- /.easy_social_box --><div class="field field-name-body field-type-text-with-summary field-label-hidden"><div class="field-items"><div class="field-item even"><p>As you know and have been using, Ubuntu 13.10 resizes windows without an actual preview of the window; that means that when you drag-to-resize a window an orange container shows the potential new size of the window, yet, you can't actually see how the new size will look.</p>\u000a<p>The latest changes landed in Ubuntu 14.04 via the regular updates bring support for real-time resizing of windows, <code>Normal</code> mode implemented now by default.</p>\u000a<p>You will recognize the real-time resizing when the surface of a window is expanded as you drag; yet better, see for yourself in the below clip:</p>\u000a<p>Another interesting feature is the search support in spread mode, for example, if you hit the keyboard's <code>Super</code>+<code>W</code> and type a term or just characters, you will notice that the windows are filtered as you type.</p>\u000a<p>As a practical example, if on the desktop there are three Nautilus windows, the Nautilus instance housing the <code>Videos</code> folder remains as the only visible window if you type <code>videos</code> (without selecting a search field, etc).</p>\u000a</div></div></div><a href="http://iloveubuntu.net/tags/trusty-tahr">trusty-tahr</a>
p192
stRp193
sg19
(lp194
g1
(g2
g3
(dp195
g22
Vhttp://iloveubuntu.net/real-time-resize-you-drag-and-filter-you-type-spread-mode-landed-ubuntu-1404
p196
sg11
g24
sg25
g26
stRp197
asg90
g41
((I2014
I2
I20
I17
I43
I23
I3
I51
I0
t(dtRp198
sg29
VReal-time resize-as-you-drag and filter-as-you-type spread mode landed in Ubuntu 14.04
p199
sg93
Vrazvi
p200
sg95
g192
sg96
I00
sS'title_detail'
p201
g1
(g2
g3
(dp202
g9
Vhttp://iloveubuntu.net
p203
sg11
g12
sg13
g14
sg15
g199
stRp204
sg30
g196
sg101
(lp205
g1
(g2
g3
(dtRp206
asS'author_detail'
p207
g1
(g2
g3
(dp208
g106
g200
stRp209
sg108
Vhttp://iloveubuntu.net/3438 at http://iloveubuntu.net
p210
sg110
VThu, 20 Feb 2014 17:43:23 +0000
p211
stRp212
ag1
(g2
g3
(dp213
S'summary_detail'
p214
g1
(g2
g3
(dp215
g9
Vhttp://iloveubuntu.net
p216
sg11
g34
sg13
g14
sg15
V<div class="easy_social_box clearfix horizontal easy_social_lang_und">\u000a            <div class="easy_social-widget easy_social-widget-twitter first"><a class="twitter-share-button" href="http://twitter.com/share">Tweet</a></div>\u000a          <div class="easy_social-widget easy_social-widget-facebook"></div>\u000a          <div class="easy_social-widget easy_social-widget-googleplus last"><div class="g-plusone"></div></div>\u000a  </div> <!-- /.easy_social_box --><div class="field field-name-body field-type-text-with-summary field-label-hidden"><div class="field-items"><div class="field-item even"><p>The Humble Indie team has <a href="http://blog.humblebundle.com/post/77088386352/humble-indie-bundle-11-monaco-guacamelee-and-more">released</a> Humble Indie Bundle 11, adding an exciting set of games to the bundle.</p>\u000a<p>Humble Indie Bundle 11 comes with Guacamelee! Gold Edition, Dust: An Elysian Tail, Giana Sisters: Twisted Dreams and The Swapper; you are to most surely enjoy Dust: An Elysian Tail's beautiful graphics and polished interactions, game shifted from $15 (its price in the Humble store) to a pay-what-you-want bundle.</p>\u000a<p>As worth mentioning, Giana Sisters: Twisted Dreams is not available for Linux, yet, on its download webpage the developers stated that later this year its Linux flavor is to be available.</p>\u000a<p>For users paying more than the average, there is also Antichamber and Monaco: What's Yours is Mine.<br /><a class="colorbox colorbox-insert-image" href="http://iloveubuntu.net/pictures_me/Humble Indie Bundle 11.png" rel="gallery-all" title=""><img alt="" class="" height="153" src="http://iloveubuntu.net/pictures_me/Humble Indie Bundle 11.png" title="" width="640" /></a></p>\u000a<p>As for the installation manner, Dust: An Elysian Tail is contained into a clickable BIN file, running smoothly with absolute fullscreen mode, attribute followed by Guacamelee! Gold Edition, too.</p>\u000a<p>Humble Indie Bundle 11 is available for purchase on <a href="https://www.humblebundle.com/">https://www.humblebundle.com/</a></p>\u000a</div></div></div><a href="http://iloveubuntu.net/tags/humble-indie-bundle">humble indie bundle</a>
p217
stRp218
sg19
(lp219
g1
(g2
g3
(dp220
g22
Vhttp://iloveubuntu.net/humble-indie-bundle-11-released-impressive-games-dust-elysian-tail-included
p221
sg11
g24
sg25
g26
stRp222
asg90
g41
((I2014
I2
I19
I13
I55
I24
I2
I50
I0
t(dtRp223
sg29
VHumble Indie Bundle 11 released with impressive games (Dust: An Elysian Tail included)
p224
sg93
Vrazvi
p225
sg95
g217
sg96
I00
sS'title_detail'
p226
g1
(g2
g3
(dp227
g9
Vhttp://iloveubuntu.net
p228
sg11
g12
sg13
g14
sg15
g224
stRp229
sg30
g221
sg101
(lp230
g1
(g2
g3
(dtRp231
asS'author_detail'
p232
g1
(g2
g3
(dp233
g106
g225
stRp234
sg108
Vhttp://iloveubuntu.net/3437 at http://iloveubuntu.net
p235
sg110
VWed, 19 Feb 2014 13:55:24 +0000
p236
stRp237
ag1
(g2
g3
(dp238
S'summary_detail'
p239
g1
(g2
g3
(dp240
g9
Vhttp://iloveubuntu.net
p241
sg11
g34
sg13
g14
sg15
V<div class="easy_social_box clearfix horizontal easy_social_lang_und">\u000a            <div class="easy_social-widget easy_social-widget-twitter first"><a class="twitter-share-button" href="http://twitter.com/share">Tweet</a></div>\u000a          <div class="easy_social-widget easy_social-widget-facebook"></div>\u000a          <div class="easy_social-widget easy_social-widget-googleplus last"><div class="g-plusone"></div></div>\u000a  </div> <!-- /.easy_social_box --><div class="field field-name-body field-type-text-with-summary field-label-hidden"><div class="field-items"><div class="field-item even"><p>As you know, Ubuntu 14.04 is currently in development, process that is to generate the upcoming Ubuntu 14.04 LTS in the next months.</p>\u000a<p>The latest changes arrived in Ubuntu 14.04 via the regular updates bring a minor-yet-handy feature, allowing you to easily show/hide the username on the Unity panel.</p>\u000a<p>That means that if you navigate to <code>System Settings--&gt;User Accounts</code>, you will see a new <code>Show my login name in the menu bar</code> entry, entry unchecked by default.</p>\u000a<p>If you check it, your username will appear on the Unity panel, if you uncheck it, the top panel displays no username.</p>\u000a<p><a class="colorbox colorbox-insert-image" href="http://iloveubuntu.net/pictures_me/system settings show hide username.png" rel="gallery-all" title=""><img alt="" class="" height="408" src="http://iloveubuntu.net/pictures_me/system settings show hide username.png" title="" width="640" /></a><br />\u000aThe entry is handy, for example, if you want to take a screenshot of your desktop with your username visible, you are to 1 click-away check the option, shortly after you can unclutter the Unity panel by disabling the option without requiring non-default applications.</p>\u000a</div></div></div><a href="http://iloveubuntu.net/tags/trusty-tahr">trusty-tahr</a>
p242
stRp243
sg19
(lp244
g1
(g2
g3
(dp245
g22
Vhttp://iloveubuntu.net/ubuntu-1404s-system-settings-received-showhide-username-option
p246
sg11
g24
sg25
g26
stRp247
asg90
g41
((I2014
I2
I18
I16
I58
I13
I1
I49
I0
t(dtRp248
sg29
VUbuntu 14.04's System Settings received show/hide username option
p249
sg93
Vrazvi
p250
sg95
g242
sg96
I00
sS'title_detail'
p251
g1
(g2
g3
(dp252
g9
Vhttp://iloveubuntu.net
p253
sg11
g12
sg13
g14
sg15
g249
stRp254
sg30
g246
sg101
(lp255
g1
(g2
g3
(dtRp256
asS'author_detail'
p257
g1
(g2
g3
(dp258
g106
g250
stRp259
sg108
Vhttp://iloveubuntu.net/3436 at http://iloveubuntu.net
p260
sg110
VTue, 18 Feb 2014 16:58:13 +0000
p261
stRp262
ag1
(g2
g3
(dp263
S'summary_detail'
p264
g1
(g2
g3
(dp265
g9
Vhttp://iloveubuntu.net
p266
sg11
g34
sg13
g14
sg15
V<div class="easy_social_box clearfix horizontal easy_social_lang_und">\u000a            <div class="easy_social-widget easy_social-widget-twitter first"><a class="twitter-share-button" href="http://twitter.com/share">Tweet</a></div>\u000a          <div class="easy_social-widget easy_social-widget-facebook"></div>\u000a          <div class="easy_social-widget easy_social-widget-googleplus last"><div class="g-plusone"></div></div>\u000a  </div> <!-- /.easy_social_box --><div class="field field-name-body field-type-text-with-summary field-label-hidden"><div class="field-items"><div class="field-item even"><p>Recently, the developers <a href="http://iloveubuntu.net/developers-present-real-code-anti-aliased-corners-unity-7s-gtk-themes">demoed</a> several in-progress images with Unity decorations.</p>\u000a<p>If you wonder what this decorations are, the answer is simple: a new manner of rendering the corners of windows, in order to generate more smooth corners.</p>\u000a<p>You will perceive the Unity-decorations change as window corners expressed with a non-jagged look &amp; feel.</p>\u000a<p>In the below image, you can observe the difference: the protuberances have been significantly diminished, the new corners have less prominent shapes and tend towards a relatively-uniform line.</p>\u000a<p><a class="colorbox colorbox-insert-image" href="http://iloveubuntu.net/pictures_me/unity decorations.png" rel="gallery-all" title=""><img alt="" class="" height="199" src="http://iloveubuntu.net/pictures_me/unity decorations.png" title="" width="640" /></a><br />\u000aThe image is zoomed in, on the desktop the corners are now presented as significantly improved.</p>\u000a<p>The Unity decorations have landed in Ubuntu 14.04 via the regular updates paired with support for 16 pixels in System Settings' <code>Appearance</code> view.</p>\u000a<p><a class="colorbox colorbox-insert-image" href="http://iloveubuntu.net/pictures_me/16 pixels system settings.png" rel="gallery-all" title=""><img alt="" class="" height="455" src="http://iloveubuntu.net/pictures_me/16 pixels system settings.png" title="" width="640" /></a><br />\u000aThat translates as you being now able to decrease the Unity launcher's size as low as 16 pixels directly via <code>Appearance</code>, as opposed to the now-old 32-pixel limit.</p>\u000a</div></div></div><a href="http://iloveubuntu.net/tags/trusty-tahr">trusty-tahr</a>
p267
stRp268
sg19
(lp269
g1
(g2
g3
(dp270
g22
Vhttp://iloveubuntu.net/anti-aliased-window-corners-and-16-pixel-unity-launcher-size-arrived-ubuntu-1404
p271
sg11
g24
sg25
g26
stRp272
asg90
g41
((I2014
I2
I17
I19
I1
I46
I0
I48
I0
t(dtRp273
sg29
VAnti-aliased window corners and 16 pixel Unity launcher size arrived in Ubuntu 14.04
p274
sg93
Vrazvi
p275
sg95
g267
sg96
I00
sS'title_detail'
p276
g1
(g2
g3
(dp277
g9
Vhttp://iloveubuntu.net
p278
sg11
g12
sg13
g14
sg15
g274
stRp279
sg30
g271
sg101
(lp280
g1
(g2
g3
(dtRp281
asS'author_detail'
p282
g1
(g2
g3
(dp283
g106
g275
stRp284
sg108
Vhttp://iloveubuntu.net/3435 at http://iloveubuntu.net
p285
sg110
VMon, 17 Feb 2014 19:01:46 +0000
p286
stRp287
ag1
(g2
g3
(dp288
S'summary_detail'
p289
g1
(g2
g3
(dp290
g9
Vhttp://iloveubuntu.net
p291
sg11
g34
sg13
g14
sg15
V<div class="easy_social_box clearfix horizontal easy_social_lang_und">\u000a            <div class="easy_social-widget easy_social-widget-twitter first"><a class="twitter-share-button" href="http://twitter.com/share">Tweet</a></div>\u000a          <div class="easy_social-widget easy_social-widget-facebook"></div>\u000a          <div class="easy_social-widget easy_social-widget-googleplus last"><div class="g-plusone"></div></div>\u000a  </div> <!-- /.easy_social_box --><div class="field field-name-body field-type-text-with-summary field-label-hidden"><div class="field-items"><div class="field-item even"><p>Passionate about photography?, seeking features and speed?, having large collections of RAW images?, then look no further, Darktable is to probably satisfy your photography needs with a complex interface, support for a massive amount of cameras and a constantly-maintained development nature.</p>\u000a<p>Weeks ago, Darktable 1.4 was <a href="http://iloveubuntu.net/darktable-14-released-numerous-new-features-and-date-comprehensive-manual">released</a>, bringing a multitude of new features and new manners of handling photographies, 1.4 being the current major version.</p>\u000a<p>Yet, recently Darktable was <a href="http://www.darktable.org/2014/02/released-darktable-1-4-1/">updated</a> to version 1.4.1, .1 release adding to your Darktable instance a bundle of not-to-be-ignored bug fixes, like for example:</p>\u000a<ul><li>smaller coarseness for the grain plugin\u000a</li>\u000a<li>fixes targeting masks\u000a</li>\u000a<li>improved lua\u000a</li>\u000a<li>enhanced scrollbar behavior\u000a</li>\u000a<li>minor cosmetic changes\u000a</li>\u000a<li>improvements for the shadow and highlight modules\u000a</li>\u000a<li>ability to simultaneously import more than 1 style\u000a</li>\u000a<li>initial support for Panasonic DMC-LF1, SONY DSC-RX100M2 and SONY NEX-3N\u000a</li>\u000a<li>noise profiles for Nikon 1 V2, Nikon 1 J1 and Pentax K3\u000a</li>\u000a<li>enhanced color matrix for Sony A77V\u000a</li>\u000a</ul><p>Moreover, in the announcement the Darktable developers recommend the regular PPA, as opposed to the now phased-out Plus PPA.<br /><a class="colorbox colorbox-insert-image" href="http://iloveubuntu.net/pictures_me/darktable 141.png" rel="gallery-all" title=""><img alt="" class="" height="400" src="http://iloveubuntu.net/pictures_me/darktable 141.png" title="" width="640" /></a></p>\u000a<p><span class="round label">Install Darktable 1.4.1</span><br /><span class="success label">Add the following PPA (Ubuntu 12.04, Ubuntu 12.10, Ubuntu 13.10)</span></p>\u000a<div class="eleven columns">\u000a<div class="panel callout radius">\u000a<h5></h5>\u000a<p>sudo add-apt-repository ppa:pmjdebruijn/darktable-release<br />\u000a         sudo apt-get update<br />\u000a         sudo apt-get install darktable</p>\u000a</div>\u000a</div>\u000a\u000a<p>If you are interested to become knowledgeable in Darktable, feel free to <a href="http://sourceforge.net/projects/darktable/files/darktable/1.4/darktable-usermanual.pdf/download">download</a> the up-to-date comprehensive Darktable manual.</p>\u000a</div></div></div><a href="http://iloveubuntu.net/tags/darktable">darktable</a>
p292
stRp293
sg19
(lp294
g1
(g2
g3
(dp295
g22
Vhttp://iloveubuntu.net/darktable-141-released-fixes
p296
sg11
g24
sg25
g26
stRp297
asg90
g41
((I2014
I2
I16
I17
I57
I12
I6
I47
I0
t(dtRp298
sg29
VDarktable 1.4.1 released with fixes
p299
sg93
Vrazvi
p300
sg95
g292
sg96
I00
sS'title_detail'
p301
g1
(g2
g3
(dp302
g9
Vhttp://iloveubuntu.net
p303
sg11
g12
sg13
g14
sg15
g299
stRp304
sg30
g296
sg101
(lp305
g1
(g2
g3
(dtRp306
asS'author_detail'
p307
g1
(g2
g3
(dp308
g106
g300
stRp309
sg108
Vhttp://iloveubuntu.net/3434 at http://iloveubuntu.net
p310
sg110
VSun, 16 Feb 2014 17:57:12 +0000
p311
stRp312
ag1
(g2
g3
(dp313
S'summary_detail'
p314
g1
(g2
g3
(dp315
g9
Vhttp://iloveubuntu.net
p316
sg11
g34
sg13
g14
sg15
V<div class="easy_social_box clearfix horizontal easy_social_lang_und">\u000a            <div class="easy_social-widget easy_social-widget-twitter first"><a class="twitter-share-button" href="http://twitter.com/share">Tweet</a></div>\u000a          <div class="easy_social-widget easy_social-widget-facebook"></div>\u000a          <div class="easy_social-widget easy_social-widget-googleplus last"><div class="g-plusone"></div></div>\u000a  </div> <!-- /.easy_social_box --><div class="field field-name-body field-type-text-with-summary field-label-hidden"><div class="field-items"><div class="field-item even"><p><a href="http://www.godotengine.org/wp/">Godot</a> is a versatile game engine that offers a significant amount of functionalities into a robust interface.</p>\u000a<p>Practically, Godot was recently released as open-source (MIT licensed), process followed by its availability as a free download.</p>\u000a<p>At the moment, Godot is in a BETA stage, therefore, interested users can participate to its development.</p>\u000a<p>I must confess that Godot is rather impressive and easy to user from beginning to the end; after I launched the tool and scanned the demos, a window lists projects, clicking on a preferred project opens the project.<br /><a class="colorbox colorbox-insert-image" href="http://iloveubuntu.net/pictures_me/godot import.png" rel="gallery-all" title=""><img alt="" class="" height="400" src="http://iloveubuntu.net/pictures_me/godot import.png" title="" width="640" /></a></p>\u000a<p>What are this projects? Pre-defined template-like constructions ranging from platformers, particle systems to splash screens and tetris.</p>\u000a<p>Not unsurprised I've discovered a whole new game universe contained in the mentioned entries, each and each entry immerses you into a complex structure.</p>\u000a<p>What are the demos for? Naturally, via demos you are to familiarize yourself with types of games and visuals and also you are to discover how to edit shapes, lights, shadows, etc.</p>\u000a<p>As features, Godot comes packed with support for 2D and 3D games, pixel coordinates, lights, occlusion, skeletal animations, scripting, real-time cutscenes, simulations, debugging, etc.</p>\u000a<p>As seen in the below clip, the tool is fast and propelled by features, by simply using the mouse I was able to zoom in/out the landscape, select portions of the game and enjoy a complex piece from a game.</p>\u000a<p>\u000aNot small was my surprise when I clicked on the <code>Export</code> button and I saw the 1 click-away ability to export the game edited with Godot to Android, BlackBerry, HTML5, Linux, Mac and Windows.</p>\u000a<p>If you will use Godot, its warnings are to come as helpful, for example, clicking on <code>HTML5</code> displays the errors that lead you to steps to be followed for exporting the game, steps like <code>Download and install export templates</code>, <code>No export templates found</code>, etc.<br /><a class="colorbox colorbox-insert-image" href="http://iloveubuntu.net/pictures_me/godot export.png" rel="gallery-all" title=""><img alt="" class="" height="400" src="http://iloveubuntu.net/pictures_me/godot export.png" title="" width="640" /></a></p>\u000a<p>Installing Godot is as simple as <a href="http://www.godotengine.org/wp/?page_id=51">downloading</a> it, right-clicking on <code>godot_x11.64--&gt;Properties--&gt;Permissions</code> and check <code>Allows executing file as program</code>; finally, double-clicking on <code>godot_x11.64</code> launches the game engine.</p>\u000a<p>The demos are available for <a href="http://www.godotengine.org/builds/demos/godot_demos.zip">download</a> as separate, add the demos to your Godot instance by unpacking the zip and locate the unpacked folder via the <code>Scan</code> button.</p>\u000a</div></div></div><a href="http://iloveubuntu.net/tags/godot">godot</a>
p317
stRp318
sg19
(lp319
g1
(g2
g3
(dp320
g22
Vhttp://iloveubuntu.net/game-engine-godot-becomes-open-source-and-freely-available-download
p321
sg11
g24
sg25
g26
stRp322
ag1
(g2
g3
(dp323
Vhref
p324
Vhttp://www.godotengine.org/builds/demos/godot_demos.zip
p325
sg25
Venclosure
p326
sg29
g1
(cBeautifulSoup
NavigableString
p327
c__builtin__
unicode
p328
Vdownload
tRp329
(dp330
S'nextSibling'
p331
NsS'next'
p332
g1
(g327
g328
V as separate, add the demos to your Godot instance by unpacking the zip and locate the unpacked folder via the 
tRp333
(dp334
g331
g1
(cBeautifulSoup
Tag
p335
c__builtin__
object
p336
NtRp337
(dp338
S'escapeUnrecognizedEntities'
p339
I00
sg106
Vcode
p340
sS'parent'
p341
g1
(g335
g336
NtRp342
(dp343
g339
I00
sg106
Vp
sg341
g1
(g335
g336
NtRp344
(dp345
g339
I00
sg106
Vdiv
p346
sg341
g1
(g335
g336
NtRp347
(dp348
g339
I00
sg106
Vdiv
p349
sg341
g1
(g335
g336
NtRp350
(dp351
g339
I00
sg106
Vdiv
p352
sg341
g1
(cBeautifulSoup
BeautifulSoup
p353
g336
NtRp354
(dp355
S'declaredHTMLEncoding'
p356
NsS'verbose'
p357
I0
sg331
NsS'attrs'
p358
(lp359
sS'convertXMLEntities'
p360
I00
sS'containsSubstitutions'
p361
I00
sS'contents'
p362
(lp363
g1
(g335
g336
NtRp364
(dp365
g339
I00
sg106
Vdiv
p366
sg341
g354
sS'parserClass'
p367
g353
sS'convertHTMLEntities'
p368
I00
sg331
g1
(g327
g328
V 
tRp369
(dp370
g331
g1
(cBeautifulSoup
Comment
p371
g328
V<!-- /.easy_social_box -->
tRp372
(dp373
g331
g350
sg332
g350
sS'previousSibling'
p374
g369
sg341
g354
sS'previous'
p375
g369
sbsg332
g372
sg374
g364
sg341
g354
sg375
g1
(g327
g328
V\u000a
tRp376
(dp377
g331
Nsg332
g369
sg374
g1
(g335
g336
NtRp378
(dp379
g339
I00
sg106
Vdiv
p380
sg341
g364
sg367
g353
sg368
I00
sg331
g376
sg332
g1
(g335
g336
NtRp381
(dp382
g339
I00
sg106
Vdiv
p383
sg341
g378
sg367
g353
sg368
I00
sg331
Nsg332
g376
sS'isSelfClosing'
p384
I00
sS'attrMap'
p385
(dp386
Vdata-href
p387
Vhttp://iloveubuntu.net/game-engine-godot-becomes-open-source-and-freely-available-download
p388
sVclass
p389
Vg-plusone
p390
sVdata-size
p391
Vmedium
p392
sVdata-annotation
p393
Vbubble
p394
ssg360
I00
sS'hidden'
p395
I00
sg375
g378
sg374
Nsg361
I00
sg362
(lp396
sg358
(lp397
(g389
g390
tp398
a(g393
g394
tp399
a(g387
g388
tp400
a(g391
g392
tp401
asbsg384
I00
sg385
(dp402
Vclass
p403
Veasy_social-widget easy_social-widget-googleplus last
p404
ssg360
I00
sg395
I00
sg375
g1
(g327
g328
V\u000a
tRp405
(dp406
g331
g378
sg332
g378
sg374
g1
(g335
g336
NtRp407
(dp408
g339
I00
sg106
Vdiv
p409
sg341
g364
sg367
g353
sg368
I00
sg331
g405
sg332
g1
(g335
g336
NtRp410
(dp411
g339
I00
sg106
Viframe
p412
sg341
g407
sg367
g353
sg368
I00
sg331
Nsg332
g405
sg384
I00
sg385
(dp413
Vallowtransparency
p414
Vtrue
p415
sVsrc
p416
Vhttp://www.facebook.com/plugins/like.php?locale=en_US&href=http%3A//iloveubuntu.net/game-engine-godot-becomes-open-source-and-freely-available-download&send=false&layout=button_count&width=88&show_faces=true&action=like&colorscheme=light&font=&height=21&appId=
p417
sVstyle
p418
Vborder:none; overflow:hidden; width:88px; height:21px;
p419
sVscrolling
p420
Vno
p421
sVframeborder
p422
V0
ssg360
I00
sg395
I00
sg375
g407
sg374
Nsg361
I00
sg362
(lp423
sg358
(lp424
(g414
g415
tp425
a(g422
V0
tp426
a(g420
g421
tp427
a(g416
g417
tp428
a(g418
g419
tp429
asbsg384
I00
sg385
(dp430
Vclass
p431
Veasy_social-widget easy_social-widget-facebook
p432
ssg360
I00
sg395
I00
sg375
g1
(g327
g328
V\u000a
tRp433
(dp434
g331
g407
sg332
g407
sg374
g1
(g335
g336
NtRp435
(dp436
g339
I00
sg106
Vdiv
p437
sg341
g364
sg367
g353
sg368
I00
sg331
g433
sg332
g1
(g335
g336
NtRp438
(dp439
g339
I00
sg106
Va
sg341
g435
sg367
g353
sg368
I00
sg331
Nsg332
g1
(g327
g328
VTweet
tRp440
(dp441
g331
Nsg332
g433
sg374
Nsg341
g438
sg375
g438
sbsg384
I00
sg385
(dp442
Vdata-related
p443
V:
sVdata-count
p444
Vhorizontal
p445
sVdata-lang
p446
Ven
p447
sVdata-via
p448
Viloveubuntu
p449
sVdata-url
p450
Vhttp://iloveubuntu.net/game-engine-godot-becomes-open-source-and-freely-available-download
p451
sVdata-text
p452
VGame engine Godot becomes open-source and freely available for download
p453
sVhref
p454
Vhttp://twitter.com/share
p455
sVclass
p456
Vtwitter-share-button
p457
ssg360
I00
sg395
I00
sg375
g435
sg374
Nsg361
I00
sg362
(lp458
g440
asg358
(lp459
(g456
g457
tp460
a(g444
g445
tp461
a(g446
g447
tp462
a(g443
V:
tp463
a(g452
g453
tp464
a(g450
g451
tp465
a(g448
g449
tp466
a(g454
g455
tp467
asbsg384
I00
sg385
(dp468
Vclass
p469
Veasy_social-widget easy_social-widget-twitter first
p470
ssg360
I00
sg395
I00
sg375
g1
(g327
g328
V\u000a
tRp471
(dp472
g331
g435
sg332
g435
sg374
Nsg341
g364
sg375
g364
sbsg374
g471
sg361
I00
sg362
(lp473
g438
asg358
(lp474
(g469
g470
tp475
asbsg341
g364
sg375
g440
sbsg374
g433
sg361
I00
sg362
(lp476
g410
asg358
(lp477
(g431
g432
tp478
asbsg341
g364
sg375
g410
sbsg374
g405
sg361
I00
sg362
(lp479
g381
asg358
(lp480
(g403
g404
tp481
asbsg341
g364
sg375
g381
sbsbsg332
g471
sg384
I00
sg385
(dp482
Vclass
p483
Veasy_social_box clearfix horizontal easy_social_lang_und
p484
ssg360
I00
sg395
I00
sg375
Nsg374
Nsg361
I00
sg362
(lp485
g471
ag435
ag433
ag407
ag405
ag378
ag376
asg358
(lp486
(g483
g484
tp487
asbag369
ag372
ag350
ag1
(g335
g336
NtRp488
(dp489
g339
I00
sg106
Va
sg341
g354
sg367
g353
sg368
I00
sg331
Nsg332
g1
(g327
g328
Vgodot
tRp490
(dp491
g331
Nsg332
Nsg374
Nsg341
g488
sg375
g488
sbsg384
I00
sg385
(dp492
Vdatatype
p493
V
sVproperty
p494
Vrdfs:label skos:prefLabel
p495
sVhref
p496
Vhttp://iloveubuntu.net/tags/godot
p497
sVtypeof
p498
Vskos:Concept
p499
ssg360
I00
sg395
I00
sg375
g1
(g327
g328
V\u000a
tRp500
(dp501
g331
Nsg332
g488
sg374
g342
sg341
g344
sg375
g1
(g327
g328
V button.
tRp502
(dp503
g331
Nsg332
g500
sg374
g337
sg341
g342
sg375
g1
(g327
g328
VScan
tRp504
(dp505
g331
Nsg332
g502
sg374
Nsg341
g337
sg375
g337
sbsbsbsg374
g350
sg361
I00
sg362
(lp506
g490
asg358
(lp507
(g493
V
tp508
a(g496
g497
tp509
a(g494
g495
tp510
a(g498
g499
tp511
asbasg375
g490
sS'tagStack'
p512
(lp513
g354
asg339
I00
sS'smartQuotesTo'
p514
S'html'
p515
sS'nomoretags'
p516
I0
sg332
NsS'literal'
p517
I0
sg384
I00
sg395
I1
sg374
NsS'lineno'
p518
I1
sS'parseOnlyThese'
p519
NsS'fromEncoding'
p520
Nsg341
Nsg367
g353
sg368
I00
sS'_SGMLParser__starttag_text'
p521
V<a datatype="" href="http://iloveubuntu.net/tags/godot" property="rdfs:label skos:prefLabel" typeof="skos:Concept">
p522
sS'offset'
p523
I0
sS'instanceSelfClosingTags'
p524
(dp525
NNssS'convertEntities'
p526
NsS'stack'
p527
(lp528
sS'quoteStack'
p529
(lp530
sg106
V[document]
p531
sS'markup'
p532
NsS'rawdata'
p533
V
sS'lasttag'
p534
Va
sS'originalEncoding'
p535
S'ascii'
p536
sS'currentTag'
p537
g354
sS'currentData'
p538
(lp539
sbsg367
g353
sg368
I00
sg331
g488
sg332
g347
sg384
I00
sg385
(dp540
Vclass
p541
Vfield field-name-body field-type-text-with-summary field-label-hidden
p542
ssg360
I00
sg395
I00
sg375
g372
sg374
g372
sg361
I00
sg362
(lp543
g347
asg358
(lp544
(g541
g542
tp545
asbsg367
g353
sg368
I00
sg331
Nsg332
g344
sg384
I00
sg385
(dp546
Vclass
p547
Vfield-items
p548
ssg360
I00
sg395
I00
sg375
g350
sg374
Nsg361
I00
sg362
(lp549
g344
asg358
(lp550
(g547
g548
tp551
asbsg367
g353
sg368
I00
sg331
Nsg332
g1
(g335
g336
NtRp552
(dp553
g339
I00
sg106
Vp
sg341
g344
sg367
g353
sg368
I00
sg331
g1
(g327
g328
V\u000a
tRp554
(dp555
g331
g1
(g335
g336
NtRp556
(dp557
g339
I00
sg106
Vp
sg341
g344
sg367
g353
sg368
I00
sg331
g1
(g327
g328
V\u000a
tRp558
(dp559
g331
g1
(g335
g336
NtRp560
(dp561
g339
I00
sg106
Vp
sg341
g344
sg367
g353
sg368
I00
sg331
g1
(g327
g328
V\u000a
tRp562
(dp563
g331
g1
(g335
g336
NtRp564
(dp565
g339
I00
sg106
Vp
sg341
g344
sg367
g353
sg368
I00
sg331
g1
(g327
g328
V\u000a
tRp566
(dp567
g331
g1
(g335
g336
NtRp568
(dp569
g339
I00
sg106
Vp
sg341
g344
sg367
g353
sg368
I00
sg331
g1
(g327
g328
V\u000a
tRp570
(dp571
g331
g1
(g335
g336
NtRp572
(dp573
g339
I00
sg106
Vp
sg341
g344
sg367
g353
sg368
I00
sg331
g1
(g327
g328
V\u000a
tRp574
(dp575
g331
g1
(g335
g336
NtRp576
(dp577
g339
I00
sg106
Vp
sg341
g344
sg367
g353
sg368
I00
sg331
g1
(g327
g328
V\u000a
tRp578
(dp579
g331
g1
(g335
g336
NtRp580
(dp581
g339
I00
sg106
Vp
sg341
g344
sg367
g353
sg368
I00
sg331
g1
(g327
g328
V\u000a
tRp582
(dp583
g331
g1
(g335
g336
NtRp584
(dp585
g339
I00
sg106
Vp
sg341
g344
sg367
g353
sg368
I00
sg331
g1
(g327
g328
V\u000a
tRp586
(dp587
g331
g1
(g335
g336
NtRp588
(dp589
g339
I00
sg106
Viframe
p590
sg341
g344
sg367
g353
sg368
I00
sg331
g1
(g335
g336
NtRp591
(dp592
g339
I00
sg106
Vp
sg341
g344
sg367
g353
sg368
I00
sg331
g1
(g327
g328
V\u000a
tRp593
(dp594
g331
g1
(g335
g336
NtRp595
(dp596
g339
I00
sg106
Vp
sg341
g344
sg367
g353
sg368
I00
sg331
g1
(g327
g328
V\u000a
tRp597
(dp598
g331
g1
(g335
g336
NtRp599
(dp600
g339
I00
sg106
Vp
sg341
g344
sg367
g353
sg368
I00
sg331
g1
(g327
g328
V\u000a
tRp601
(dp602
g331
g342
sg332
g342
sg374
g599
sg341
g344
sg375
g1
(g327
g328
V launches the game engine.
tRp603
(dp604
g331
Nsg332
g601
sg374
g1
(g335
g336
NtRp605
(dp606
g339
I00
sg106
Vcode
p607
sg341
g599
sg367
g353
sg368
I00
sg331
g603
sg332
g1
(g327
g328
Vgodot_x11.64
tRp608
(dp609
g331
Nsg332
g603
sg374
Nsg341
g605
sg375
g605
sbsg384
I00
sg385
(dp610
sg360
I00
sg395
I00
sg375
g1
(g327
g328
V; finally, double-clicking on 
tRp611
(dp612
g331
g605
sg332
g605
sg374
g1
(g335
g336
NtRp613
(dp614
g339
I00
sg106
Vcode
p615
sg341
g599
sg367
g353
sg368
I00
sg331
g611
sg332
g1
(g327
g328
VAllows executing file as program
tRp616
(dp617
g331
Nsg332
g611
sg374
Nsg341
g613
sg375
g613
sbsg384
I00
sg385
(dp618
sg360
I00
sg395
I00
sg375
g1
(g327
g328
V and check 
tRp619
(dp620
g331
g613
sg332
g613
sg374
g1
(g335
g336
NtRp621
(dp622
g339
I00
sg106
Vcode
p623
sg341
g599
sg367
g353
sg368
I00
sg331
g619
sg332
g1
(g327
g328
Vgodot_x11.64--&gt;Properties--&gt;Permissions
tRp624
(dp625
g331
Nsg332
g619
sg374
Nsg341
g621
sg375
g621
sbsg384
I00
sg385
(dp626
sg360
I00
sg395
I00
sg375
g1
(g327
g328
V it, right-clicking on 
tRp627
(dp628
g331
g621
sg332
g621
sg374
g1
(g335
g336
NtRp629
(dp630
g339
I00
sg106
Va
sg341
g599
sg367
g353
sg368
I00
sg331
g627
sg332
g1
(g327
g328
Vdownloading
tRp631
(dp632
g331
Nsg332
g627
sg374
Nsg341
g629
sg375
g629
sbsg384
I00
sg385
(dp633
Vhref
p634
Vhttp://www.godotengine.org/wp/?page_id=51
p635
ssg360
I00
sg395
I00
sg375
g1
(g327
g328
VInstalling Godot is as simple as 
tRp636
(dp637
g331
g629
sg332
g629
sg374
Nsg341
g599
sg375
g599
sbsg374
g636
sg361
I00
sg362
(lp638
g631
asg358
(lp639
(g634
g635
tp640
asbsg341
g599
sg375
g631
sbsg374
g627
sg361
I00
sg362
(lp641
g624
asg358
(lp642
sbsg341
g599
sg375
g624
sbsg374
g619
sg361
I00
sg362
(lp643
g616
asg358
(lp644
sbsg341
g599
sg375
g616
sbsg374
g611
sg361
I00
sg362
(lp645
g608
asg358
(lp646
sbsg341
g599
sg375
g608
sbsbsg332
g636
sg384
I00
sg385
(dp647
sg360
I00
sg395
I00
sg375
g597
sg374
g597
sg361
I00
sg362
(lp648
g636
ag629
ag627
ag621
ag619
ag613
ag611
ag605
ag603
asg358
(lp649
sbsg332
g599
sg374
g595
sg341
g344
sg375
g1
(g335
g336
NtRp650
(dp651
g339
I00
sg106
Vimg
p652
sg341
g1
(g335
g336
NtRp653
(dp654
g339
I00
sg106
Va
sg341
g595
sg367
g353
sg368
I00
sg331
Nsg332
g650
sg384
I00
sg385
(dp655
Vhref
p656
Vhttp://iloveubuntu.net/pictures_me/godot export.png
p657
sVclass
p658
Vcolorbox colorbox-insert-image
p659
sVrel
p660
Vgallery-all
p661
sVtitle
p662
V
ssg360
I00
sg395
I00
sg375
g1
(g335
g336
NtRp663
(dp664
g339
I00
sg106
Vbr
p665
sg341
g595
sg367
g353
sg368
I00
sg331
g653
sg332
g653
sg384
I01
sg385
(dp666
sg360
I00
sg395
I00
sg375
g1
(g327
g328
V, etc.
tRp667
(dp668
g331
g663
sg332
g663
sg374
g1
(g335
g336
NtRp669
(dp670
g339
I00
sg106
Vcode
p671
sg341
g595
sg367
g353
sg368
I00
sg331
g667
sg332
g1
(g327
g328
VNo export templates found
tRp672
(dp673
g331
Nsg332
g667
sg374
Nsg341
g669
sg375
g669
sbsg384
I00
sg385
(dp674
sg360
I00
sg395
I00
sg375
g1
(g327
g328
V, 
tRp675
(dp676
g331
g669
sg332
g669
sg374
g1
(g335
g336
NtRp677
(dp678
g339
I00
sg106
Vcode
p679
sg341
g595
sg367
g353
sg368
I00
sg331
g675
sg332
g1
(g327
g328
VDownload and install export templates
tRp680
(dp681
g331
Nsg332
g675
sg374
Nsg341
g677
sg375
g677
sbsg384
I00
sg385
(dp682
sg360
I00
sg395
I00
sg375
g1
(g327
g328
V displays the errors that lead you to steps to be followed for exporting the game, steps like 
tRp683
(dp684
g331
g677
sg332
g677
sg374
g1
(g335
g336
NtRp685
(dp686
g339
I00
sg106
Vcode
p687
sg341
g595
sg367
g353
sg368
I00
sg331
g683
sg332
g1
(g327
g328
VHTML5
tRp688
(dp689
g331
Nsg332
g683
sg374
Nsg341
g685
sg375
g685
sbsg384
I00
sg385
(dp690
sg360
I00
sg395
I00
sg375
g1
(g327
g328
VIf you will use Godot, its warnings are to come as helpful, for example, clicking on 
tRp691
(dp692
g331
g685
sg332
g685
sg374
Nsg341
g595
sg375
g595
sbsg374
g691
sg361
I00
sg362
(lp693
g688
asg358
(lp694
sbsg341
g595
sg375
g688
sbsg374
g683
sg361
I00
sg362
(lp695
g680
asg358
(lp696
sbsg341
g595
sg375
g680
sbsg374
g675
sg361
I00
sg362
(lp697
g672
asg358
(lp698
sbsg341
g595
sg375
g672
sbsg374
g667
sg361
I00
sg362
(lp699
sg358
(lp700
sbsg374
g663
sg361
I00
sg362
(lp701
g650
asg358
(lp702
(g658
g659
tp703
a(g656
g657
tp704
a(g660
g661
tp705
a(g662
V
tp706
asbsg367
g353
sg368
I00
sg331
Nsg332
g597
sg384
I01
sg385
(dp707
Vsrc
p708
Vhttp://iloveubuntu.net/pictures_me/godot export.png
p709
sVtitle
p710
V
sVheight
p711
V400
p712
sVwidth
p713
V640
p714
sVtypeof
p715
Vfoaf:Image
p716
sValt
p717
V
sVclass
p718
V
ssg360
I00
sg395
I00
sg375
g653
sg374
Nsg361
I00
sg362
(lp719
sg358
(lp720
(g717
V
tp721
a(g718
V
tp722
a(g711
g712
tp723
a(g708
g709
tp724
a(g710
V
tp725
a(g715
g716
tp726
a(g713
g714
tp727
asbsbsg332
g691
sg384
I00
sg385
(dp728
sg360
I00
sg395
I00
sg375
g593
sg374
g593
sg361
I00
sg362
(lp729
g691
ag685
ag683
ag677
ag675
ag669
ag667
ag663
ag653
asg358
(lp730
sbsg332
g595
sg374
g591
sg341
g344
sg375
g1
(g327
g328
V button and I saw the 1 click-away ability to export the game edited with Godot to Android, BlackBerry, HTML5, Linux, Mac and Windows.
tRp731
(dp732
g331
Nsg332
g593
sg374
g1
(g335
g336
NtRp733
(dp734
g339
I00
sg106
Vcode
p735
sg341
g591
sg367
g353
sg368
I00
sg331
g731
sg332
g1
(g327
g328
VExport
tRp736
(dp737
g331
Nsg332
g731
sg374
Nsg341
g733
sg375
g733
sbsg384
I00
sg385
(dp738
sg360
I00
sg395
I00
sg375
g1
(g327
g328
V\u000aNot small was my surprise when I clicked on the 
tRp739
(dp740
g331
g733
sg332
g733
sg374
Nsg341
g591
sg375
g591
sbsg374
g739
sg361
I00
sg362
(lp741
g736
asg358
(lp742
sbsg341
g591
sg375
g736
sbsbsg332
g739
sg384
I00
sg385
(dp743
sg360
I00
sg395
I00
sg375
g588
sg374
g588
sg361
I00
sg362
(lp744
g739
ag733
ag731
asg358
(lp745
sbsg332
g591
sg384
I00
sg385
(dp746
Vsrc
p747
Vhttp://www.youtube.com/embed/Wmg_v4NPzVs?feature=player_detailpage
p748
sVallowfullscreen
p749
V
sVwidth
p750
V640
p751
sVframeborder
p752
V0
sVheight
p753
V360
p754
ssg360
I00
sg395
I00
sg375
g586
sg374
g586
sg361
I00
sg362
(lp755
sg358
(lp756
(g749
V
tp757
a(g752
V0
tp758
a(g753
g754
tp759
a(g747
g748
tp760
a(g750
g751
tp761
asbsg332
g588
sg374
g584
sg341
g344
sg375
g1
(g327
g328
VAs seen in the below clip, the tool is fast and propelled by features, by simply using the mouse I was able to zoom in/out the landscape, select portions of the game and enjoy a complex piece from a game.
tRp762
(dp763
g331
Nsg332
g586
sg374
Nsg341
g584
sg375
g584
sbsbsg332
g762
sg384
I00
sg385
(dp764
sg360
I00
sg395
I00
sg375
g582
sg374
g582
sg361
I00
sg362
(lp765
g762
asg358
(lp766
sbsg332
g584
sg374
g580
sg341
g344
sg375
g1
(g327
g328
VAs features, Godot comes packed with support for 2D and 3D games, pixel coordinates, lights, occlusion, skeletal animations, scripting, real-time cutscenes, simulations, debugging, etc.
tRp767
(dp768
g331
Nsg332
g582
sg374
Nsg341
g580
sg375
g580
sbsbsg332
g767
sg384
I00
sg385
(dp769
sg360
I00
sg395
I00
sg375
g578
sg374
g578
sg361
I00
sg362
(lp770
g767
asg358
(lp771
sbsg332
g580
sg374
g576
sg341
g344
sg375
g1
(g327
g328
VWhat are the demos for? Naturally, via demos you are to familiarize yourself with types of games and visuals and also you are to discover how to edit shapes, lights, shadows, etc.
tRp772
(dp773
g331
Nsg332
g578
sg374
Nsg341
g576
sg375
g576
sbsbsg332
g772
sg384
I00
sg385
(dp774
sg360
I00
sg395
I00
sg375
g574
sg374
g574
sg361
I00
sg362
(lp775
g772
asg358
(lp776
sbsg332
g576
sg374
g572
sg341
g344
sg375
g1
(g327
g328
VNot unsurprised I've discovered a whole new game universe contained in the mentioned entries, each and each entry immerses you into a complex structure.
tRp777
(dp778
g331
Nsg332
g574
sg374
Nsg341
g572
sg375
g572
sbsbsg332
g777
sg384
I00
sg385
(dp779
sg360
I00
sg395
I00
sg375
g570
sg374
g570
sg361
I00
sg362
(lp780
g777
asg358
(lp781
sbsg332
g572
sg374
g568
sg341
g344
sg375
g1
(g327
g328
VWhat are this projects? Pre-defined template-like constructions ranging from platformers, particle systems to splash screens and tetris.
tRp782
(dp783
g331
Nsg332
g570
sg374
Nsg341
g568
sg375
g568
sbsbsg332
g782
sg384
I00
sg385
(dp784
sg360
I00
sg395
I00
sg375
g566
sg374
g566
sg361
I00
sg362
(lp785
g782
asg358
(lp786
sbsg332
g568
sg374
g564
sg341
g344
sg375
g1
(g335
g336
NtRp787
(dp788
g339
I00
sg106
Vimg
p789
sg341
g1
(g335
g336
NtRp790
(dp791
g339
I00
sg106
Va
sg341
g564
sg367
g353
sg368
I00
sg331
Nsg332
g787
sg384
I00
sg385
(dp792
Vhref
p793
Vhttp://iloveubuntu.net/pictures_me/godot import.png
p794
sVclass
p795
Vcolorbox colorbox-insert-image
p796
sVrel
p797
Vgallery-all
p798
sVtitle
p799
V
ssg360
I00
sg395
I00
sg375
g1
(g335
g336
NtRp800
(dp801
g339
I00
sg106
Vbr
p802
sg341
g564
sg367
g353
sg368
I00
sg331
g790
sg332
g790
sg384
I01
sg385
(dp803
sg360
I00
sg395
I00
sg375
g1
(g327
g328
VI must confess that Godot is rather impressive and easy to user from beginning to the end; after I launched the tool and scanned the demos, a window lists projects, clicking on a preferred project opens the project.
tRp804
(dp805
g331
g800
sg332
g800
sg374
Nsg341
g564
sg375
g564
sbsg374
g804
sg361
I00
sg362
(lp806
sg358
(lp807
sbsg374
g800
sg361
I00
sg362
(lp808
g787
asg358
(lp809
(g795
g796
tp810
a(g793
g794
tp811
a(g797
g798
tp812
a(g799
V
tp813
asbsg367
g353
sg368
I00
sg331
Nsg332
g566
sg384
I01
sg385
(dp814
Vsrc
p815
Vhttp://iloveubuntu.net/pictures_me/godot import.png
p816
sVtitle
p817
V
sVheight
p818
V400
p819
sVwidth
p820
V640
p821
sVtypeof
p822
Vfoaf:Image
p823
sValt
p824
V
sVclass
p825
V
ssg360
I00
sg395
I00
sg375
g790
sg374
Nsg361
I00
sg362
(lp826
sg358
(lp827
(g824
V
tp828
a(g825
V
tp829
a(g818
g819
tp830
a(g815
g816
tp831
a(g817
V
tp832
a(g822
g823
tp833
a(g820
g821
tp834
asbsbsg332
g804
sg384
I00
sg385
(dp835
sg360
I00
sg395
I00
sg375
g562
sg374
g562
sg361
I00
sg362
(lp836
g804
ag800
ag790
asg358
(lp837
sbsg332
g564
sg374
g560
sg341
g344
sg375
g1
(g327
g328
VAt the moment, Godot is in a BETA stage, therefore, interested users can participate to its development.
tRp838
(dp839
g331
Nsg332
g562
sg374
Nsg341
g560
sg375
g560
sbsbsg332
g838
sg384
I00
sg385
(dp840
sg360
I00
sg395
I00
sg375
g558
sg374
g558
sg361
I00
sg362
(lp841
g838
asg358
(lp842
sbsg332
g560
sg374
g556
sg341
g344
sg375
g1
(g327
g328
VPractically, Godot was recently released as open-source (MIT licensed), process followed by its availability as a free download.
tRp843
(dp844
g331
Nsg332
g558
sg374
Nsg341
g556
sg375
g556
sbsbsg332
g843
sg384
I00
sg385
(dp845
sg360
I00
sg395
I00
sg375
g554
sg374
g554
sg361
I00
sg362
(lp846
g843
asg358
(lp847
sbsg332
g556
sg374
g552
sg341
g344
sg375
g1
(g327
g328
V is a versatile game engine that offers a significant amount of functionalities into a robust interface.
tRp848
(dp849
g331
Nsg332
g554
sg374
g1
(g335
g336
NtRp850
(dp851
g339
I00
sg106
Va
sg341
g552
sg367
g353
sg368
I00
sg331
g848
sg332
g1
(g327
g328
VGodot
tRp852
(dp853
g331
Nsg332
g848
sg374
Nsg341
g850
sg375
g850
sbsg384
I00
sg385
(dp854
Vhref
p855
Vhttp://www.godotengine.org/wp/
p856
ssg360
I00
sg395
I00
sg375
g552
sg374
Nsg361
I00
sg362
(lp857
g852
asg358
(lp858
(g855
g856
tp859
asbsg341
g552
sg375
g852
sbsbsg332
g850
sg384
I00
sg385
(dp860
sg360
I00
sg395
I00
sg375
g344
sg374
Nsg361
I00
sg362
(lp861
g850
ag848
asg358
(lp862
sbsg384
I00
sg385
(dp863
Vproperty
p864
Vcontent:encoded
p865
sVclass
p866
Vfield-item even
p867
ssg360
I00
sg395
I00
sg375
g347
sg374
Nsg361
I00
sg362
(lp868
g552
ag554
ag556
ag558
ag560
ag562
ag564
ag566
ag568
ag570
ag572
ag574
ag576
ag578
ag580
ag582
ag584
ag586
ag588
ag591
ag593
ag595
ag597
ag599
ag601
ag342
ag500
asg358
(lp869
(g866
g867
tp870
a(g864
g865
tp871
asbsg367
g353
sg368
I00
sg331
g500
sg332
g1
(g327
g328
VThe demos are available for 
tRp872
(dp873
g331
g1
(g335
g336
NtRp874
(dp875
g339
I00
sg106
Va
sg341
g342
sg367
g353
sg368
I00
sg331
g333
sg332
g329
sg384
I00
sg385
(dp876
g324
g325
sg25
g326
sg29
g329
ssg360
I00
sg395
I00
sg375
g872
sg374
g872
sg361
I00
sg362
(lp877
g329
asg358
(lp878
(g324
g325
tp879
asbsg332
g874
sg374
Nsg341
g342
sg375
g342
sbsg384
I00
sg385
(dp880
sg360
I00
sg395
I00
sg375
g601
sg374
g601
sg361
I00
sg362
(lp881
g872
ag874
ag333
ag337
ag502
asg358
(lp882
sbsg367
g353
sg368
I00
sg331
g502
sg332
g504
sg384
I00
sg385
(dp883
sg360
I00
sg395
I00
sg375
g333
sg374
g333
sg361
I00
sg362
(lp884
g504
asg358
(lp885
sbsg332
g337
sg374
g874
sg341
g342
sg375
g329
sbsg374
Nsg341
g874
sg375
g874
sbstRp886
asg90
g41
((I2014
I2
I15
I18
I43
I11
I5
I46
I0
t(dtRp887
sg29
VGame engine Godot becomes open-source and freely available for download
p888
sg93
Vrazvi
p889
sg95
g317
sg96
I00
sS'title_detail'
p890
g1
(g2
g3
(dp891
g9
Vhttp://iloveubuntu.net
p892
sg11
g12
sg13
g14
sg15
g888
stRp893
sg30
g321
sg101
(lp894
g1
(g2
g3
(dtRp895
asS'author_detail'
p896
g1
(g2
g3
(dp897
g106
g889
stRp898
sg108
Vhttp://iloveubuntu.net/3433 at http://iloveubuntu.net
p899
sg110
VSat, 15 Feb 2014 18:43:11 +0000
p900
stRp901
asS'namespaces'
p902
(dp903
S'dc'
p904
Vhttp://purl.org/dc/elements/1.1/
p905
sstRp906
.