ccopy_reg
_reconstructor
p1
(cfeedparser
FeedParserDict
p2
c__builtin__
dict
p3
(dp4
S'feed'
p5
g1
(g2
g3
(dp6
S'title_detail'
p7
g1
(g2
g3
(dp8
S'base'
p9
Vhttps://news.ycombinator.com/rss
p10
sS'type'
p11
Vtext/plain
p12
sS'language'
p13
NsS'value'
p14
VHacker News
p15
stRp16
sS'subtitle'
p17
VLinks for the intellectually curious, ranked by readers.
p18
sS'links'
p19
(lp20
g1
(g2
g3
(dp21
S'href'
p22
Vhttps://news.ycombinator.com/
p23
sg11
Vtext/html
p24
sS'rel'
p25
Valternate
p26
stRp27
asS'title'
p28
g15
sS'link'
p29
g23
sS'subtitle_detail'
p30
g1
(g2
g3
(dp31
g9
Vhttps://news.ycombinator.com/rss
p32
sg11
Vtext/html
p33
sg13
Nsg14
g18
stRp34
stRp35
sS'status'
p36
I200
sS'encoding'
p37
Vutf-8
p38
sS'bozo'
p39
I0
sS'headers'
p40
(dp41
S'transfer-encoding'
p42
S'chunked'
p43
sS'set-cookie'
p44
S'__cfduid=ddf083dac33a5d5498977d073ebff13c51405038243372; expires=Mon, 23-Dec-2019 23:50:00 GMT; path=/; domain=.ycombinator.com; HttpOnly'
p45
sS'strict-transport-security'
p46
S'max-age=31556900; includeSubDomains'
p47
sS'server'
p48
S'cloudflare-nginx'
p49
sS'connection'
p50
S'close'
p51
sS'cache-control'
p52
S'private, max-age=90'
p53
sS'date'
p54
S'Fri, 11 Jul 2014 00:24:04 GMT'
p55
sS'x-frame-options'
p56
S'DENY'
p57
sS'content-type'
p58
S'application/rss+xml; charset=utf-8'
p59
sS'cf-ray'
p60
S'1480db1d13bf01b2-FRA'
p61
ssS'version'
p62
Vrss20
p63
sg22
Vhttps://news.ycombinator.com/rss
p64
sS'namespaces'
p65
(dp66
sS'entries'
p67
(lp68
g1
(g2
g3
(dp69
S'summary_detail'
p70
g1
(g2
g3
(dp71
g9
Vhttps://news.ycombinator.com/rss
p72
sg11
g33
sg13
Nsg14
V<a href="https://news.ycombinator.com/item?id=8015445">Comments</a>
p73
stRp74
sg29
Vhttps://aws.amazon.com/zocalo/
p75
sg19
(lp76
g1
(g2
g3
(dp77
g22
g75
sg11
g24
sg25
g26
stRp78
asg28
VAmazon Zocalo
p79
sS'title_detail'
p80
g1
(g2
g3
(dp81
g9
Vhttps://news.ycombinator.com/rss
p82
sg11
g12
sg13
Nsg14
g79
stRp83
sS'comments'
p84
Vhttps://news.ycombinator.com/item?id=8015445
p85
sS'summary'
p86
g73
stRp87
ag1
(g2
g3
(dp88
S'summary_detail'
p89
g1
(g2
g3
(dp90
g9
Vhttps://news.ycombinator.com/rss
p91
sg11
g33
sg13
Nsg14
V<a href="https://news.ycombinator.com/item?id=8017490">Comments</a>
p92
stRp93
sg29
Vhttps://blog.silentcircle.com/why-are-we-competing-with-phone-makers-skype-and-telecom-carriers-all-in-the-same-week/
p94
sg19
(lp95
g1
(g2
g3
(dp96
g22
g94
sg11
g24
sg25
g26
stRp97
asg28
VSilent Circle Launches Global Encrypted Calling Plan
p98
sS'title_detail'
p99
g1
(g2
g3
(dp100
g9
Vhttps://news.ycombinator.com/rss
p101
sg11
g12
sg13
Nsg14
g98
stRp102
sS'comments'
p103
Vhttps://news.ycombinator.com/item?id=8017490
p104
sg86
g92
stRp105
ag1
(g2
g3
(dp106
S'summary_detail'
p107
g1
(g2
g3
(dp108
g9
Vhttps://news.ycombinator.com/rss
p109
sg11
g33
sg13
Nsg14
V<a href="https://news.ycombinator.com/item?id=8016201">Comments</a>
p110
stRp111
sg29
Vhttp://arstechnica.com/gadgets/2014/07/how-one-kickstarter-project-squandered-3-5-million/
p112
sg19
(lp113
g1
(g2
g3
(dp114
g22
g112
sg11
g24
sg25
g26
stRp115
asg28
VKickstarter project spent $3.5M to finish a prototype and ended in disaster
p116
sS'title_detail'
p117
g1
(g2
g3
(dp118
g9
Vhttps://news.ycombinator.com/rss
p119
sg11
g12
sg13
Nsg14
g116
stRp120
sS'comments'
p121
Vhttps://news.ycombinator.com/item?id=8016201
p122
sg86
g110
stRp123
ag1
(g2
g3
(dp124
S'summary_detail'
p125
g1
(g2
g3
(dp126
g9
Vhttps://news.ycombinator.com/rss
p127
sg11
g33
sg13
Nsg14
V<a href="https://news.ycombinator.com/item?id=8016287">Comments</a>
p128
stRp129
sg29
Vhttp://blog.nullspace.io/beginners-guide-to-ocaml-beginners-guides.html
p130
sg19
(lp131
g1
(g2
g3
(dp132
g22
g130
sg11
g24
sg25
g26
stRp133
asg28
VBeginner's guide to OCaml beginner's guides
p134
sS'title_detail'
p135
g1
(g2
g3
(dp136
g9
Vhttps://news.ycombinator.com/rss
p137
sg11
g12
sg13
Nsg14
g134
stRp138
sS'comments'
p139
Vhttps://news.ycombinator.com/item?id=8016287
p140
sg86
g128
stRp141
ag1
(g2
g3
(dp142
S'summary_detail'
p143
g1
(g2
g3
(dp144
g9
Vhttps://news.ycombinator.com/rss
p145
sg11
g33
sg13
Nsg14
V<a href="https://news.ycombinator.com/item?id=8016756">Comments</a>
p146
stRp147
sg29
Vhttp://www.eurekalert.org/pub_releases/2014-01/uosc-sho010314.php
p148
sg19
(lp149
g1
(g2
g3
(dp150
g22
g148
sg11
g24
sg25
g26
stRp151
asg28
VStudy: Half of black males, 40% of white males arrested by age 23
p152
sS'title_detail'
p153
g1
(g2
g3
(dp154
g9
Vhttps://news.ycombinator.com/rss
p155
sg11
g12
sg13
Nsg14
g152
stRp156
sS'comments'
p157
Vhttps://news.ycombinator.com/item?id=8016756
p158
sg86
g146
stRp159
ag1
(g2
g3
(dp160
S'summary_detail'
p161
g1
(g2
g3
(dp162
g9
Vhttps://news.ycombinator.com/rss
p163
sg11
g33
sg13
Nsg14
V<a href="https://news.ycombinator.com/item?id=8017588">Comments</a>
p164
stRp165
sg29
Vhttps://github.com/eobrain/funcgo
p166
sg19
(lp167
g1
(g2
g3
(dp168
g22
g166
sg11
g24
sg25
g26
stRp169
asg28
VFunctional Go Programming Language
p170
sS'title_detail'
p171
g1
(g2
g3
(dp172
g9
Vhttps://news.ycombinator.com/rss
p173
sg11
g12
sg13
Nsg14
g170
stRp174
sS'comments'
p175
Vhttps://news.ycombinator.com/item?id=8017588
p176
sg86
g164
stRp177
ag1
(g2
g3
(dp178
S'summary_detail'
p179
g1
(g2
g3
(dp180
g9
Vhttps://news.ycombinator.com/rss
p181
sg11
g33
sg13
Nsg14
V<a href="https://news.ycombinator.com/item?id=8016307">Comments</a>
p182
stRp183
sg29
Vhttp://breach.cc
p184
sg19
(lp185
g1
(g2
g3
(dp186
g22
g184
sg11
g24
sg25
g26
stRp187
asg28
VShow HN: Breach \u2013 A modular browser built on Chromium and Node.js
p188
sS'title_detail'
p189
g1
(g2
g3
(dp190
g9
Vhttps://news.ycombinator.com/rss
p191
sg11
g12
sg13
Nsg14
g188
stRp192
sS'comments'
p193
Vhttps://news.ycombinator.com/item?id=8016307
p194
sg86
g182
stRp195
ag1
(g2
g3
(dp196
S'summary_detail'
p197
g1
(g2
g3
(dp198
g9
Vhttps://news.ycombinator.com/rss
p199
sg11
g33
sg13
Nsg14
V<a href="https://news.ycombinator.com/item?id=8015354">Comments</a>
p200
stRp201
sg29
Vhttps://data.sparkfun.com/
p202
sg19
(lp203
g1
(g2
g3
(dp204
g22
g202
sg11
g24
sg25
g26
stRp205
asg28
VData.sparkfun.com: A place to push your data
p206
sS'title_detail'
p207
g1
(g2
g3
(dp208
g9
Vhttps://news.ycombinator.com/rss
p209
sg11
g12
sg13
Nsg14
g206
stRp210
sS'comments'
p211
Vhttps://news.ycombinator.com/item?id=8015354
p212
sg86
g200
stRp213
ag1
(g2
g3
(dp214
S'summary_detail'
p215
g1
(g2
g3
(dp216
g9
Vhttps://news.ycombinator.com/rss
p217
sg11
g33
sg13
Nsg14
V<a href="https://news.ycombinator.com/item?id=8015932">Comments</a>
p218
stRp219
sg29
Vhttps://en.wikipedia.org/wiki/Diffie%E2%80%93Hellman_key_exchange#Description
p220
sg19
(lp221
g1
(g2
g3
(dp222
g22
g220
sg11
g24
sg25
g26
stRp223
asg28
VDiffie-Hellman key exchange, explained using colors
p224
sS'title_detail'
p225
g1
(g2
g3
(dp226
g9
Vhttps://news.ycombinator.com/rss
p227
sg11
g12
sg13
Nsg14
g224
stRp228
sS'comments'
p229
Vhttps://news.ycombinator.com/item?id=8015932
p230
sg86
g218
stRp231
ag1
(g2
g3
(dp232
S'summary_detail'
p233
g1
(g2
g3
(dp234
g9
Vhttps://news.ycombinator.com/rss
p235
sg11
g33
sg13
Nsg14
V<a href="https://news.ycombinator.com/item?id=8017825">Comments</a>
p236
stRp237
sg29
Vhttp://sammaye.wordpress.com/2013/12/19/things-i-have-learnt-in-the-first-5-minutes-of-using-elastic-search/
p238
sg19
(lp239
g1
(g2
g3
(dp240
g22
g238
sg11
g24
sg25
g26
stRp241
asg28
VThings learned using Elastic Search (2013)
p242
sS'title_detail'
p243
g1
(g2
g3
(dp244
g9
Vhttps://news.ycombinator.com/rss
p245
sg11
g12
sg13
Nsg14
g242
stRp246
sS'comments'
p247
Vhttps://news.ycombinator.com/item?id=8017825
p248
sg86
g236
stRp249
ag1
(g2
g3
(dp250
S'summary_detail'
p251
g1
(g2
g3
(dp252
g9
Vhttps://news.ycombinator.com/rss
p253
sg11
g33
sg13
Nsg14
V<a href="https://news.ycombinator.com/item?id=8018043">Comments</a>
p254
stRp255
sg29
Vhttp://www.jobscore.com/jobs2/cruiseautomationinc
p256
sg19
(lp257
g1
(g2
g3
(dp258
g22
g256
sg11
g24
sg25
g26
stRp259
asg28
VCruise (YC W14) is hiring robotics engineers
p260
sS'title_detail'
p261
g1
(g2
g3
(dp262
g9
Vhttps://news.ycombinator.com/rss
p263
sg11
g12
sg13
Nsg14
g260
stRp264
sS'comments'
p265
Vhttps://news.ycombinator.com/item?id=8018043
p266
sg86
g254
stRp267
ag1
(g2
g3
(dp268
S'summary_detail'
p269
g1
(g2
g3
(dp270
g9
Vhttps://news.ycombinator.com/rss
p271
sg11
g33
sg13
Nsg14
V<a href="https://news.ycombinator.com/item?id=8015566">Comments</a>
p272
stRp273
sg29
Vhttp://blog.aereo.com/2014/07/path-forward/
p274
sg19
(lp275
g1
(g2
g3
(dp276
g22
g274
sg11
g24
sg25
g26
stRp277
asg28
VOur Path Forward
p278
sS'title_detail'
p279
g1
(g2
g3
(dp280
g9
Vhttps://news.ycombinator.com/rss
p281
sg11
g12
sg13
Nsg14
g278
stRp282
sS'comments'
p283
Vhttps://news.ycombinator.com/item?id=8015566
p284
sg86
g272
stRp285
ag1
(g2
g3
(dp286
S'summary_detail'
p287
g1
(g2
g3
(dp288
g9
Vhttps://news.ycombinator.com/rss
p289
sg11
g33
sg13
Nsg14
V<a href="https://news.ycombinator.com/item?id=8016374">Comments</a>
p290
stRp291
sg29
Vhttp://www.newyorker.com/online/blogs/elements/2014/07/the-rube-goldberg-of-rice.html
p292
sg19
(lp293
g1
(g2
g3
(dp294
g22
g292
sg11
g24
sg25
g26
stRp295
asg28
VThe Rube Goldberg of Rice
p296
sS'title_detail'
p297
g1
(g2
g3
(dp298
g9
Vhttps://news.ycombinator.com/rss
p299
sg11
g12
sg13
Nsg14
g296
stRp300
sS'comments'
p301
Vhttps://news.ycombinator.com/item?id=8016374
p302
sg86
g290
stRp303
ag1
(g2
g3
(dp304
S'summary_detail'
p305
g1
(g2
g3
(dp306
g9
Vhttps://news.ycombinator.com/rss
p307
sg11
g33
sg13
Nsg14
V<a href="https://news.ycombinator.com/item?id=8018130">Comments</a>
p308
stRp309
sg29
Vhttps://news.ycombinator.com/item?id=8018130
p310
sg19
(lp311
g1
(g2
g3
(dp312
g22
g310
sg11
g24
sg25
g26
stRp313
asg28
VHN. Let's share Twitter accounts
p314
sS'title_detail'
p315
g1
(g2
g3
(dp316
g9
Vhttps://news.ycombinator.com/rss
p317
sg11
g12
sg13
Nsg14
g314
stRp318
sS'comments'
p319
Vhttps://news.ycombinator.com/item?id=8018130
p320
sg86
g308
stRp321
ag1
(g2
g3
(dp322
S'summary_detail'
p323
g1
(g2
g3
(dp324
g9
Vhttps://news.ycombinator.com/rss
p325
sg11
g33
sg13
Nsg14
V<a href="https://news.ycombinator.com/item?id=8015994">Comments</a>
p326
stRp327
sg29
Vhttp://www.forbes.com/sites/kerryadolan/2013/03/05/prince-alwaleed-and-the-curious-case-of-kingdom-holding-stock/
p328
sg19
(lp329
g1
(g2
g3
(dp330
g22
g328
sg11
g24
sg25
g26
stRp331
asg28
VPrince Alwaleed And The Curious Case Of Kingdom Holding Stock (2013)
p332
sS'title_detail'
p333
g1
(g2
g3
(dp334
g9
Vhttps://news.ycombinator.com/rss
p335
sg11
g12
sg13
Nsg14
g332
stRp336
sS'comments'
p337
Vhttps://news.ycombinator.com/item?id=8015994
p338
sg86
g326
stRp339
ag1
(g2
g3
(dp340
S'summary_detail'
p341
g1
(g2
g3
(dp342
g9
Vhttps://news.ycombinator.com/rss
p343
sg11
g33
sg13
Nsg14
V<a href="https://news.ycombinator.com/item?id=8015917">Comments</a>
p344
stRp345
sg29
Vhttp://tomblomfield.com/post/81105143223/customer-churn-can-kill-your-startup
p346
sg19
(lp347
g1
(g2
g3
(dp348
g22
g346
sg11
g24
sg25
g26
stRp349
asg28
VCustomer churn can kill your startup
p350
sS'title_detail'
p351
g1
(g2
g3
(dp352
g9
Vhttps://news.ycombinator.com/rss
p353
sg11
g12
sg13
Nsg14
g350
stRp354
sS'comments'
p355
Vhttps://news.ycombinator.com/item?id=8015917
p356
sg86
g344
stRp357
ag1
(g2
g3
(dp358
S'summary_detail'
p359
g1
(g2
g3
(dp360
g9
Vhttps://news.ycombinator.com/rss
p361
sg11
g33
sg13
Nsg14
V<a href="https://news.ycombinator.com/item?id=8017386">Comments</a>
p362
stRp363
sg29
Vhttps://zapier.com/engineering/when-rest-gets-messy/
p364
sg19
(lp365
g1
(g2
g3
(dp366
g22
g364
sg11
g24
sg25
g26
stRp367
asg28
VWhen REST Gets Messy
p368
sS'title_detail'
p369
g1
(g2
g3
(dp370
g9
Vhttps://news.ycombinator.com/rss
p371
sg11
g12
sg13
Nsg14
g368
stRp372
sS'comments'
p373
Vhttps://news.ycombinator.com/item?id=8017386
p374
sg86
g362
stRp375
ag1
(g2
g3
(dp376
S'summary_detail'
p377
g1
(g2
g3
(dp378
g9
Vhttps://news.ycombinator.com/rss
p379
sg11
g33
sg13
Nsg14
V<a href="https://news.ycombinator.com/item?id=8017506">Comments</a>
p380
stRp381
sg29
Vhttps://github.com/blog/1862-introducing-a-simpler-faster-github-for-mac
p382
sg19
(lp383
g1
(g2
g3
(dp384
g22
g382
sg11
g24
sg25
g26
stRp385
asg28
VIntroducing a simpler, faster GitHub for Mac
p386
sS'title_detail'
p387
g1
(g2
g3
(dp388
g9
Vhttps://news.ycombinator.com/rss
p389
sg11
g12
sg13
Nsg14
g386
stRp390
sS'comments'
p391
Vhttps://news.ycombinator.com/item?id=8017506
p392
sg86
g380
stRp393
ag1
(g2
g3
(dp394
S'summary_detail'
p395
g1
(g2
g3
(dp396
g9
Vhttps://news.ycombinator.com/rss
p397
sg11
g33
sg13
Nsg14
V<a href="https://news.ycombinator.com/item?id=8015497">Comments</a>
p398
stRp399
sg29
Vhttp://mobile.nytimes.com/blogs/dealbook/2014/07/10/new-venture-capital-fund-gives-entrepreneurs-a-cut-of-the-profit/?smid=tw-dealbook&seid=auto
p400
sg19
(lp401
g1
(g2
g3
(dp402
g22
g400
sg11
g24
sg25
g26
stRp403
asg28
VNew Venture Capital Fund Gives Entrepreneurs a Cut of the Profit
p404
sS'title_detail'
p405
g1
(g2
g3
(dp406
g9
Vhttps://news.ycombinator.com/rss
p407
sg11
g12
sg13
Nsg14
g404
stRp408
sS'comments'
p409
Vhttps://news.ycombinator.com/item?id=8015497
p410
sg86
g398
stRp411
ag1
(g2
g3
(dp412
S'summary_detail'
p413
g1
(g2
g3
(dp414
g9
Vhttps://news.ycombinator.com/rss
p415
sg11
g33
sg13
Nsg14
V<a href="https://news.ycombinator.com/item?id=8014778">Comments</a>
p416
stRp417
sg29
Vhttp://googlecloudplatform.blogspot.com/2014/07/welcome-microsoft-redhat-ibm-docker-and-more-to-the-kubernetes-community.html
p418
sg19
(lp419
g1
(g2
g3
(dp420
g22
g418
sg11
g24
sg25
g26
stRp421
asg28
VMicrosoft, RedHat, IBM, Docker, Mesosphere, CoreOS and SaltStack join Kubernetes
p422
sS'title_detail'
p423
g1
(g2
g3
(dp424
g9
Vhttps://news.ycombinator.com/rss
p425
sg11
g12
sg13
Nsg14
g422
stRp426
sS'comments'
p427
Vhttps://news.ycombinator.com/item?id=8014778
p428
sg86
g416
stRp429
ag1
(g2
g3
(dp430
S'summary_detail'
p431
g1
(g2
g3
(dp432
g9
Vhttps://news.ycombinator.com/rss
p433
sg11
g33
sg13
Nsg14
V<a href="https://news.ycombinator.com/item?id=8015241">Comments</a>
p434
stRp435
sg29
Vhttp://m.trykeep.com
p436
sg19
(lp437
g1
(g2
g3
(dp438
g22
g436
sg11
g24
sg25
g26
stRp439
asg28
VShow HN: Keep, an app that helps you love how you spend every dollar
p440
sS'title_detail'
p441
g1
(g2
g3
(dp442
g9
Vhttps://news.ycombinator.com/rss
p443
sg11
g12
sg13
Nsg14
g440
stRp444
sS'comments'
p445
Vhttps://news.ycombinator.com/item?id=8015241
p446
sg86
g434
stRp447
ag1
(g2
g3
(dp448
S'summary_detail'
p449
g1
(g2
g3
(dp450
g9
Vhttps://news.ycombinator.com/rss
p451
sg11
g33
sg13
Nsg14
V<a href="https://news.ycombinator.com/item?id=8015410">Comments</a>
p452
stRp453
sg29
Vhttp://blog.cloudflare.com/introducing-cfssl
p454
sg19
(lp455
g1
(g2
g3
(dp456
g22
g454
sg11
g24
sg25
g26
stRp457
asg28
VIntroducing CFSSL \u2013 CloudFlare's PKI toolkit
p458
sS'title_detail'
p459
g1
(g2
g3
(dp460
g9
Vhttps://news.ycombinator.com/rss
p461
sg11
g12
sg13
Nsg14
g458
stRp462
sS'comments'
p463
Vhttps://news.ycombinator.com/item?id=8015410
p464
sg86
g452
stRp465
ag1
(g2
g3
(dp466
S'summary_detail'
p467
g1
(g2
g3
(dp468
g9
Vhttps://news.ycombinator.com/rss
p469
sg11
g33
sg13
Nsg14
V<a href="https://news.ycombinator.com/item?id=8016950">Comments</a>
p470
stRp471
sg29
Vhttp://learnlispthehardway.org/
p472
sg19
(lp473
g1
(g2
g3
(dp474
g22
g472
sg11
g24
sg25
g26
stRp475
asg28
VLearn Lisp the Hard Way
p476
sS'title_detail'
p477
g1
(g2
g3
(dp478
g9
Vhttps://news.ycombinator.com/rss
p479
sg11
g12
sg13
Nsg14
g476
stRp480
sS'comments'
p481
Vhttps://news.ycombinator.com/item?id=8016950
p482
sg86
g470
stRp483
ag1
(g2
g3
(dp484
S'summary_detail'
p485
g1
(g2
g3
(dp486
g9
Vhttps://news.ycombinator.com/rss
p487
sg11
g33
sg13
Nsg14
V<a href="https://news.ycombinator.com/item?id=8013369">Comments</a>
p488
stRp489
sg29
Vhttps://blog.pinboard.in/2014/07/pinboard_turns_five/
p490
sg19
(lp491
g1
(g2
g3
(dp492
g22
g490
sg11
g24
sg25
g26
stRp493
asg28
VPinboard Turns Five
p494
sS'title_detail'
p495
g1
(g2
g3
(dp496
g9
Vhttps://news.ycombinator.com/rss
p497
sg11
g12
sg13
Nsg14
g494
stRp498
sS'comments'
p499
Vhttps://news.ycombinator.com/item?id=8013369
p500
sg86
g488
stRp501
ag1
(g2
g3
(dp502
S'summary_detail'
p503
g1
(g2
g3
(dp504
g9
Vhttps://news.ycombinator.com/rss
p505
sg11
g33
sg13
Nsg14
V<a href="https://news.ycombinator.com/item?id=8015997">Comments</a>
p506
stRp507
sg29
Vhttps://github.com/bamos/beamer-snippets
p508
sg19
(lp509
g1
(g2
g3
(dp510
g22
g508
sg11
g24
sg25
g26
stRp511
asg28
VShow HN: Community-driven snippets for presentations in LaTeX, Beamer, and TikZ
p512
sS'title_detail'
p513
g1
(g2
g3
(dp514
g9
Vhttps://news.ycombinator.com/rss
p515
sg11
g12
sg13
Nsg14
g512
stRp516
sS'comments'
p517
Vhttps://news.ycombinator.com/item?id=8015997
p518
sg86
g506
stRp519
ag1
(g2
g3
(dp520
S'summary_detail'
p521
g1
(g2
g3
(dp522
g9
Vhttps://news.ycombinator.com/rss
p523
sg11
g33
sg13
Nsg14
V<a href="https://news.ycombinator.com/item?id=8015991">Comments</a>
p524
stRp525
sg29
Vhttp://online.wsj.com/articles/carter-cleveland-says-art-in-the-future-will-be-for-everyone-1404762157#YES
p526
sg19
(lp527
g1
(g2
g3
(dp528
g22
g526
sg11
g24
sg25
g26
stRp529
asg28
VCarter Cleveland Says Art in the Future Will Be for Everyone
p530
sS'title_detail'
p531
g1
(g2
g3
(dp532
g9
Vhttps://news.ycombinator.com/rss
p533
sg11
g12
sg13
Nsg14
g530
stRp534
sS'comments'
p535
Vhttps://news.ycombinator.com/item?id=8015991
p536
sg86
g524
stRp537
ag1
(g2
g3
(dp538
S'summary_detail'
p539
g1
(g2
g3
(dp540
g9
Vhttps://news.ycombinator.com/rss
p541
sg11
g33
sg13
Nsg14
V<a href="https://news.ycombinator.com/item?id=8018115">Comments</a>
p542
stRp543
sg29
Vhttp://www.evanmiller.org/how-not-to-run-an-ab-test.html
p544
sg19
(lp545
g1
(g2
g3
(dp546
g22
g544
sg11
g24
sg25
g26
stRp547
asg28
VHow Not To Run An A/B Test
p548
sS'title_detail'
p549
g1
(g2
g3
(dp550
g9
Vhttps://news.ycombinator.com/rss
p551
sg11
g12
sg13
Nsg14
g548
stRp552
sS'comments'
p553
Vhttps://news.ycombinator.com/item?id=8018115
p554
sg86
g542
stRp555
ag1
(g2
g3
(dp556
S'summary_detail'
p557
g1
(g2
g3
(dp558
g9
Vhttps://news.ycombinator.com/rss
p559
sg11
g33
sg13
Nsg14
V<a href="https://news.ycombinator.com/item?id=8017885">Comments</a>
p560
stRp561
sg29
Vhttp://aseigo.blogspot.com/2014/07/green-processes-multiple-process.html
p562
sg19
(lp563
g1
(g2
g3
(dp564
g22
g562
sg11
g24
sg25
g26
stRp565
asg28
VGreen processes: multiple process architectures for everyone
p566
sS'title_detail'
p567
g1
(g2
g3
(dp568
g9
Vhttps://news.ycombinator.com/rss
p569
sg11
g12
sg13
Nsg14
g566
stRp570
sS'comments'
p571
Vhttps://news.ycombinator.com/item?id=8017885
p572
sg86
g560
stRp573
ag1
(g2
g3
(dp574
S'summary_detail'
p575
g1
(g2
g3
(dp576
g9
Vhttps://news.ycombinator.com/rss
p577
sg11
g33
sg13
Nsg14
V<a href="https://news.ycombinator.com/item?id=8016813">Comments</a>
p578
stRp579
sg29
Vhttp://artsy.github.io/blog/2014/07/09/retain-scroll-position-in-infinite-scroll/
p580
sg19
(lp581
g1
(g2
g3
(dp582
g22
g580
sg11
g24
sg25
g26
stRp583
asg28
VRetain Scroll Position in Infinite Scroll
p584
sS'title_detail'
p585
g1
(g2
g3
(dp586
g9
Vhttps://news.ycombinator.com/rss
p587
sg11
g12
sg13
Nsg14
g584
stRp588
sS'comments'
p589
Vhttps://news.ycombinator.com/item?id=8016813
p590
sg86
g578
stRp591
ag1
(g2
g3
(dp592
S'summary_detail'
p593
g1
(g2
g3
(dp594
g9
Vhttps://news.ycombinator.com/rss
p595
sg11
g33
sg13
Nsg14
V<a href="https://news.ycombinator.com/item?id=8010247">Comments</a>
p596
stRp597
sg29
Vhttp://mnx.io/blog/a-proper-server-naming-scheme/
p598
sg19
(lp599
g1
(g2
g3
(dp600
g22
g598
sg11
g24
sg25
g26
stRp601
asg28
VA Server Naming Scheme
p602
sS'title_detail'
p603
g1
(g2
g3
(dp604
g9
Vhttps://news.ycombinator.com/rss
p605
sg11
g12
sg13
Nsg14
g602
stRp606
sS'comments'
p607
Vhttps://news.ycombinator.com/item?id=8010247
p608
sg86
g596
stRp609
astRp610
.