ccopy_reg
_reconstructor
p1
(cfeedparser
FeedParserDict
p2
c__builtin__
dict
p3
(dp4
S'feed'
p5
g1
(g2
g3
(dp6
S'title_detail'
p7
g1
(g2
g3
(dp8
S'base'
p9
Vhttp://www.reddit.com/r/hearthstone.rss
p10
sS'type'
p11
Vtext/plain
p12
sS'language'
p13
NsS'value'
p14
VHearthstone: Heroes of Warcraft
p15
stRp16
sS'subtitle'
p17
VA subreddit dedicated to Blizzard's newest title - HearthStone: Heroes of Warcraft.
p18
sS'links'
p19
(lp20
g1
(g2
g3
(dp21
S'href'
p22
Vhttp://www.reddit.com/r/hearthstone/
p23
sg11
Vtext/html
p24
sS'rel'
p25
Valternate
p26
stRp27
ag1
(g2
g3
(dp28
S'href'
p29
Vhttp://www.reddit.com/r/hearthstone.rss
p30
sS'type'
p31
Vapplication/rss+xml
p32
sS'rel'
p33
Vself
p34
stRp35
asS'title'
p36
g15
sS'link'
p37
g23
sS'image'
p38
g1
(g2
g3
(dp39
S'title_detail'
p40
g1
(g2
g3
(dp41
g9
Vhttp://www.reddit.com/r/hearthstone.rss
p42
sg11
g12
sg13
Nsg14
VHearthstone: Heroes of Warcraft
p43
stRp44
sg22
Vhttp://e.thumbs.redditmedia.com/5PaTxrxtp-_8j_Bp.png
p45
sg37
Vhttp://www.reddit.com/r/hearthstone/
p46
sg19
(lp47
g1
(g2
g3
(dp48
g22
g46
sg11
g24
sg25
g26
stRp49
asg36
g43
stRp50
sS'subtitle_detail'
p51
g1
(g2
g3
(dp52
g9
Vhttp://www.reddit.com/r/hearthstone.rss
p53
sg11
Vtext/html
p54
sg13
Nsg14
g18
stRp55
stRp56
sS'status'
p57
I200
sS'encoding'
p58
VUTF-8
p59
sS'bozo'
p60
I0
sS'headers'
p61
(dp62
S'content-length'
p63
S'9695'
p64
sS'x-xss-protection'
p65
S'1; mode=block'
p66
sS'x-content-type-options'
p67
S'nosniff'
p68
sS'content-encoding'
p69
S'gzip'
p70
sS'vary'
p71
S'accept-encoding'
p72
sS'server'
p73
S"'; DROP TABLE servertypes; --"
p74
sS'connection'
p75
S'close'
p76
sS'date'
p77
S'Fri, 11 Jul 2014 10:17:22 GMT'
p78
sS'x-frame-options'
p79
S'SAMEORIGIN'
p80
sS'content-type'
p81
S'text/xml; charset=UTF-8'
p82
ssS'version'
p83
Vrss20
p84
sg22
Vhttp://www.reddit.com/r/hearthstone.rss
p85
sS'namespaces'
p86
(dp87
S''
Vhttp://www.w3.org/2005/Atom
p88
sS'media'
p89
Vhttp://search.yahoo.com/mrss/
p90
sS'dc'
p91
Vhttp://purl.org/dc/elements/1.1/
p92
ssS'entries'
p93
(lp94
g1
(g2
g3
(dp95
S'summary_detail'
p96
g1
(g2
g3
(dp97
g9
Vhttp://www.reddit.com/r/hearthstone.rss
p98
sg11
g54
sg13
Nsg14
V<!-- SC_OFF --><div class="md"><p>If you're not watching Rey's stream right now, you're missing out, this is fucking gold</p> </div><!-- SC_ON --> submitted by <a href="http://www.reddit.com/user/oddmuffin"> oddmuffin </a> <br /> <a href="http://www.reddit.com/r/hearthstone/comments/2ae2fn/reynad_has_become_legendary/">[link]</a> <a href="http://www.reddit.com/r/hearthstone/comments/2ae2fn/reynad_has_become_legendary/">[500 comments]</a>
p99
stRp100
sg19
(lp101
g1
(g2
g3
(dp102
g22
Vhttp://www.reddit.com/r/hearthstone/comments/2ae2fn/reynad_has_become_legendary/
p103
sg11
g24
sg25
g26
stRp104
asS'published_parsed'
p105
ctime
struct_time
p106
((I2014
I7
I11
I2
I20
I8
I4
I192
I0
t(dtRp107
sg36
VReynad has become legendary
p108
sS'summary'
p109
g99
sS'guidislink'
p110
I00
sS'title_detail'
p111
g1
(g2
g3
(dp112
g9
Vhttp://www.reddit.com/r/hearthstone.rss
p113
sg11
g12
sg13
Nsg14
g108
stRp114
sg37
g103
sS'published'
p115
VFri, 11 Jul 2014 02:20:08 +0000
p116
sS'id'
p117
Vhttp://www.reddit.com/r/hearthstone/comments/2ae2fn/reynad_has_become_legendary/
p118
stRp119
ag1
(g2
g3
(dp120
S'summary_detail'
p121
g1
(g2
g3
(dp122
g9
Vhttp://www.reddit.com/r/hearthstone.rss
p123
sg11
g54
sg13
Nsg14
V<!-- SC_OFF --><div class="md"><p><a href="http://i.imgur.com/5NzJ443.jpg">http://i.imgur.com/5NzJ443.jpg</a></p> </div><!-- SC_ON --> submitted by <a href="http://www.reddit.com/user/jusezz"> jusezz </a> <br /> <a href="http://www.reddit.com/r/hearthstone/comments/2adclf/interesting_lich_king_card_back_concept/">[link]</a> <a href="http://www.reddit.com/r/hearthstone/comments/2adclf/interesting_lich_king_card_back_concept/">[98 comments]</a>
p124
stRp125
sg19
(lp126
g1
(g2
g3
(dp127
g22
Vhttp://www.reddit.com/r/hearthstone/comments/2adclf/interesting_lich_king_card_back_concept/
p128
sg11
g24
sg25
g26
stRp129
asg105
g106
((I2014
I7
I10
I21
I53
I3
I3
I191
I0
t(dtRp130
sg36
VInteresting "Lich King" card back concept.
p131
sg109
g124
sg110
I00
sS'title_detail'
p132
g1
(g2
g3
(dp133
g9
Vhttp://www.reddit.com/r/hearthstone.rss
p134
sg11
g12
sg13
Nsg14
g131
stRp135
sg37
g128
sg115
VThu, 10 Jul 2014 21:53:03 +0000
p136
sg117
Vhttp://www.reddit.com/r/hearthstone/comments/2adclf/interesting_lich_king_card_back_concept/
p137
stRp138
ag1
(g2
g3
(dp139
S'summary_detail'
p140
g1
(g2
g3
(dp141
g9
Vhttp://www.reddit.com/r/hearthstone.rss
p142
sg11
g54
sg13
Nsg14
V<table> <tr><td> <a href="http://www.reddit.com/r/hearthstone/comments/2ackdh/amaz_this_is_why_12_in_hearthstone/"><img alt="Amaz: This is why 1=2 in Hearthstone" src="http://b.thumbs.redditmedia.com/w1yu-3h0wWYCSpWU.jpg" title="Amaz: This is why 1=2 in Hearthstone" /></a> </td><td> submitted by <a href="http://www.reddit.com/user/acurioustale"> acurioustale </a> <br /> <a href="https://www.youtube.com/watch?v=XCr76XA-sRc">[link]</a> <a href="http://www.reddit.com/r/hearthstone/comments/2ackdh/amaz_this_is_why_12_in_hearthstone/">[188 comments]</a> </td></tr></table>
p143
stRp144
sg19
(lp145
g1
(g2
g3
(dp146
g22
Vhttp://www.reddit.com/r/hearthstone/comments/2ackdh/amaz_this_is_why_12_in_hearthstone/
p147
sg11
g24
sg25
g26
stRp148
asg105
g106
((I2014
I7
I10
I17
I31
I42
I3
I191
I0
t(dtRp149
sg36
VAmaz: This is why 1=2 in Hearthstone
p150
sS'media_thumbnail'
p151
(lp152
(dp153
S'url'
p154
Vhttp://b.thumbs.redditmedia.com/w1yu-3h0wWYCSpWU.jpg
p155
sasg109
g143
sg110
I00
sS'title_detail'
p156
g1
(g2
g3
(dp157
g9
Vhttp://www.reddit.com/r/hearthstone.rss
p158
sg11
g12
sg13
Nsg14
g150
stRp159
sg22
V
sg37
g147
sg115
VThu, 10 Jul 2014 17:31:42 +0000
p160
sg117
Vhttp://www.reddit.com/r/hearthstone/comments/2ackdh/amaz_this_is_why_12_in_hearthstone/
p161
stRp162
ag1
(g2
g3
(dp163
S'summary_detail'
p164
g1
(g2
g3
(dp165
g9
Vhttp://www.reddit.com/r/hearthstone.rss
p166
sg11
g54
sg13
Nsg14
V<table> <tr><td> <a href="http://www.reddit.com/r/hearthstone/comments/2adsqm/youporn_hearthstone_sponsorship/"><img alt="YouPorn - HearthStone sponsorship" src="http://b.thumbs.redditmedia.com/N-h4NDecR0e14pLI.jpg" title="YouPorn - HearthStone sponsorship" /></a> </td><td> submitted by <a href="http://www.reddit.com/user/xDNLX"> xDNLX </a> <br /> <a href="https://twitter.com/YouPorn/status/487359454506397697">[link]</a> <a href="http://www.reddit.com/r/hearthstone/comments/2adsqm/youporn_hearthstone_sponsorship/">[119 comments]</a> </td></tr></table>
p167
stRp168
sg19
(lp169
g1
(g2
g3
(dp170
g22
Vhttp://www.reddit.com/r/hearthstone/comments/2adsqm/youporn_hearthstone_sponsorship/
p171
sg11
g24
sg25
g26
stRp172
asg105
g106
((I2014
I7
I11
I0
I36
I6
I4
I192
I0
t(dtRp173
sg36
VYouPorn - HearthStone sponsorship
p174
sg151
(lp175
(dp176
S'url'
p177
Vhttp://b.thumbs.redditmedia.com/N-h4NDecR0e14pLI.jpg
p178
sasg109
g167
sg110
I00
sS'title_detail'
p179
g1
(g2
g3
(dp180
g9
Vhttp://www.reddit.com/r/hearthstone.rss
p181
sg11
g12
sg13
Nsg14
g174
stRp182
sg22
V
sg37
g171
sg115
VFri, 11 Jul 2014 00:36:06 +0000
p183
sg117
Vhttp://www.reddit.com/r/hearthstone/comments/2adsqm/youporn_hearthstone_sponsorship/
p184
stRp185
ag1
(g2
g3
(dp186
S'summary_detail'
p187
g1
(g2
g3
(dp188
g9
Vhttp://www.reddit.com/r/hearthstone.rss
p189
sg11
g54
sg13
Nsg14
V<!-- SC_OFF --><div class="md"><p>So my Gurubashi Berserker was a 10-2 and I had 2 stormwind beside him. The warrior used a faceless manipulator that made an 8-0 that instantly died. Needless to say he conceded. </p> </div><!-- SC_ON --> submitted by <a href="http://www.reddit.com/user/mayonnaise350"> mayonnaise350 </a> <br /> <a href="http://www.reddit.com/r/hearthstone/comments/2ad3i8/having_2_stormwind_champions_caused_this_messed/">[link]</a> <a href="http://www.reddit.com/r/hearthstone/comments/2ad3i8/having_2_stormwind_champions_caused_this_messed/">[193 comments]</a>
p190
stRp191
sg19
(lp192
g1
(g2
g3
(dp193
g22
Vhttp://www.reddit.com/r/hearthstone/comments/2ad3i8/having_2_stormwind_champions_caused_this_messed/
p194
sg11
g24
sg25
g26
stRp195
asg105
g106
((I2014
I7
I10
I20
I26
I58
I3
I191
I0
t(dtRp196
sg36
VHaving 2 Stormwind Champions caused this messed up situation.
p197
sg109
g190
sg110
I00
sS'title_detail'
p198
g1
(g2
g3
(dp199
g9
Vhttp://www.reddit.com/r/hearthstone.rss
p200
sg11
g12
sg13
Nsg14
g197
stRp201
sg37
g194
sg115
VThu, 10 Jul 2014 13:26:58 -0700
p202
sg117
Vhttp://www.reddit.com/r/hearthstone/comments/2ad3i8/having_2_stormwind_champions_caused_this_messed/
p203
stRp204
ag1
(g2
g3
(dp205
S'summary_detail'
p206
g1
(g2
g3
(dp207
g9
Vhttp://www.reddit.com/r/hearthstone.rss
p208
sg11
g54
sg13
Nsg14
V<!-- SC_OFF --><div class="md"><p>I transferred all currently logged arena runs from reddit.com<a href="http://www.reddit.com/r/12winArenaLog">/r/12winArenaLog</a> to excel and analyzed them. I put my focus on non-legendary neutral cards and counted the number of appearance for each card. This is the resulting tier list</p> <p>Commons: </p> <ol> <li>Chillwind Yeti (110)</li> <li>Harvest Golem (103)</li> <li>Boulderfist Ogre (97)</li> <li>Shattered Sun Cleric (88)</li> <li>Scarlet Crusader (83)</li> <li>Dark Iron Dwarf (83)</li> <li>Earthen Ring Farseer (81)</li> <li>Fearie Dragon (79)</li> <li>Acidic Swamp Ooze (77)</li> <li>Amani Berserker (75)</li> <li>Gnomish Inventor (75)</li> </ol> <p>Rares: </p> <ol> <li>Azure Drake (77)</li> <li>Argent Commander (73)</li> <li>Knife Juggler (73)</li> <li>Defender of Argus (61)</li> <li>Sunwalker (61)</li> <li>Stampeding Kodo (52)</li> <li>Imp Master (36)</li> <li>Violet Teacher (32)</li> <li>Injured Blade Master (31)</li> <li>Mind Control Tech (30)</li> </ol> <p>Epics </p> <ol> <li>Sea Giant (34)</li> <li>Big Game Hunter (25)</li> <li>Blood Knight (25)</li> <li>Facless Manipulator (22)</li> <li>Molten Giant (10)</li> </ol> <p>It is worth noting that Trump predicted this extremely well with his tier list, that can be found here <a href="http://www.liquidhearth.com/forum/arena-strategy/457523-trumps-arena-tier-list-neutral-commons">http://www.liquidhearth.com/forum/arena-strategy/457523-trumps-arena-tier-list-neutral-commons</a>. </p> <p>However there are some noteworthy deviations, such as the Fearie Dragon (underestimated) or the Amani Berserker (understimated) as well as Venture Co. (overestimated). </p> <p>You can find my tier list shared here <a href="https://docs.google.com/spreadsheets/d/1yg9ORWtYFYvtn98P3GeRQC9bG-2ZyKfaWBtPbmK5lFs/pubhtml">https://docs.google.com/spreadsheets/d/1yg9ORWtYFYvtn98P3GeRQC9bG-2ZyKfaWBtPbmK5lFs/pubhtml</a></p> </div><!-- SC_ON --> submitted by <a href="http://www.reddit.com/user/Radinic"> Radinic </a> <br /> <a href="http://www.reddit.com/r/hearthstone/comments/2adkim/i_analyzed_over_200_12winarenas_this_is_my_tier/">[link]</a> <a href="http://www.reddit.com/r/hearthstone/comments/2adkim/i_analyzed_over_200_12winarenas_this_is_my_tier/">[75 comments]</a>
p209
stRp210
sg19
(lp211
g1
(g2
g3
(dp212
g22
Vhttp://www.reddit.com/r/hearthstone/comments/2adkim/i_analyzed_over_200_12winarenas_this_is_my_tier/
p213
sg11
g24
sg25
g26
stRp214
asg105
g106
((I2014
I7
I10
I23
I12
I24
I3
I191
I0
t(dtRp215
sg36
VI analyzed over 200 12-win-arenas. This is my tier list.
p216
sg109
g209
sg110
I00
sS'title_detail'
p217
g1
(g2
g3
(dp218
g9
Vhttp://www.reddit.com/r/hearthstone.rss
p219
sg11
g12
sg13
Nsg14
g216
stRp220
sg37
g213
sg115
VThu, 10 Jul 2014 23:12:24 +0000
p221
sg117
Vhttp://www.reddit.com/r/hearthstone/comments/2adkim/i_analyzed_over_200_12winarenas_this_is_my_tier/
p222
stRp223
ag1
(g2
g3
(dp224
S'summary_detail'
p225
g1
(g2
g3
(dp226
g9
Vhttp://www.reddit.com/r/hearthstone.rss
p227
sg11
g54
sg13
Nsg14
V<table> <tr><td> <a href="http://www.reddit.com/r/hearthstone/comments/2aeqqs/the_naxxramas_board_will_only_be_playable_while/"><img alt="The Naxxramas board will only be playable while playing the actual Curse of Naxxramas adventure." src="http://b.thumbs.redditmedia.com/UtqhQG3A3U4bRwP_.jpg" title="The Naxxramas board will only be playable while playing the actual Curse of Naxxramas adventure." /></a> </td><td> submitted by <a href="http://www.reddit.com/user/calmon70"> calmon70 </a> <br /> <a href="http://us.battle.net/hearthstone/en/forum/topic/13271477080?page=42#830">[link]</a> <a href="http://www.reddit.com/r/hearthstone/comments/2aeqqs/the_naxxramas_board_will_only_be_playable_while/">[16 comments]</a> </td></tr></table>
p228
stRp229
sg19
(lp230
g1
(g2
g3
(dp231
g22
Vhttp://www.reddit.com/r/hearthstone/comments/2aeqqs/the_naxxramas_board_will_only_be_playable_while/
p232
sg11
g24
sg25
g26
stRp233
asg105
g106
((I2014
I7
I11
I7
I43
I47
I4
I192
I0
t(dtRp234
sg36
VThe Naxxramas board will only be playable while playing the actual Curse of Naxxramas adventure.
p235
sg151
(lp236
(dp237
S'url'
p238
Vhttp://b.thumbs.redditmedia.com/UtqhQG3A3U4bRwP_.jpg
p239
sasg109
g228
sg110
I00
sS'title_detail'
p240
g1
(g2
g3
(dp241
g9
Vhttp://www.reddit.com/r/hearthstone.rss
p242
sg11
g12
sg13
Nsg14
g235
stRp243
sg22
V
sg37
g232
sg115
VFri, 11 Jul 2014 07:43:47 +0000
p244
sg117
Vhttp://www.reddit.com/r/hearthstone/comments/2aeqqs/the_naxxramas_board_will_only_be_playable_while/
p245
stRp246
ag1
(g2
g3
(dp247
S'summary_detail'
p248
g1
(g2
g3
(dp249
g9
Vhttp://www.reddit.com/r/hearthstone.rss
p250
sg11
g54
sg13
Nsg14
V<!-- SC_OFF --><div class="md"><p>Play cho on turn two and then shadow form on turn 3, if the ai is dumb, they will use it and lose their OP hero powers. I hope this doesn't happen but if it does it would be really funny.</p> <p><strong>Edit:</strong> Guys, i Have a suggestion, someone try this out with the expert ai in practice mode, i'd do it but i dont have cho or shadowform.</p> </div><!-- SC_ON --> submitted by <a href="http://www.reddit.com/user/ultimatemanan97"> ultimatemanan97 </a> <br /> <a href="http://www.reddit.com/r/hearthstone/comments/2ad5vf/how_to_nullify_hero_powers_of_naxxramas_bosses/">[link]</a> <a href="http://www.reddit.com/r/hearthstone/comments/2ad5vf/how_to_nullify_hero_powers_of_naxxramas_bosses/">[120 comments]</a>
p251
stRp252
sg19
(lp253
g1
(g2
g3
(dp254
g22
Vhttp://www.reddit.com/r/hearthstone/comments/2ad5vf/how_to_nullify_hero_powers_of_naxxramas_bosses/
p255
sg11
g24
sg25
g26
stRp256
asg105
g106
((I2014
I7
I10
I20
I48
I18
I3
I191
I0
t(dtRp257
sg36
VHow to nullify hero powers of naxxramas bosses.
p258
sg109
g251
sg110
I00
sS'title_detail'
p259
g1
(g2
g3
(dp260
g9
Vhttp://www.reddit.com/r/hearthstone.rss
p261
sg11
g12
sg13
Nsg14
g258
stRp262
sg37
g255
sg115
VThu, 10 Jul 2014 20:48:18 +0000
p263
sg117
Vhttp://www.reddit.com/r/hearthstone/comments/2ad5vf/how_to_nullify_hero_powers_of_naxxramas_bosses/
p264
stRp265
ag1
(g2
g3
(dp266
S'summary_detail'
p267
g1
(g2
g3
(dp268
g9
Vhttp://www.reddit.com/r/hearthstone.rss
p269
sg11
g54
sg13
Nsg14
V<table> <tr><td> <a href="http://www.reddit.com/r/hearthstone/comments/2aczmy/just_a_confirmation_from_ben_brode_that_priests/"><img alt="Just a confirmation from Ben Brode that Priests can steal boss cards" src="http://a.thumbs.redditmedia.com/4AgUTm8BYIvMOS1D.jpg" title="Just a confirmation from Ben Brode that Priests can steal boss cards" /></a> </td><td> submitted by <a href="http://www.reddit.com/user/Kijon"> Kijon </a> <br /> <a href="https://twitter.com/bdbrode/status/487299942264758273">[link]</a> <a href="http://www.reddit.com/r/hearthstone/comments/2aczmy/just_a_confirmation_from_ben_brode_that_priests/">[51 comments]</a> </td></tr></table>
p270
stRp271
sg19
(lp272
g1
(g2
g3
(dp273
g22
Vhttp://www.reddit.com/r/hearthstone/comments/2aczmy/just_a_confirmation_from_ben_brode_that_priests/
p274
sg11
g24
sg25
g26
stRp275
asg105
g106
((I2014
I7
I10
I19
I51
I25
I3
I191
I0
t(dtRp276
sg36
VJust a confirmation from Ben Brode that Priests can steal boss cards
p277
sg151
(lp278
(dp279
S'url'
p280
Vhttp://a.thumbs.redditmedia.com/4AgUTm8BYIvMOS1D.jpg
p281
sasg109
g270
sg110
I00
sS'title_detail'
p282
g1
(g2
g3
(dp283
g9
Vhttp://www.reddit.com/r/hearthstone.rss
p284
sg11
g12
sg13
Nsg14
g277
stRp285
sg22
V
sg37
g274
sg115
VThu, 10 Jul 2014 19:51:25 +0000
p286
sg117
Vhttp://www.reddit.com/r/hearthstone/comments/2aczmy/just_a_confirmation_from_ben_brode_that_priests/
p287
stRp288
ag1
(g2
g3
(dp289
S'summary_detail'
p290
g1
(g2
g3
(dp291
g9
Vhttp://www.reddit.com/r/hearthstone.rss
p292
sg11
g54
sg13
Nsg14
V<table> <tr><td> <a href="http://www.reddit.com/r/hearthstone/comments/2aeu9i/future_expansions_will_be_faster_thanks_to_the/"><img alt="Future expansions will be faster thanks to the groundwork Blizzard laid for Naxx" src="http://b.thumbs.redditmedia.com/UtqhQG3A3U4bRwP_.jpg" title="Future expansions will be faster thanks to the groundwork Blizzard laid for Naxx" /></a> </td><td> submitted by <a href="http://www.reddit.com/user/qflame429"> qflame429 </a> <br /> <a href="http://us.battle.net/hearthstone/en/forum/topic/13271477080?page=19#365">[link]</a> <a href="http://www.reddit.com/r/hearthstone/comments/2aeu9i/future_expansions_will_be_faster_thanks_to_the/">[17 comments]</a> </td></tr></table>
p293
stRp294
sg19
(lp295
g1
(g2
g3
(dp296
g22
Vhttp://www.reddit.com/r/hearthstone/comments/2aeu9i/future_expansions_will_be_faster_thanks_to_the/
p297
sg11
g24
sg25
g26
stRp298
asg105
g106
((I2014
I7
I11
I8
I58
I15
I4
I192
I0
t(dtRp299
sg36
VFuture expansions will be faster thanks to the groundwork Blizzard laid for Naxx
p300
sg151
(lp301
(dp302
S'url'
p303
Vhttp://b.thumbs.redditmedia.com/UtqhQG3A3U4bRwP_.jpg
p304
sasg109
g293
sg110
I00
sS'title_detail'
p305
g1
(g2
g3
(dp306
g9
Vhttp://www.reddit.com/r/hearthstone.rss
p307
sg11
g12
sg13
Nsg14
g300
stRp308
sg22
V
sg37
g297
sg115
VFri, 11 Jul 2014 08:58:15 +0000
p309
sg117
Vhttp://www.reddit.com/r/hearthstone/comments/2aeu9i/future_expansions_will_be_faster_thanks_to_the/
p310
stRp311
ag1
(g2
g3
(dp312
S'summary_detail'
p313
g1
(g2
g3
(dp314
g9
Vhttp://www.reddit.com/r/hearthstone.rss
p315
sg11
g54
sg13
Nsg14
V<!-- SC_OFF --><div class="md"><p>Hello everybody! I'm FreeGold and I stream at twitch.tv/freegold3. It's been a while since I posted a deck guide, mostly due to the fact that I havn't hit legendary using any deck other than Burstdown Miracle Rogue these past two seasons. This season, however, I have hit legendary using Wispect, a Miracle Rogue deck that uses cards like Leeroy, Van Cleef, Questing Adventurer and of course Wisp, to win.</p> <p>This deck was used from rank 16 to legendary, and it encountered very little actual resistance. Some match-ups are harder than others, but all in all this is a strong deck.</p> <p>This deck is slightly harder to play than a standard miracle deck, but is slightly easier to play than my mill or burstdown decks.</p> <p>Now; for the guide.</p> <p><strong>Decklist:</strong></p> <p><a href="http://www.hearthpwn.com/decks/68589-wispect-the-miracle">http://www.hearthpwn.com/decks/68589-wispect-the-miracle</a></p> <p><strong>Cards and Analysis:</strong></p> <ul> <li><p>Backstab x2 - bread and butter removal card. </p></li> <li><p>Preparation x2 - Combo starter, Van Cleef/Questing builder, Gadetzan cycler. </p></li> <li><p>Shadowstep x2 -Deck cycle with novice/oracle. Finisher with Leeroy. Questing/Van Cleef building card</p></li> <li><p>Cold Blood x1 - Finisher card. Can be put on minions to kill stronger minions.</p></li> <li><p>Conceal x2 - Conceal Gadetzan for cycling the following turn, or to allow for big Van Cleefs/Questings/cold blooded minion to survive through silence/removal to deal damage the following turn.</p></li> <li><p>Deadly Poison x2 - Use as removal. Cycles nicely with Gadetzan.</p></li> <li><p>Blade Flurry x1 - A godsend removal card versus Shaman/Zoo. Combo with Deadly Poison and clear your worries away.</p></li> <li><p>Eviscerate x2 - another standard auto-include removal card.</p></li> <li><p>Sap x2 - Great versus control decks. Sap taunts away when moving for the kill or sap big minions you'd rather not deal with.</p></li> <li><p>Edwin Van Cleef x1 - One of your win conditions. However, usually he should be played as a 4/4 or a 6/6 (to avoid big game hunter) If playing against Zoo, make him as big as possible.</p></li> <li><p>SI 7 x2 - Minion, toast, and removal card all in one. Gives you field and tempo advantage when played right (i.e on minions, not the face)</p></li> <li><p>Wisp x2 - A deity. Play this card and watch as your enemies shiver in fear. Use this card to start Combo chains, buff Van Cleef or Questing Adventurer act as Kill Shot fodder, or just outright kill the enemy with its value. A must have card in this deck.</p></li> <li><p>Novice Engineer x2 - It's almost a wisp. Rather, once you shadow step it becomes a wisp. Oh, it also cycles. But we don't care about that. We just want wisps.</p></li> <li><p>Coldlight Oracle x2 - Combo decks need cards. Shadowstep this card for cycling and filling up your hand with combo pieces. Use this + Sap for sapsassinates (using sap on a minion when opponent has 10 cards in hand kills said minion)</p></li> <li><p>Questing Adventurer x2 - A minion that wrecks havoc with the help of your wisps, novice engineers (wisps), and low cost spells. </p></li> <li><p>Leeroy Jenkins x1 - Pretty standard card. Use it as a finisher with cold blood/shadowsteps/eviscirates</p></li> <li><p>Gadetzan Auctioneer x2 - Another cycling card. Usually played with conceal, but sometimes can be played to overrun the enemy with minions they can't deal with.</p></li> </ul> <p><strong>How to mulligan:</strong></p> <p>Knowing correct mulligan procedure with this deck is the first way of playing this deck right.</p> <ul> <li><p>Versus Druid: If you have Oracle/Gadetzan in your starting hand, mulligan for removal. Else, mulligan your entire hand (including saps) in search of card draw. There is nothing worse than playing against a druid and not having any card draw. With card draw you can cycle into removal, but you can't removal into card draw.</p></li> <li><p>Versus Control Warrior: Same as above. Search for card draw, if you have it in your starting hand, search for removal. Else, hard mulligan.</p></li> <li><p>Warlock: (Handlock) Search for Sap + Oracle for sapsassinate. Sometimes you can get away with playing a questing adventurer turn 3 on an open field, so keep it if you get it in your hand. </p></li> <li><p>Warlock: (Zoo) Look for Van Cleef, Questing Adventurer, SI7, Backstab, Deadly Poison (in order of priority) If you get a Van Cleef or Questing in your starting hand, look for combo pieces such as wisps, backstabs, deadly poisons, novice engineers, and shadowsteps.</p></li> <li><p>Hunter (Aggro): Same as zoo.</p></li> <li><p>Hunter (Control): Same as druid/warrior.</p></li> <li><p>Rogue (Aggro/backspace oracle aggro): Same as Zoo.</p></li> <li><p>Rogue (Miracle Rogue): Search for Leeroy/Gadetzan. Keep Van Cleef/Questing in starting hand if you get combo pieces for them.</p></li> <li><p>Priest: Same as Druid. </p></li> <li><p>Paladin (Shockadin/aggro): Same as Zoo</p></li> <li><p>Paladin (healadin): Same as Druid. </p></li> <li><p>Mage (Frost/Stall mage): Mulligan for cold light oracles/Shadowsteps. You have to mill key cards to win. Building a big Van Cleef/questing adventurer also works as it makes him have to exhaust key spells such as frost bolts on stalling.</p></li> <li><p>Mage (Aggro): Same as Zoo. Build big minions.</p></li> <li><p>Shaman: Search for removal (evis, backstab, si7). Big minions usually get earth shocked, so you usually need a conceal or two to win. Keep Gadetzan/Oracle, Novice, in your starting hand. A good balance of removal + card draw is key.</p></li> </ul> <p><strong>How to play:</strong> Once you get a proper hang of mulligan, playing this deck is relatively straightfoward. Draw for combo pieces and play them once you get them all the while keeping your life total up.</p> <p><strong>Against Aggro:</strong></p> <ul> <li>Keeping life total up takes first priority. Use removal on their minions, use your minions to clear theirs and generally try to keep the field as clear as possible. Against decks such as zoo, so long as you manage to build a big Van Cleef (6/6 or higher is a must) or a questing adventurer (5/5 or higher) you should be able to dominate the field and win. How big do you make the minion? Versus aggro, the bigger the better. These decks are made to be fast, and playing around a silence that they might not have in their hand is a quick way to lose. In fact, most zoo decks don't even run owl, so there is no reason not to make that 16/16 van cleef against zoo. Against other types of aggro, usually taking a risk pays off. If it didn't, you wouldn't have won either way. </li> </ul> <p><strong>Vs Control:</strong> </p> <ul> <li>Sadly the build-a-bear workshop strategy is not as effective versus control as it is versus aggro. Control decks usually have more than once silence, big game hunter, and other ways of dealing with your nastyness. As such, you should be careful to not make your minions stronger than a 6/6, unless you have them under conceal. A key strategy to winning versus control is either 1) getting them low enough for leeroy lethal via Gadetzan Auctioneer cycling or 2) Overrun them with big threats. A druid with 7 mana can only clear two minions at most. If you have Gadetzan auctioneer, Van Cleef, and Questing auctioneer on the field, they cannot clear all three minions therefore what survives will kill them the following turn.</li> </ul> <p>Well, hope this guide was at least somewhat informative on how to play this deck. Ultimately it comes down to a matter of experience through trial and error which you can't encompass in a guide. Hope you enjoy playing this deck as much as I have! </p> </div><!-- SC_ON --> submitted by <a href="http://www.reddit.com/user/free_gold1"> free_gold1 </a> <br /> <a href="http://www.reddit.com/r/hearthstone/comments/2ady4y/legendary_wispect_miracle_rogue_deck_the_guide/">[link]</a> <a href="http://www.reddit.com/r/hearthstone/comments/2ady4y/legendary_wispect_miracle_rogue_deck_the_guide/">[23 comments]</a>
p316
stRp317
sg19
(lp318
g1
(g2
g3
(dp319
g22
Vhttp://www.reddit.com/r/hearthstone/comments/2ady4y/legendary_wispect_miracle_rogue_deck_the_guide/
p320
sg11
g24
sg25
g26
stRp321
asg105
g106
((I2014
I7
I11
I1
I33
I13
I4
I192
I0
t(dtRp322
sg36
VLegendary Wispect (Miracle Rogue) deck - the guide.
p323
sg109
g316
sg110
I00
sS'title_detail'
p324
g1
(g2
g3
(dp325
g9
Vhttp://www.reddit.com/r/hearthstone.rss
p326
sg11
g12
sg13
Nsg14
g323
stRp327
sg37
g320
sg115
VFri, 11 Jul 2014 01:33:13 +0000
p328
sg117
Vhttp://www.reddit.com/r/hearthstone/comments/2ady4y/legendary_wispect_miracle_rogue_deck_the_guide/
p329
stRp330
ag1
(g2
g3
(dp331
S'summary_detail'
p332
g1
(g2
g3
(dp333
g9
Vhttp://www.reddit.com/r/hearthstone.rss
p334
sg11
g54
sg13
Nsg14
V<table> <tr><td> <a href="http://www.reddit.com/r/hearthstone/comments/2acr58/ben_brode_confirms_naxx_not_today_but_still_on/"><img alt="Ben Brode confirms Naxx not today but still on track for July." src="http://a.thumbs.redditmedia.com/60_NQ5TDZw4DEj9F.jpg" title="Ben Brode confirms Naxx not today but still on track for July." /></a> </td><td> submitted by <a href="http://www.reddit.com/user/Langlock"> Langlock </a> <br /> <a href="https://twitter.com/bdbrode/status/487300577831821312">[link]</a> <a href="http://www.reddit.com/r/hearthstone/comments/2acr58/ben_brode_confirms_naxx_not_today_but_still_on/">[119 comments]</a> </td></tr></table>
p335
stRp336
sg19
(lp337
g1
(g2
g3
(dp338
g22
Vhttp://www.reddit.com/r/hearthstone/comments/2acr58/ben_brode_confirms_naxx_not_today_but_still_on/
p339
sg11
g24
sg25
g26
stRp340
asg105
g106
((I2014
I7
I10
I18
I34
I15
I3
I191
I0
t(dtRp341
sg36
VBen Brode confirms Naxx not today but still on track for July.
p342
sg151
(lp343
(dp344
S'url'
p345
Vhttp://a.thumbs.redditmedia.com/60_NQ5TDZw4DEj9F.jpg
p346
sasg109
g335
sg110
I00
sS'title_detail'
p347
g1
(g2
g3
(dp348
g9
Vhttp://www.reddit.com/r/hearthstone.rss
p349
sg11
g12
sg13
Nsg14
g342
stRp350
sg22
V
sg37
g339
sg115
VThu, 10 Jul 2014 18:34:15 +0000
p351
sg117
Vhttp://www.reddit.com/r/hearthstone/comments/2acr58/ben_brode_confirms_naxx_not_today_but_still_on/
p352
stRp353
ag1
(g2
g3
(dp354
S'summary_detail'
p355
g1
(g2
g3
(dp356
g9
Vhttp://www.reddit.com/r/hearthstone.rss
p357
sg11
g54
sg13
Nsg14
V<!-- SC_OFF --><div class="md"><p>He is so OP that he has made his way into other card games: <a href="http://imgur.com/m86LVTc">http://imgur.com/m86LVTc</a> </p> </div><!-- SC_ON --> submitted by <a href="http://www.reddit.com/user/cfinchman"> cfinchman </a> <br /> <a href="http://www.reddit.com/r/hearthstone/comments/2aevcj/leeroy_jenkins_is_so_op/">[link]</a> <a href="http://www.reddit.com/r/hearthstone/comments/2aevcj/leeroy_jenkins_is_so_op/">[11 comments]</a>
p358
stRp359
sg19
(lp360
g1
(g2
g3
(dp361
g22
Vhttp://www.reddit.com/r/hearthstone/comments/2aevcj/leeroy_jenkins_is_so_op/
p362
sg11
g24
sg25
g26
stRp363
asg105
g106
((I2014
I7
I11
I9
I19
I42
I4
I192
I0
t(dtRp364
sg36
VLeeroy Jenkins is so OP
p365
sg109
g358
sg110
I00
sS'title_detail'
p366
g1
(g2
g3
(dp367
g9
Vhttp://www.reddit.com/r/hearthstone.rss
p368
sg11
g12
sg13
Nsg14
g365
stRp369
sg37
g362
sg115
VFri, 11 Jul 2014 09:19:42 +0000
p370
sg117
Vhttp://www.reddit.com/r/hearthstone/comments/2aevcj/leeroy_jenkins_is_so_op/
p371
stRp372
ag1
(g2
g3
(dp373
S'summary_detail'
p374
g1
(g2
g3
(dp375
g9
Vhttp://www.reddit.com/r/hearthstone.rss
p376
sg11
g54
sg13
Nsg14
V<!-- SC_OFF --><div class="md"><p><a href="http://imgur.com/vAfz237">http://imgur.com/vAfz237</a></p> </div><!-- SC_ON --> submitted by <a href="http://www.reddit.com/user/jawshuat"> jawshuat </a> <br /> <a href="http://www.reddit.com/r/hearthstone/comments/2ad6mg/where_is_a_polymerization_when_you_need_it/">[link]</a> <a href="http://www.reddit.com/r/hearthstone/comments/2ad6mg/where_is_a_polymerization_when_you_need_it/">[48 comments]</a>
p377
stRp378
sg19
(lp379
g1
(g2
g3
(dp380
g22
Vhttp://www.reddit.com/r/hearthstone/comments/2ad6mg/where_is_a_polymerization_when_you_need_it/
p381
sg11
g24
sg25
g26
stRp382
asg105
g106
((I2014
I7
I10
I20
I55
I14
I3
I191
I0
t(dtRp383
sg36
VWhere is a Polymerization when you need it?
p384
sg109
g377
sg110
I00
sS'title_detail'
p385
g1
(g2
g3
(dp386
g9
Vhttp://www.reddit.com/r/hearthstone.rss
p387
sg11
g12
sg13
Nsg14
g384
stRp388
sg37
g381
sg115
VThu, 10 Jul 2014 20:55:14 +0000
p389
sg117
Vhttp://www.reddit.com/r/hearthstone/comments/2ad6mg/where_is_a_polymerization_when_you_need_it/
p390
stRp391
ag1
(g2
g3
(dp392
S'summary_detail'
p393
g1
(g2
g3
(dp394
g9
Vhttp://www.reddit.com/r/hearthstone.rss
p395
sg11
g54
sg13
Nsg14
V<table> <tr><td> <a href="http://www.reddit.com/r/hearthstone/comments/2ab9ea/my_dream_has_been_realized_turn_1_the_beast/"><img alt="My dream has been realized. Turn 1 &gt; THE BEAST" src="http://a.thumbs.redditmedia.com/iB9l2RcQQlsHkR6P.jpg" title="My dream has been realized. Turn 1 &gt; THE BEAST" /></a> </td><td> submitted by <a href="http://www.reddit.com/user/CptnFabulous"> CptnFabulous </a> <br /> <a href="https://www.youtube.com/watch?v=dTDEMymgWjk">[link]</a> <a href="http://www.reddit.com/r/hearthstone/comments/2ab9ea/my_dream_has_been_realized_turn_1_the_beast/">[220 comments]</a> </td></tr></table>
p396
stRp397
sg19
(lp398
g1
(g2
g3
(dp399
g22
Vhttp://www.reddit.com/r/hearthstone/comments/2ab9ea/my_dream_has_been_realized_turn_1_the_beast/
p400
sg11
g24
sg25
g26
stRp401
asg105
g106
((I2014
I7
I10
I6
I26
I2
I3
I191
I0
t(dtRp402
sg36
VMy dream has been realized. Turn 1 > THE BEAST
p403
sg151
(lp404
(dp405
S'url'
p406
Vhttp://a.thumbs.redditmedia.com/iB9l2RcQQlsHkR6P.jpg
p407
sasg109
g396
sg110
I00
sS'title_detail'
p408
g1
(g2
g3
(dp409
g9
Vhttp://www.reddit.com/r/hearthstone.rss
p410
sg11
g12
sg13
Nsg14
g403
stRp411
sg22
V
sg37
g400
sg115
VThu, 10 Jul 2014 06:26:02 +0000
p412
sg117
Vhttp://www.reddit.com/r/hearthstone/comments/2ab9ea/my_dream_has_been_realized_turn_1_the_beast/
p413
stRp414
ag1
(g2
g3
(dp415
S'summary_detail'
p416
g1
(g2
g3
(dp417
g9
Vhttp://www.reddit.com/r/hearthstone.rss
p418
sg11
g54
sg13
Nsg14
V<!-- SC_OFF --><div class="md"><p>In WoW, they look like the caster so why can't they look like Jaina in Hearthstone. I'm not saying to lazily copy and paste her image over the ones already in the game, but maybe do so with slight differences to differentiate them from her actual image a little bit.</p> <p>And... </p> <p>... I'm</p> <p>Gone... <em>Poof</em></p> </div><!-- SC_ON --> submitted by <a href="http://www.reddit.com/user/iwrotecatherine"> iwrotecatherine </a> <br /> <a href="http://www.reddit.com/r/hearthstone/comments/2aehd5/jaina_proudmoores_mirror_images_should_actually/">[link]</a> <a href="http://www.reddit.com/r/hearthstone/comments/2aehd5/jaina_proudmoores_mirror_images_should_actually/">[18 comments]</a>
p419
stRp420
sg19
(lp421
g1
(g2
g3
(dp422
g22
Vhttp://www.reddit.com/r/hearthstone/comments/2aehd5/jaina_proudmoores_mirror_images_should_actually/
p423
sg11
g24
sg25
g26
stRp424
asg105
g106
((I2014
I7
I11
I5
I17
I34
I4
I192
I0
t(dtRp425
sg36
VJaina Proudmoore's "mirror images" should actually look like Jaina.
p426
sg109
g419
sg110
I00
sS'title_detail'
p427
g1
(g2
g3
(dp428
g9
Vhttp://www.reddit.com/r/hearthstone.rss
p429
sg11
g12
sg13
Nsg14
g426
stRp430
sg37
g423
sg115
VFri, 11 Jul 2014 05:17:34 +0000
p431
sg117
Vhttp://www.reddit.com/r/hearthstone/comments/2aehd5/jaina_proudmoores_mirror_images_should_actually/
p432
stRp433
ag1
(g2
g3
(dp434
S'summary_detail'
p435
g1
(g2
g3
(dp436
g9
Vhttp://www.reddit.com/r/hearthstone.rss
p437
sg11
g54
sg13
Nsg14
V<!-- SC_OFF --><div class="md"><p>Miracle rogue that uses Questing and Wisps. 44 legend, congrats, freegold!</p> </div><!-- SC_ON --> submitted by <a href="http://www.reddit.com/user/Benasaz"> Benasaz </a> <br /> <a href="http://www.reddit.com/r/hearthstone/comments/2adg91/freegold_just_hit_legend_with_wisp_deck/">[link]</a> <a href="http://www.reddit.com/r/hearthstone/comments/2adg91/freegold_just_hit_legend_with_wisp_deck/">[37 comments]</a>
p438
stRp439
sg19
(lp440
g1
(g2
g3
(dp441
g22
Vhttp://www.reddit.com/r/hearthstone/comments/2adg91/freegold_just_hit_legend_with_wisp_deck/
p442
sg11
g24
sg25
g26
stRp443
asg105
g106
((I2014
I7
I10
I22
I29
I17
I3
I191
I0
t(dtRp444
sg36
VFreegold just hit legend with wisp deck
p445
sg109
g438
sg110
I00
sS'title_detail'
p446
g1
(g2
g3
(dp447
g9
Vhttp://www.reddit.com/r/hearthstone.rss
p448
sg11
g12
sg13
Nsg14
g445
stRp449
sg37
g442
sg115
VThu, 10 Jul 2014 22:29:17 +0000
p450
sg117
Vhttp://www.reddit.com/r/hearthstone/comments/2adg91/freegold_just_hit_legend_with_wisp_deck/
p451
stRp452
ag1
(g2
g3
(dp453
S'summary_detail'
p454
g1
(g2
g3
(dp455
g9
Vhttp://www.reddit.com/r/hearthstone.rss
p456
sg11
g54
sg13
Nsg14
V<!-- SC_OFF --><div class="md"><p>Basically if alarm o bot brings out nozdurmu you get only 5 seconds to make your move before your turn gets cut off, not the 15 seconds the text says.</p> <p>This only applies to the turn alaram o bot brings out nozdormu, afterwards the 15 second turns proceeds normally.</p> <p>This bug cost me the game as my turn basically instantly ended the moment my alarm o bot brought out my nozdormu making me miss lethal...</p> </div><!-- SC_ON --> submitted by <a href="http://www.reddit.com/user/Falestian"> Falestian </a> <br /> <a href="http://www.reddit.com/r/hearthstone/comments/2ae9h0/bug_involving_alarmobot_and_nozdormu/">[link]</a> <a href="http://www.reddit.com/r/hearthstone/comments/2ae9h0/bug_involving_alarmobot_and_nozdormu/">[3 comments]</a>
p457
stRp458
sg19
(lp459
g1
(g2
g3
(dp460
g22
Vhttp://www.reddit.com/r/hearthstone/comments/2ae9h0/bug_involving_alarmobot_and_nozdormu/
p461
sg11
g24
sg25
g26
stRp462
asg105
g106
((I2014
I7
I11
I3
I38
I56
I4
I192
I0
t(dtRp463
sg36
VBug involving alarm-o-bot and Nozdormu
p464
sg109
g457
sg110
I00
sS'title_detail'
p465
g1
(g2
g3
(dp466
g9
Vhttp://www.reddit.com/r/hearthstone.rss
p467
sg11
g12
sg13
Nsg14
g464
stRp468
sg37
g461
sg115
VFri, 11 Jul 2014 03:38:56 +0000
p469
sg117
Vhttp://www.reddit.com/r/hearthstone/comments/2ae9h0/bug_involving_alarmobot_and_nozdormu/
p470
stRp471
ag1
(g2
g3
(dp472
S'summary_detail'
p473
g1
(g2
g3
(dp474
g9
Vhttp://www.reddit.com/r/hearthstone.rss
p475
sg11
g54
sg13
Nsg14
V<!-- SC_OFF --><div class="md"><p>title</p> </div><!-- SC_ON --> submitted by <a href="http://www.reddit.com/user/Bakyra"> Bakyra </a> <br /> <a href="http://www.reddit.com/r/hearthstone/comments/2abzhe/would_the_demolisher_see_more_play_if_it_was_at/">[link]</a> <a href="http://www.reddit.com/r/hearthstone/comments/2abzhe/would_the_demolisher_see_more_play_if_it_was_at/">[175 comments]</a>
p476
stRp477
sg19
(lp478
g1
(g2
g3
(dp479
g22
Vhttp://www.reddit.com/r/hearthstone/comments/2abzhe/would_the_demolisher_see_more_play_if_it_was_at/
p480
sg11
g24
sg25
g26
stRp481
asg105
g106
((I2014
I7
I10
I14
I1
I31
I3
I191
I0
t(dtRp482
sg36
VWould the Demolisher see more play if it was "at the end of your turn" a la rag?
p483
sg109
g476
sg110
I00
sS'title_detail'
p484
g1
(g2
g3
(dp485
g9
Vhttp://www.reddit.com/r/hearthstone.rss
p486
sg11
g12
sg13
Nsg14
g483
stRp487
sg37
g480
sg115
VThu, 10 Jul 2014 07:01:31 -0700
p488
sg117
Vhttp://www.reddit.com/r/hearthstone/comments/2abzhe/would_the_demolisher_see_more_play_if_it_was_at/
p489
stRp490
ag1
(g2
g3
(dp491
S'summary_detail'
p492
g1
(g2
g3
(dp493
g9
Vhttp://www.reddit.com/r/hearthstone.rss
p494
sg11
g54
sg13
Nsg14
V<!-- SC_OFF --><div class="md"><p><em>Ever wonder exactly how much luck is involved in the legendary climb? Need an excuse as to why you're still grinding while your (obviously less skilled, and also worse smelling) friend has his shiny orange hexagon already? Look no further!</em></p> <p>First, some definitions:</p> <p>We describe &quot;skill&quot; as &quot;expected win rate&quot; -e.g. A coin flip has an expected win rate of exactly 50%</p> <p>Which we contrast with &quot;observed win rate&quot; -e.g. If you get 4 heads out of 10 flips, your observed win rate is 40%</p> <p>Then, using a computer <a href="http://en.wikipedia.org/wiki/Markov_chain">Markov chain</a> model of the 25 steps from rank 5 to legend to calculate the probability of reaching legend after N iterations (games played), we get the following distributions:</p> <p>If your <strong>expected win rate</strong> is <strong>55%</strong> R5-Legend will likely (90% <a href="http://en.wikipedia.org/wiki/Confidence_interval">CI</a>) take <strong>84 - 454 games</strong> with a median of 190</p> <p>If your <strong>expected win rate</strong> is <strong>60%</strong> R5-Legend will likely (90% CI) take <strong>60 - 216 games</strong> with a median of 112</p> <p>If your <strong>expected win rate</strong> is <strong>65%</strong> R5-Legend will likely (90% CI) take <strong>48 - 136 games</strong> with a median of 80</p> <p>Interestingly, one could conceivably reach legend purely via <a href="http://en.wikipedia.org/wiki/Random_walk">random walk</a>:</p> <p>If your <strong>expected win rate</strong> is <strong>50%</strong> R5-Legend will likely (90% CI) take <strong>144 - 1912 games</strong> with a median of 552</p> <p>So there you have it. May the cards be ever in your favor!</p> </div><!-- SC_ON --> submitted by <a href="http://www.reddit.com/user/Psychosynth"> Psychosynth </a> <br /> <a href="http://www.reddit.com/r/hearthstone/comments/2abqd3/rank_5_to_legendary_probability_using_actual_math/">[link]</a> <a href="http://www.reddit.com/r/hearthstone/comments/2abqd3/rank_5_to_legendary_probability_using_actual_math/">[115 comments]</a>
p495
stRp496
sg19
(lp497
g1
(g2
g3
(dp498
g22
Vhttp://www.reddit.com/r/hearthstone/comments/2abqd3/rank_5_to_legendary_probability_using_actual_math/
p499
sg11
g24
sg25
g26
stRp500
asg105
g106
((I2014
I7
I10
I11
I56
I50
I3
I191
I0
t(dtRp501
sg36
VRank 5 to Legendary probability (using actual math!)
p502
sg109
g495
sg110
I00
sS'title_detail'
p503
g1
(g2
g3
(dp504
g9
Vhttp://www.reddit.com/r/hearthstone.rss
p505
sg11
g12
sg13
Nsg14
g502
stRp506
sg37
g499
sg115
VThu, 10 Jul 2014 11:56:50 +0000
p507
sg117
Vhttp://www.reddit.com/r/hearthstone/comments/2abqd3/rank_5_to_legendary_probability_using_actual_math/
p508
stRp509
ag1
(g2
g3
(dp510
S'summary_detail'
p511
g1
(g2
g3
(dp512
g9
Vhttp://www.reddit.com/r/hearthstone.rss
p513
sg11
g54
sg13
Nsg14
V<!-- SC_OFF --><div class="md"><p><a href="http://imgur.com/ukNjKw7">http://imgur.com/ukNjKw7</a></p> <p>Stay ahead of the meta.</p> </div><!-- SC_ON --> submitted by <a href="http://www.reddit.com/user/danieltheloon"> danieltheloon </a> <br /> <a href="http://www.reddit.com/r/hearthstone/comments/2adssa/from_the_tempostorm_website_i_guess_this_is_how/">[link]</a> <a href="http://www.reddit.com/r/hearthstone/comments/2adssa/from_the_tempostorm_website_i_guess_this_is_how/">[8 comments]</a>
p514
stRp515
sg19
(lp516
g1
(g2
g3
(dp517
g22
Vhttp://www.reddit.com/r/hearthstone/comments/2adssa/from_the_tempostorm_website_i_guess_this_is_how/
p518
sg11
g24
sg25
g26
stRp519
asg105
g106
((I2014
I7
I11
I0
I36
I37
I4
I192
I0
t(dtRp520
sg36
VFrom the TempoStorm website, I guess this is how you "Become Legendary"
p521
sg109
g514
sg110
I00
sS'title_detail'
p522
g1
(g2
g3
(dp523
g9
Vhttp://www.reddit.com/r/hearthstone.rss
p524
sg11
g12
sg13
Nsg14
g521
stRp525
sg37
g518
sg115
VFri, 11 Jul 2014 00:36:37 +0000
p526
sg117
Vhttp://www.reddit.com/r/hearthstone/comments/2adssa/from_the_tempostorm_website_i_guess_this_is_how/
p527
stRp528
ag1
(g2
g3
(dp529
S'summary_detail'
p530
g1
(g2
g3
(dp531
g9
Vhttp://www.reddit.com/r/hearthstone.rss
p532
sg11
g54
sg13
Nsg14
V<table> <tr><td> <a href="http://www.reddit.com/r/hearthstone/comments/2addj6/puzzle_defense_of_the_trees/"><img alt="Puzzle: Defense of the trees?" src="http://a.thumbs.redditmedia.com/l30GNM8_yQwPmpbd.jpg" title="Puzzle: Defense of the trees?" /></a> </td><td> submitted by <a href="http://www.reddit.com/user/Guuy"> Guuy </a> <br /> <a href="https://www.youtube.com/watch?v=CBFybmLzOsY">[link]</a> <a href="http://www.reddit.com/r/hearthstone/comments/2addj6/puzzle_defense_of_the_trees/">[16 comments]</a> </td></tr></table>
p533
stRp534
sg19
(lp535
g1
(g2
g3
(dp536
g22
Vhttp://www.reddit.com/r/hearthstone/comments/2addj6/puzzle_defense_of_the_trees/
p537
sg11
g24
sg25
g26
stRp538
asg105
g106
((I2014
I7
I10
I22
I2
I20
I3
I191
I0
t(dtRp539
sg36
VPuzzle: Defense of the trees?
p540
sg151
(lp541
(dp542
S'url'
p543
Vhttp://a.thumbs.redditmedia.com/l30GNM8_yQwPmpbd.jpg
p544
sasg109
g533
sg110
I00
sS'title_detail'
p545
g1
(g2
g3
(dp546
g9
Vhttp://www.reddit.com/r/hearthstone.rss
p547
sg11
g12
sg13
Nsg14
g540
stRp548
sg22
V
sg37
g537
sg115
VThu, 10 Jul 2014 22:02:20 +0000
p549
sg117
Vhttp://www.reddit.com/r/hearthstone/comments/2addj6/puzzle_defense_of_the_trees/
p550
stRp551
ag1
(g2
g3
(dp552
S'summary_detail'
p553
g1
(g2
g3
(dp554
g9
Vhttp://www.reddit.com/r/hearthstone.rss
p555
sg11
g54
sg13
Nsg14
Vsubmitted by <a href="http://www.reddit.com/user/ploguidic3"> ploguidic3 </a> <br /> <a href="http://www.esportsheaven.com/news/64438">[link]</a> <a href="http://www.reddit.com/r/hearthstone/comments/2aduct/youporn_looking_to_sponsor_hearthstone_team/">[17 comments]</a>
p556
stRp557
sg19
(lp558
g1
(g2
g3
(dp559
g22
Vhttp://www.reddit.com/r/hearthstone/comments/2aduct/youporn_looking_to_sponsor_hearthstone_team/
p560
sg11
g24
sg25
g26
stRp561
asg105
g106
((I2014
I7
I11
I0
I53
I10
I4
I192
I0
t(dtRp562
sg36
VYouPorn looking to sponsor Hearthstone Team
p563
sg109
g556
sg110
I00
sS'title_detail'
p564
g1
(g2
g3
(dp565
g9
Vhttp://www.reddit.com/r/hearthstone.rss
p566
sg11
g12
sg13
Nsg14
g563
stRp567
sg37
g560
sg115
VFri, 11 Jul 2014 00:53:10 +0000
p568
sg117
Vhttp://www.reddit.com/r/hearthstone/comments/2aduct/youporn_looking_to_sponsor_hearthstone_team/
p569
stRp570
ag1
(g2
g3
(dp571
S'summary_detail'
p572
g1
(g2
g3
(dp573
g9
Vhttp://www.reddit.com/r/hearthstone.rss
p574
sg11
g54
sg13
Nsg14
V<!-- SC_OFF --><div class="md"><p>Little did he know I was biding my time letting him flood the board, after he played the second Northshire I was so giddy.</p> <p><a href="http://i.imgur.com/WFyQVg8.jpg">http://i.imgur.com/WFyQVg8.jpg</a></p> <p>After I played the combo my game crashed, not sure if it was from the over drawing. Still got the win!</p> </div><!-- SC_ON --> submitted by <a href="http://www.reddit.com/user/simon2105"> simon2105 </a> <br /> <a href="http://www.reddit.com/r/hearthstone/comments/2abyo9/this_guy_thought_he_had_me_beat/">[link]</a> <a href="http://www.reddit.com/r/hearthstone/comments/2abyo9/this_guy_thought_he_had_me_beat/">[76 comments]</a>
p575
stRp576
sg19
(lp577
g1
(g2
g3
(dp578
g22
Vhttp://www.reddit.com/r/hearthstone/comments/2abyo9/this_guy_thought_he_had_me_beat/
p579
sg11
g24
sg25
g26
stRp580
asg105
g106
((I2014
I7
I10
I13
I52
I34
I3
I191
I0
t(dtRp581
sg36
VThis guy thought he had me beat
p582
sg109
g575
sg110
I00
sS'title_detail'
p583
g1
(g2
g3
(dp584
g9
Vhttp://www.reddit.com/r/hearthstone.rss
p585
sg11
g12
sg13
Nsg14
g582
stRp586
sg37
g579
sg115
VThu, 10 Jul 2014 13:52:34 +0000
p587
sg117
Vhttp://www.reddit.com/r/hearthstone/comments/2abyo9/this_guy_thought_he_had_me_beat/
p588
stRp589
ag1
(g2
g3
(dp590
S'summary_detail'
p591
g1
(g2
g3
(dp592
g9
Vhttp://www.reddit.com/r/hearthstone.rss
p593
sg11
g54
sg13
Nsg14
V<!-- SC_OFF --><div class="md"><p>I thought it was one of the most entertaining nights in streaming history</p> <p>It ended kinda tragic but all in all was a good show</p> <p>what are your thoughts?</p> <p>edit: for those who missed it estafan7 had the best account of <a href="http://www.reddit.com/r/hearthstone/comments/2abmpb/who_all_tuned_in_for_days_of_our_tides_last_night/citytx6">what happened</a></p> </div><!-- SC_ON --> submitted by <a href="http://www.reddit.com/user/losisnojoke"> losisnojoke </a> <br /> <a href="http://www.reddit.com/r/hearthstone/comments/2abmpb/who_all_tuned_in_for_days_of_our_tides_last_night/">[link]</a> <a href="http://www.reddit.com/r/hearthstone/comments/2abmpb/who_all_tuned_in_for_days_of_our_tides_last_night/">[119 comments]</a>
p594
stRp595
sg19
(lp596
g1
(g2
g3
(dp597
g22
Vhttp://www.reddit.com/r/hearthstone/comments/2abmpb/who_all_tuned_in_for_days_of_our_tides_last_night/
p598
sg11
g24
sg25
g26
stRp599
asg105
g106
((I2014
I7
I10
I10
I48
I7
I3
I191
I0
t(dtRp600
sg36
VWho all tuned in for "days of our Tides" last night?
p601
sg109
g594
sg110
I00
sS'title_detail'
p602
g1
(g2
g3
(dp603
g9
Vhttp://www.reddit.com/r/hearthstone.rss
p604
sg11
g12
sg13
Nsg14
g601
stRp605
sg37
g598
sg115
VThu, 10 Jul 2014 10:48:07 +0000
p606
sg117
Vhttp://www.reddit.com/r/hearthstone/comments/2abmpb/who_all_tuned_in_for_days_of_our_tides_last_night/
p607
stRp608
astRp609
.