ccopy_reg
_reconstructor
p1
(cfeedparser
FeedParserDict
p2
c__builtin__
dict
p3
(dp4
S'feed'
p5
g1
(g2
g3
(dp6
S'info'
p7
VThis is an XML content feed. It is intended to be viewed in a newsreader or syndicated to another site.
p8
sS'updated'
p9
VFri, 11 Jul 2014 00:06:13 GMT
p10
sS'subtitle'
p11
VTech By Design
p12
sS'language'
p13
Ven
p14
sS'published_parsed'
p15
ctime
struct_time
p16
((I2014
I7
I11
I0
I6
I13
I4
I192
I0
t(dtRp17
sS'title'
p18
VGizmodo
p19
sS'published'
p20
VFri, 11 Jul 2014 00:06:13 GMT
p21
sS'links'
p22
(lp23
g1
(g2
g3
(dp24
S'href'
p25
Vhttp://gizmodo.com
p26
sS'type'
p27
Vtext/html
p28
sS'rel'
p29
Valternate
p30
stRp31
ag1
(g2
g3
(dp32
S'href'
p33
Vhttp://pubsubhubbub.appspot.com/
p34
sg27
g28
sS'rel'
p35
Vhub
p36
stRp37
ag1
(g2
g3
(dp38
S'href'
p39
Vhttp://www.gizmodo.com/index.xml
p40
sS'type'
p41
Vapplication/rss+xml
p42
sS'rel'
p43
Vself
p44
stRp45
asS'feedburner_info'
p46
(dp47
S'uri'
p48
Vgizmodo/full
p49
ssS'subtitle_detail'
p50
g1
(g2
g3
(dp51
S'base'
p52
Vhttp://feeds.gawker.com/gizmodo/full
p53
sg27
Vtext/html
p54
sg13
NsS'value'
p55
g12
stRp56
sS'title_detail'
p57
g1
(g2
g3
(dp58
g52
Vhttp://feeds.gawker.com/gizmodo/full
p59
sg27
Vtext/plain
p60
sg13
Nsg55
g19
stRp61
sS'info_detail'
p62
g1
(g2
g3
(dp63
g52
Vhttp://feeds.gawker.com/gizmodo/full
p64
sg27
Vtext/plain
p65
sg13
Nsg55
g8
stRp66
sS'link'
p67
g26
sS'ttl'
p68
V30
p69
sS'updated_parsed'
p70
g16
((I2014
I7
I11
I0
I6
I13
I4
I192
I0
t(dtRp71
stRp72
sS'status'
p73
I200
sg9
S'Fri, 11 Jul 2014 00:20:10 GMT'
p74
sg70
g16
((I2014
I7
I11
I0
I20
I10
I4
I192
I0
t(dtRp75
sS'encoding'
p76
VUTF-8
p77
sS'bozo'
p78
I0
sS'headers'
p79
(dp80
S'alternate-protocol'
p81
S'80:quic,80:quic'
p82
sS'x-xss-protection'
p83
S'1; mode=block'
p84
sS'x-content-type-options'
p85
S'nosniff'
p86
sS'content-encoding'
p87
S'gzip'
p88
sS'transfer-encoding'
p89
S'chunked'
p90
sS'expires'
p91
S'Fri, 11 Jul 2014 00:24:16 GMT'
p92
sS'server'
p93
S'GSE'
p94
sS'last-modified'
p95
g74
sS'connection'
p96
S'close'
p97
sS'etag'
p98
S'u8i1/I/EM2BykUA+t59AZJA60RE'
p99
sS'cache-control'
p100
S'private, max-age=0'
p101
sS'date'
p102
S'Fri, 11 Jul 2014 00:24:16 GMT'
p103
sS'content-type'
p104
S'text/xml; charset=UTF-8'
p105
ssS'etag'
p106
Vu8i1/I/EM2BykUA+t59AZJA60RE
p107
sg25
Vhttp://feeds.gawker.com/gizmodo/full
p108
sS'version'
p109
Vrss20
p110
sS'entries'
p111
(lp112
g1
(g2
g3
(dp113
S'summary_detail'
p114
g1
(g2
g3
(dp115
g52
Vhttp://feeds.gawker.com/gizmodo/full
p116
sg27
g54
sg13
Nsg55
V<p class="has-media media-640"><img alt="Orphan Black Got Stiffed At The Emmy's, But You Should Still Watch It" class="transform-original" height="356" src="http://i.kinja-img.com/gawker-media/image/upload/s--4yMOiNnO--/805812754262922415.jpg" width="636" /></p> <p class="first-text">The 2014 Emmy Award nominations came out today, and fans of BBC America's <em>Orphan Black</em> were understandably upset when lead actress Tatiana Maslany didn't get nominated. Maslany, after all, plays seven distinct characters on the thrilling, original, weird clone drama. </p><p><a href="http://gizmodo.com/orphan-black-got-stiffed-at-the-emmys-but-you-should-s-1603112883">Read more...</a></p><img border="0" height="1" src="http://gizmodo.feedsportal.com/c/34976/f/647164/s/3c61cf1f/sc/17/mf.gif" width="1" /><br clear="all" /><br /><br /><a href="http://da.feedsportal.com/r/199109388093/u/94/f/647164/c/34976/s/3c61cf1f/sc/17/rc/1/rc.htm" rel="nofollow"><img border="0" src="http://da.feedsportal.com/r/199109388093/u/94/f/647164/c/34976/s/3c61cf1f/sc/17/rc/1/rc.img" /></a><br /><a href="http://da.feedsportal.com/r/199109388093/u/94/f/647164/c/34976/s/3c61cf1f/sc/17/rc/2/rc.htm" rel="nofollow"><img border="0" src="http://da.feedsportal.com/r/199109388093/u/94/f/647164/c/34976/s/3c61cf1f/sc/17/rc/2/rc.img" /></a><br /><a href="http://da.feedsportal.com/r/199109388093/u/94/f/647164/c/34976/s/3c61cf1f/sc/17/rc/3/rc.htm" rel="nofollow"><img border="0" src="http://da.feedsportal.com/r/199109388093/u/94/f/647164/c/34976/s/3c61cf1f/sc/17/rc/3/rc.img" /></a><br /><br /><a href="http://da.feedsportal.com/r/199109388093/u/94/f/647164/c/34976/s/3c61cf1f/sc/17/a2.htm"><img border="0" src="http://da.feedsportal.com/r/199109388093/u/94/f/647164/c/34976/s/3c61cf1f/sc/17/a2.img" /></a><img border="0" height="1" src="http://pi.feedsportal.com/r/199109388093/u/94/f/647164/c/34976/s/3c61cf1f/sc/17/a2t.img" width="1" /><img height="1" src="http://feeds.feedburner.com/~r/gizmodo/full/~4/tAl66zu_Enk" width="1" />
p117
stRp118
sg22
(lp119
g1
(g2
g3
(dp120
g25
Vhttp://feeds.gawker.com/~r/gizmodo/full/~3/tAl66zu_Enk/orphan-black-got-stiffed-at-the-emmys-but-you-should-s-1603112883
p121
sg27
g28
sg29
g30
stRp122
asg15
g16
((I2014
I7
I11
I0
I0
I0
I4
I192
I0
t(dtRp123
sg18
VOrphan Black Got Stiffed At The Emmy's, But You Should Still Watch It
p124
sS'feedburner_origlink'
p125
Vhttp://gizmodo.com/orphan-black-got-stiffed-at-the-emmys-but-you-should-s-1603112883
p126
sS'tags'
p127
(lp128
g1
(g2
g3
(dp129
S'term'
p130
Vorphan black
p131
sS'scheme'
p132
NsS'label'
p133
NstRp134
ag1
(g2
g3
(dp135
g130
Vmovie night
p136
sg132
Nsg133
NstRp137
asS'summary'
p138
g117
sS'guidislink'
p139
I00
sS'title_detail'
p140
g1
(g2
g3
(dp141
g52
Vhttp://feeds.gawker.com/gizmodo/full
p142
sg27
g60
sg13
Nsg55
g124
stRp143
sg67
g121
sS'author'
p144
VKate Knibbs
p145
sg20
VFri, 11 Jul 2014 00:00:00 GMT
p146
sS'authors'
p147
(lp148
g1
(g2
g3
(dtRp149
asS'author_detail'
p150
g1
(g2
g3
(dp151
S'name'
p152
g145
stRp153
sS'id'
p154
Vhttp://feeds.gawker.com/gizmodo/1603112883
p155
stRp156
ag1
(g2
g3
(dp157
S'summary_detail'
p158
g1
(g2
g3
(dp159
g52
Vhttp://feeds.gawker.com/gizmodo/full
p160
sg27
g54
sg13
Nsg55
V<p class="has-media media-640"><span class="clear-both flex-video widescreen"></span></p> <p class="first-text">The relationship between scent and our memory centers is well-documented, but I'm guessing sound must be located nearby, too. Certain songs and albums have a powerful tendency to cement themselves to the moment in time when you first discovered them. </p><p><a href="http://gizmodo.com/future-islands-in-the-fall-1603260508">Read more...</a></p><img border="0" height="1" src="http://gizmodo.feedsportal.com/c/34976/f/647164/s/3c6163ef/sc/4/mf.gif" width="1" /><br clear="all" /><br /><br /><a href="http://da.feedsportal.com/r/199109386835/u/94/f/647164/c/34976/s/3c6163ef/sc/4/rc/1/rc.htm" rel="nofollow"><img border="0" src="http://da.feedsportal.com/r/199109386835/u/94/f/647164/c/34976/s/3c6163ef/sc/4/rc/1/rc.img" /></a><br /><a href="http://da.feedsportal.com/r/199109386835/u/94/f/647164/c/34976/s/3c6163ef/sc/4/rc/2/rc.htm" rel="nofollow"><img border="0" src="http://da.feedsportal.com/r/199109386835/u/94/f/647164/c/34976/s/3c6163ef/sc/4/rc/2/rc.img" /></a><br /><a href="http://da.feedsportal.com/r/199109386835/u/94/f/647164/c/34976/s/3c6163ef/sc/4/rc/3/rc.htm" rel="nofollow"><img border="0" src="http://da.feedsportal.com/r/199109386835/u/94/f/647164/c/34976/s/3c6163ef/sc/4/rc/3/rc.img" /></a><br /><br /><a href="http://da.feedsportal.com/r/199109386835/u/94/f/647164/c/34976/s/3c6163ef/sc/4/a2.htm"><img border="0" src="http://da.feedsportal.com/r/199109386835/u/94/f/647164/c/34976/s/3c6163ef/sc/4/a2.img" /></a><img border="0" height="1" src="http://pi.feedsportal.com/r/199109386835/u/94/f/647164/c/34976/s/3c6163ef/sc/4/a2t.img" width="1" /><img height="1" src="http://feeds.feedburner.com/~r/gizmodo/full/~4/2NhNhbSz4Yg" width="1" />
p161
stRp162
sg22
(lp163
g1
(g2
g3
(dp164
g25
Vhttp://feeds.gawker.com/~r/gizmodo/full/~3/2NhNhbSz4Yg/future-islands-in-the-fall-1603260508
p165
sg27
g28
sg29
g30
stRp166
asg15
g16
((I2014
I7
I10
I23
I0
I0
I3
I191
I0
t(dtRp167
sg18
VFuture Islands: In the Fall
p168
sS'feedburner_origlink'
p169
Vhttp://gizmodo.com/future-islands-in-the-fall-1603260508
p170
sg127
(lp171
g1
(g2
g3
(dp172
g130
Vin the fall
p173
sg132
Nsg133
NstRp174
ag1
(g2
g3
(dp175
g130
Vfuture islands
p176
sg132
Nsg133
NstRp177
ag1
(g2
g3
(dp178
g130
Vsoundtrack
p179
sg132
Nsg133
NstRp180
asg138
g161
sg139
I00
sS'title_detail'
p181
g1
(g2
g3
(dp182
g52
Vhttp://feeds.gawker.com/gizmodo/full
p183
sg27
g60
sg13
Nsg55
g168
stRp184
sg67
g165
sg144
VKelsey Campbell-Dollaghan
p185
sg20
VThu, 10 Jul 2014 23:00:00 GMT
p186
sg147
(lp187
g1
(g2
g3
(dtRp188
asS'author_detail'
p189
g1
(g2
g3
(dp190
g152
g185
stRp191
sg154
Vhttp://feeds.gawker.com/gizmodo/1603260508
p192
stRp193
ag1
(g2
g3
(dp194
S'summary_detail'
p195
g1
(g2
g3
(dp196
g52
Vhttp://feeds.gawker.com/gizmodo/full
p197
sg27
g54
sg13
Nsg55
V<p class="has-media media-640"><img alt="This Vintage Typewriter Is Actually a Keyboard For Your Tablet" class="transform-ku-xlarge" height="357" src="http://i.kinja-img.com/gawker-media/image/upload/s--W3e1uP6D--/c_fit,fl_progressive,q_80,w_636/ulkxafjxey1psu3kx5xg.jpg" width="636" /></p> <p class="first-text">For some of us who type all day for a living, the world is too quiet. We pine for the whir of the Xerox machine, the rattle of rotary telephones, the clackety-clack of the typewriter. A slightly romantic vision, maybe, but no longer completely impossible, thanks to this keyboard modeled to look exactly like a vintage typewriter.</p><p><a href="http://gizmodo.com/this-vintage-typewriter-is-actually-a-keyboard-for-your-1599446847">Read more...</a></p><img border="0" height="1" src="http://gizmodo.feedsportal.com/c/34976/f/647164/s/3c6166bc/sc/5/mf.gif" width="1" /><br clear="all" /><img height="1" src="http://feeds.feedburner.com/~r/gizmodo/full/~4/HgNts9DMz3A" width="1" />
p198
stRp199
sg22
(lp200
g1
(g2
g3
(dp201
g25
Vhttp://feeds.gawker.com/~r/gizmodo/full/~3/HgNts9DMz3A/this-vintage-typewriter-is-actually-a-keyboard-for-your-1599446847
p202
sg27
g28
sg29
g30
stRp203
asg15
g16
((I2014
I7
I10
I22
I40
I0
I3
I191
I0
t(dtRp204
sg18
VThis Vintage Typewriter Is Actually a Keyboard For Your Tablet
p205
sS'feedburner_origlink'
p206
Vhttp://gizmodo.com/this-vintage-typewriter-is-actually-a-keyboard-for-your-1599446847
p207
sg127
(lp208
g1
(g2
g3
(dp209
g130
Vtypewriters
p210
sg132
Nsg133
NstRp211
ag1
(g2
g3
(dp212
g130
Vcomputers
p213
sg132
Nsg133
NstRp214
ag1
(g2
g3
(dp215
g130
Vkeyboards
p216
sg132
Nsg133
NstRp217
ag1
(g2
g3
(dp218
g130
Vqwerkywriter
p219
sg132
Nsg133
NstRp220
ag1
(g2
g3
(dp221
g130
Vwish you were here
p222
sg132
Nsg133
NstRp223
asg138
g198
sg139
I00
sS'title_detail'
p224
g1
(g2
g3
(dp225
g52
Vhttp://feeds.gawker.com/gizmodo/full
p226
sg27
g60
sg13
Nsg55
g205
stRp227
sg67
g202
sg144
VAlissa Walker
p228
sg20
VThu, 10 Jul 2014 22:40:00 GMT
p229
sg147
(lp230
g1
(g2
g3
(dtRp231
asS'author_detail'
p232
g1
(g2
g3
(dp233
g152
g228
stRp234
sg154
Vhttp://feeds.gawker.com/gizmodo/1599446847
p235
stRp236
ag1
(g2
g3
(dp237
S'summary_detail'
p238
g1
(g2
g3
(dp239
g52
Vhttp://feeds.gawker.com/gizmodo/full
p240
sg27
g54
sg13
Nsg55
V<p class="has-media media-640"><img alt="Scientist find that 80 percent of all light in the Universe is missing" class="transform-ku-xlarge" height="423" src="http://i.kinja-img.com/gawker-media/image/upload/s--m90oV-7f--/c_fit,fl_progressive,q_80,w_636/805898042041024660.jpg" width="636" /></p> <p class="first-text">According to observations made by the Cosmic Origins Spectrograph on board the Hubble Space Telescope, <a href="http://www.colorado.edu/news/releases/2014/07/09/cu-boulder-instrument-onboard-hubble-reveals-universe-%E2%80%98missing%E2%80%99-light" target="_blank">the Universe is <em>missing</em> 80 percent of all its light.</a> Astronomers are completely baffled: "We still don't know for sure what it is, but at least one thing we thought we knew about the present day universe isn't true." </p><p><a href="http://sploid.gizmodo.com/scientists-find-that-80-percent-of-all-light-in-the-uni-1603234995/+caseychan">Read more...</a></p><img border="0" height="1" src="http://gizmodo.feedsportal.com/c/34976/f/647164/s/3c619c6f/sc/22/mf.gif" width="1" /><br clear="all" /><img height="1" src="http://feeds.feedburner.com/~r/gizmodo/full/~4/XhG_qUVniwI" width="1" />
p241
stRp242
sg22
(lp243
g1
(g2
g3
(dp244
g25
Vhttp://feeds.gawker.com/~r/gizmodo/full/~3/XhG_qUVniwI/+caseychan
p245
sg27
g28
sg29
g30
stRp246
asg15
g16
((I2014
I7
I10
I22
I7
I0
I3
I191
I0
t(dtRp247
sg18
VScientist find that 80 percent of all light in the Universe is missing
p248
sS'feedburner_origlink'
p249
Vhttp://sploid.gizmodo.com/scientists-find-that-80-percent-of-all-light-in-the-uni-1603234995/+caseychan
p250
sg127
(lp251
g1
(g2
g3
(dp252
g130
Vlight
p253
sg132
Nsg133
NstRp254
ag1
(g2
g3
(dp255
g130
Vfascinating
p256
sg132
Nsg133
NstRp257
ag1
(g2
g3
(dp258
g130
Vinteresting
p259
sg132
Nsg133
NstRp260
asg138
g241
sg139
I00
sS'title_detail'
p261
g1
(g2
g3
(dp262
g52
Vhttp://feeds.gawker.com/gizmodo/full
p263
sg27
g60
sg13
Nsg55
g248
stRp264
sg67
g245
sg144
VJesus Diaz on Sploid, shared by Casey Chan to Gizmodo
p265
sg20
VThu, 10 Jul 2014 22:07:00 GMT
p266
sg147
(lp267
g1
(g2
g3
(dtRp268
asS'author_detail'
p269
g1
(g2
g3
(dp270
g152
g265
stRp271
sg154
Vhttp://feeds.gawker.com/gizmodo/1603234995
p272
stRp273
ag1
(g2
g3
(dp274
S'summary_detail'
p275
g1
(g2
g3
(dp276
g52
Vhttp://feeds.gawker.com/gizmodo/full
p277
sg27
g54
sg13
Nsg55
V<p class="has-media media-640"><img alt="This Compact Device Keeps Small Electronics Running on Emergency Power" class="transform-ku-xlarge" height="288" src="http://i.kinja-img.com/gawker-media/image/upload/s--Ec5Mfuj5--/c_fit,fl_progressive,q_80,w_636/yuxedxczw2ys10kd9voa.jpg" width="636" /></p> <p class="first-text">A UPS\u2014or uninterruptible power supply\u2014beneath your desk can be a lifesaver if your building loses electricity while you're working. However, most people don't own one because a UPS is typically designed for power-hungry desktop computers and end up being heavy and expensive\u2014but not <a href="https://www.apc.com/products/resource/include/techspec_index.cfm?base_sku=BGE70&#38;tab=models" target="_blank">APC's new tiny and cheap Back-UPS Connect 70</a>.</p><p><a href="http://gizmodo.com/this-compact-device-keeps-small-electronics-running-on-1602391682">Read more...</a></p><img border="0" height="1" src="http://gizmodo.feedsportal.com/c/34976/f/647164/s/3c615986/sc/5/mf.gif" width="1" /><br clear="all" /><br /><br /><a href="http://da.feedsportal.com/r/199109385641/u/94/f/647164/c/34976/s/3c615986/sc/5/rc/1/rc.htm" rel="nofollow"><img border="0" src="http://da.feedsportal.com/r/199109385641/u/94/f/647164/c/34976/s/3c615986/sc/5/rc/1/rc.img" /></a><br /><a href="http://da.feedsportal.com/r/199109385641/u/94/f/647164/c/34976/s/3c615986/sc/5/rc/2/rc.htm" rel="nofollow"><img border="0" src="http://da.feedsportal.com/r/199109385641/u/94/f/647164/c/34976/s/3c615986/sc/5/rc/2/rc.img" /></a><br /><a href="http://da.feedsportal.com/r/199109385641/u/94/f/647164/c/34976/s/3c615986/sc/5/rc/3/rc.htm" rel="nofollow"><img border="0" src="http://da.feedsportal.com/r/199109385641/u/94/f/647164/c/34976/s/3c615986/sc/5/rc/3/rc.img" /></a><br /><br /><a href="http://da.feedsportal.com/r/199109385641/u/94/f/647164/c/34976/s/3c615986/sc/5/a2.htm"><img border="0" src="http://da.feedsportal.com/r/199109385641/u/94/f/647164/c/34976/s/3c615986/sc/5/a2.img" /></a><img border="0" height="1" src="http://pi.feedsportal.com/r/199109385641/u/94/f/647164/c/34976/s/3c615986/sc/5/a2t.img" width="1" /><img height="1" src="http://feeds.feedburner.com/~r/gizmodo/full/~4/vzlJVzd36SY" width="1" />
p278
stRp279
sg22
(lp280
g1
(g2
g3
(dp281
g25
Vhttp://feeds.gawker.com/~r/gizmodo/full/~3/vzlJVzd36SY/this-compact-device-keeps-small-electronics-running-on-1602391682
p282
sg27
g28
sg29
g30
stRp283
asg15
g16
((I2014
I7
I10
I22
I0
I0
I3
I191
I0
t(dtRp284
sg18
VThis Compact Device Keeps Small Electronics Running on Emergency Power
p285
sS'feedburner_origlink'
p286
Vhttp://gizmodo.com/this-compact-device-keeps-small-electronics-running-on-1602391682
p287
sg127
(lp288
g1
(g2
g3
(dp289
g130
Vbatteries
p290
sg132
Nsg133
NstRp291
ag1
(g2
g3
(dp292
g130
Vpower
p293
sg132
Nsg133
NstRp294
ag1
(g2
g3
(dp295
g130
Vapc
p296
sg132
Nsg133
NstRp297
ag1
(g2
g3
(dp298
g130
Vapc back-ups connect 70
p299
sg132
Nsg133
NstRp300
asg138
g278
sg139
I00
sS'title_detail'
p301
g1
(g2
g3
(dp302
g52
Vhttp://feeds.gawker.com/gizmodo/full
p303
sg27
g60
sg13
Nsg55
g285
stRp304
sg67
g282
sg144
VAndrew Liszewski
p305
sg20
VThu, 10 Jul 2014 22:00:00 GMT
p306
sg147
(lp307
g1
(g2
g3
(dtRp308
asS'author_detail'
p309
g1
(g2
g3
(dp310
g152
g305
stRp311
sg154
Vhttp://feeds.gawker.com/gizmodo/1602391682
p312
stRp313
ag1
(g2
g3
(dp314
S'summary_detail'
p315
g1
(g2
g3
(dp316
g52
Vhttp://feeds.gawker.com/gizmodo/full
p317
sg27
g54
sg13
Nsg55
V<p class="has-media media-640"><img alt="Why a Once-Hated 1980s Design Movement Is Making a Comeback" class="transform-ku-xlarge" height="458" src="http://i.kinja-img.com/gawker-media/image/upload/s--h2KvfKvs--/c_fit,fl_progressive,q_80,w_636/vtzmdijaxvcoglfwbscx.jpg" width="636" /></p> <p class="first-text"> Although you know it when you see it, it's hard to accurately describe Memphis design without resorting to specific 1980s pop cultural references. It's <em>Pee-Wee's Playhouse </em>meets <em>Miami Vice</em>. It's <em>Saved By The Bell</em> plus <em>Beetlejuice</em>. And it's all coming back, in a very big way.</p><p><a href="http://gizmodo.com/why-a-once-hated-1980s-design-movement-is-making-a-come-1602111413">Read more...</a></p><img border="0" height="1" src="http://gizmodo.feedsportal.com/c/34976/f/647164/s/3c614384/sc/4/mf.gif" width="1" /><br clear="all" /><br /><br /><a href="http://da.feedsportal.com/r/199120486931/u/94/f/647164/c/34976/s/3c614384/sc/4/rc/1/rc.htm" rel="nofollow"><img border="0" src="http://da.feedsportal.com/r/199120486931/u/94/f/647164/c/34976/s/3c614384/sc/4/rc/1/rc.img" /></a><br /><a href="http://da.feedsportal.com/r/199120486931/u/94/f/647164/c/34976/s/3c614384/sc/4/rc/2/rc.htm" rel="nofollow"><img border="0" src="http://da.feedsportal.com/r/199120486931/u/94/f/647164/c/34976/s/3c614384/sc/4/rc/2/rc.img" /></a><br /><a href="http://da.feedsportal.com/r/199120486931/u/94/f/647164/c/34976/s/3c614384/sc/4/rc/3/rc.htm" rel="nofollow"><img border="0" src="http://da.feedsportal.com/r/199120486931/u/94/f/647164/c/34976/s/3c614384/sc/4/rc/3/rc.img" /></a><br /><br /><a href="http://da.feedsportal.com/r/199120486931/u/94/f/647164/c/34976/s/3c614384/sc/4/a2.htm"><img border="0" src="http://da.feedsportal.com/r/199120486931/u/94/f/647164/c/34976/s/3c614384/sc/4/a2.img" /></a><img border="0" height="1" src="http://pi.feedsportal.com/r/199120486931/u/94/f/647164/c/34976/s/3c614384/sc/4/a2t.img" width="1" /><img height="1" src="http://feeds.feedburner.com/~r/gizmodo/full/~4/ehvkq3FsSt4" width="1" />
p318
stRp319
sg22
(lp320
g1
(g2
g3
(dp321
g25
Vhttp://feeds.gawker.com/~r/gizmodo/full/~3/ehvkq3FsSt4/why-a-once-hated-1980s-design-movement-is-making-a-come-1602111413
p322
sg27
g28
sg29
g30
stRp323
asg15
g16
((I2014
I7
I10
I21
I40
I0
I3
I191
I0
t(dtRp324
sg18
VWhy a Once-Hated 1980s Design Movement Is Making a Comeback
p325
sS'feedburner_origlink'
p326
Vhttp://gizmodo.com/why-a-once-hated-1980s-design-movement-is-making-a-come-1602111413
p327
sg127
(lp328
g1
(g2
g3
(dp329
g130
Vdesign
p330
sg132
Nsg133
NstRp331
ag1
(g2
g3
(dp332
g130
Vettore sottsass
p333
sg132
Nsg133
NstRp334
ag1
(g2
g3
(dp335
g130
Vmemphis
p336
sg132
Nsg133
NstRp337
ag1
(g2
g3
(dp338
g130
Varchitecture
p339
sg132
Nsg133
NstRp340
ag1
(g2
g3
(dp341
g130
Vfurniture
p342
sg132
Nsg133
NstRp343
asg138
g318
sg139
I00
sS'title_detail'
p344
g1
(g2
g3
(dp345
g52
Vhttp://feeds.gawker.com/gizmodo/full
p346
sg27
g60
sg13
Nsg55
g325
stRp347
sg67
g322
sg144
VAlissa Walker
p348
sg20
VThu, 10 Jul 2014 21:40:00 GMT
p349
sg147
(lp350
g1
(g2
g3
(dtRp351
asS'author_detail'
p352
g1
(g2
g3
(dp353
g152
g348
stRp354
sg154
Vhttp://feeds.gawker.com/gizmodo/1602111413
p355
stRp356
ag1
(g2
g3
(dp357
S'summary_detail'
p358
g1
(g2
g3
(dp359
g52
Vhttp://feeds.gawker.com/gizmodo/full
p360
sg27
g54
sg13
Nsg55
V<p class="has-media media-640"><img alt="In 1893, 2.5 million pounds of horse manure filled NYC streets per day" class="transform-ku-xlarge" height="379" src="http://i.kinja-img.com/gawker-media/image/upload/s--4ZCK21yd--/c_fit,fl_progressive,q_80,w_636/uqihtjbqxjqqzkymik7x.jpg" width="636" /></p> <p class="first-text"> Think New York summers are pungent now? Imagine what it must've smelled like at the turn of the 20th century. Before the introduction of the automobile, horses were leaving about 2.5 million pounds of shit in the streets per day.</p><p><a href="http://factually.gizmodo.com/in-1893-2-5-million-pounds-of-horse-manure-filled-nyc-1603208434/+kcampbelldollaghan">Read more...</a></p><img border="0" height="1" src="http://gizmodo.feedsportal.com/c/34976/f/647164/s/3c6192c0/sc/10/mf.gif" width="1" /><br clear="all" /><img height="1" src="http://feeds.feedburner.com/~r/gizmodo/full/~4/IM6XeBenfUI" width="1" />
p361
stRp362
sg22
(lp363
g1
(g2
g3
(dp364
g25
Vhttp://feeds.gawker.com/~r/gizmodo/full/~3/IM6XeBenfUI/+kcampbelldollaghan
p365
sg27
g28
sg29
g30
stRp366
asg15
g16
((I2014
I7
I10
I21
I30
I0
I3
I191
I0
t(dtRp367
sg18
VIn 1893, 2.5 million pounds of horse manure filled NYC streets per day
p368
sS'feedburner_origlink'
p369
Vhttp://factually.gizmodo.com/in-1893-2-5-million-pounds-of-horse-manure-filled-nyc-1603208434/+kcampbelldollaghan
p370
sg127
(lp371
g1
(g2
g3
(dp372
g130
Vnew york city
p373
sg132
Nsg133
NstRp374
ag1
(g2
g3
(dp375
g130
Vsmells
p376
sg132
Nsg133
NstRp377
ag1
(g2
g3
(dp378
g130
Vtransportation
p379
sg132
Nsg133
NstRp380
ag1
(g2
g3
(dp381
g130
Vhorses
p382
sg132
Nsg133
NstRp383
ag1
(g2
g3
(dp384
g130
Vautomobiles
p385
sg132
Nsg133
NstRp386
ag1
(g2
g3
(dp387
g130
Vcars
p388
sg132
Nsg133
NstRp389
asg138
g361
sg139
I00
sS'title_detail'
p390
g1
(g2
g3
(dp391
g52
Vhttp://feeds.gawker.com/gizmodo/full
p392
sg27
g60
sg13
Nsg55
g368
stRp393
sg67
g365
sg144
VMatt Novak on Factually, shared by Kelsey Campbell-Dollaghan to Gizmodo
p394
sg20
VThu, 10 Jul 2014 21:30:00 GMT
p395
sg147
(lp396
g1
(g2
g3
(dtRp397
asS'author_detail'
p398
g1
(g2
g3
(dp399
g152
g394
stRp400
sg154
Vhttp://feeds.gawker.com/gizmodo/1603208434
p401
stRp402
ag1
(g2
g3
(dp403
S'summary_detail'
p404
g1
(g2
g3
(dp405
g52
Vhttp://feeds.gawker.com/gizmodo/full
p406
sg27
g54
sg13
Nsg55
V<p class="has-media media-640"><img alt="The First Core i3-Powered Chromebook Is Ready for Preorder" class="transform-ku-xlarge" height="288" src="http://i.kinja-img.com/gawker-media/image/upload/s--zvJC69NN--/c_fit,fl_progressive,q_80,w_636/btviq6r5bthlbs86l9ul.jpg" width="636" /></p> <p class="first-text">We've been expecting <a href="http://gizmodo.com/this-new-generation-of-chromebooks-packs-celeron-proces-1572224028">a new batch of Intel-powered chromebooks</a>  since May, and the first one is here: meet the <a href="http://us.acer.com/ac/en/US/content/model/NX.SHEAA.018" target="_blank">Acer C720</a>, the first to pack a full-on Core i3 processor in addition to up to 4GB of RAM, and 32GB of storage. Pretty muscular for a browser-based device.</p><p><a href="http://gizmodo.com/acer-brings-the-first-core-i3-powered-chromebook-out-fo-1603212908">Read more...</a></p><img border="0" height="1" src="http://gizmodo.feedsportal.com/c/34976/f/647164/s/3c610a43/sc/28/mf.gif" width="1" /><br clear="all" /><br /><br /><a href="http://da.feedsportal.com/r/199107907438/u/94/f/647164/c/34976/s/3c610a43/sc/28/rc/1/rc.htm" rel="nofollow"><img border="0" src="http://da.feedsportal.com/r/199107907438/u/94/f/647164/c/34976/s/3c610a43/sc/28/rc/1/rc.img" /></a><br /><a href="http://da.feedsportal.com/r/199107907438/u/94/f/647164/c/34976/s/3c610a43/sc/28/rc/2/rc.htm" rel="nofollow"><img border="0" src="http://da.feedsportal.com/r/199107907438/u/94/f/647164/c/34976/s/3c610a43/sc/28/rc/2/rc.img" /></a><br /><a href="http://da.feedsportal.com/r/199107907438/u/94/f/647164/c/34976/s/3c610a43/sc/28/rc/3/rc.htm" rel="nofollow"><img border="0" src="http://da.feedsportal.com/r/199107907438/u/94/f/647164/c/34976/s/3c610a43/sc/28/rc/3/rc.img" /></a><br /><br /><a href="http://da.feedsportal.com/r/199107907438/u/94/f/647164/c/34976/s/3c610a43/sc/28/a2.htm"><img border="0" src="http://da.feedsportal.com/r/199107907438/u/94/f/647164/c/34976/s/3c610a43/sc/28/a2.img" /></a><img border="0" height="1" src="http://pi.feedsportal.com/r/199107907438/u/94/f/647164/c/34976/s/3c610a43/sc/28/a2t.img" width="1" /><img height="1" src="http://feeds.feedburner.com/~r/gizmodo/full/~4/CuyfC0_af1Y" width="1" />
p407
stRp408
sg22
(lp409
g1
(g2
g3
(dp410
g25
Vhttp://feeds.gawker.com/~r/gizmodo/full/~3/CuyfC0_af1Y/acer-brings-the-first-core-i3-powered-chromebook-out-fo-1603212908
p411
sg27
g28
sg29
g30
stRp412
asg15
g16
((I2014
I7
I10
I21
I29
I0
I3
I191
I0
t(dtRp413
sg18
VThe First Core i3-Powered Chromebook Is Ready for Preorder
p414
sS'feedburner_origlink'
p415
Vhttp://gizmodo.com/acer-brings-the-first-core-i3-powered-chromebook-out-fo-1603212908
p416
sg127
(lp417
g1
(g2
g3
(dp418
g130
Vchromebooks
p419
sg132
Nsg133
NstRp420
ag1
(g2
g3
(dp421
g130
Vacer c720
p422
sg132
Nsg133
NstRp423
ag1
(g2
g3
(dp424
g130
Vpixel
p425
sg132
Nsg133
NstRp426
ag1
(g2
g3
(dp427
g130
Vchromebook
p428
sg132
Nsg133
NstRp429
ag1
(g2
g3
(dp430
g130
Vchromebook pixel
p431
sg132
Nsg133
NstRp432
ag1
(g2
g3
(dp433
g130
Vacer
p434
sg132
Nsg133
NstRp435
asg138
g407
sg139
I00
sS'title_detail'
p436
g1
(g2
g3
(dp437
g52
Vhttp://feeds.gawker.com/gizmodo/full
p438
sg27
g60
sg13
Nsg55
g414
stRp439
sg67
g411
sg144
VRobert Sorokanich
p440
sg20
VThu, 10 Jul 2014 21:29:00 GMT
p441
sg147
(lp442
g1
(g2
g3
(dtRp443
asS'author_detail'
p444
g1
(g2
g3
(dp445
g152
g440
stRp446
sg154
Vhttp://feeds.gawker.com/gizmodo/1603212908
p447
stRp448
ag1
(g2
g3
(dp449
S'summary_detail'
p450
g1
(g2
g3
(dp451
g52
Vhttp://feeds.gawker.com/gizmodo/full
p452
sg27
g54
sg13
Nsg55
V<p class="has-media media-640"><img alt="Watch a Young Terry Gilliam Explain How He Makes Monty Python Animations" class="transform-ku-xlarge" height="298" src="http://i.kinja-img.com/gawker-media/image/upload/s--w3d_dljs--/c_fit,fl_progressive,q_80,w_636/z5qu1yu97o3kxyatkxu0.gif" width="636" /></p> <p class="first-text">There's a lot to love about vintage Monty Python\u2014dead parrots, silly walks, lumberjacks, killer rabbits\u2014but Terry Gilliam's magic touch with his signature cut-out animations really gave the group a goofball creative edge. In this clip from the early 1970s, a fresh-faced Gilliam (with an incredible 'do) describes his no-tech approach to the process. </p><p><a href="http://gizmodo.com/watch-a-young-terry-gilliam-explain-how-he-makes-monty-1603146449">Read more...</a></p><img border="0" height="1" src="http://gizmodo.feedsportal.com/c/34976/f/647164/s/3c610a45/sc/38/mf.gif" width="1" /><br clear="all" /><br /><br /><a href="http://da.feedsportal.com/r/199107907437/u/94/f/647164/c/34976/s/3c610a45/sc/38/rc/1/rc.htm" rel="nofollow"><img border="0" src="http://da.feedsportal.com/r/199107907437/u/94/f/647164/c/34976/s/3c610a45/sc/38/rc/1/rc.img" /></a><br /><a href="http://da.feedsportal.com/r/199107907437/u/94/f/647164/c/34976/s/3c610a45/sc/38/rc/2/rc.htm" rel="nofollow"><img border="0" src="http://da.feedsportal.com/r/199107907437/u/94/f/647164/c/34976/s/3c610a45/sc/38/rc/2/rc.img" /></a><br /><a href="http://da.feedsportal.com/r/199107907437/u/94/f/647164/c/34976/s/3c610a45/sc/38/rc/3/rc.htm" rel="nofollow"><img border="0" src="http://da.feedsportal.com/r/199107907437/u/94/f/647164/c/34976/s/3c610a45/sc/38/rc/3/rc.img" /></a><br /><br /><a href="http://da.feedsportal.com/r/199107907437/u/94/f/647164/c/34976/s/3c610a45/sc/38/a2.htm"><img border="0" src="http://da.feedsportal.com/r/199107907437/u/94/f/647164/c/34976/s/3c610a45/sc/38/a2.img" /></a><img border="0" height="1" src="http://pi.feedsportal.com/r/199107907437/u/94/f/647164/c/34976/s/3c610a45/sc/38/a2t.img" width="1" /><img height="1" src="http://feeds.feedburner.com/~r/gizmodo/full/~4/mCEGE8GO5m0" width="1" />
p453
stRp454
sg22
(lp455
g1
(g2
g3
(dp456
g25
Vhttp://feeds.gawker.com/~r/gizmodo/full/~3/mCEGE8GO5m0/watch-a-young-terry-gilliam-explain-how-he-makes-monty-1603146449
p457
sg27
g28
sg29
g30
stRp458
asg15
g16
((I2014
I7
I10
I21
I20
I0
I3
I191
I0
t(dtRp459
sg18
VWatch a Young Terry Gilliam Explain How He Makes Monty Python Animations
p460
sS'feedburner_origlink'
p461
Vhttp://gizmodo.com/watch-a-young-terry-gilliam-explain-how-he-makes-monty-1603146449
p462
sg127
(lp463
g1
(g2
g3
(dp464
g130
Vanimation
p465
sg132
Nsg133
NstRp466
ag1
(g2
g3
(dp467
g130
Vterry gilliam
p468
sg132
Nsg133
NstRp469
ag1
(g2
g3
(dp470
g130
Vmonty python
p471
sg132
Nsg133
NstRp472
asg138
g453
sg139
I00
sS'title_detail'
p473
g1
(g2
g3
(dp474
g52
Vhttp://feeds.gawker.com/gizmodo/full
p475
sg27
g60
sg13
Nsg55
g460
stRp476
sg67
g457
sg144
VJordan Kushins
p477
sg20
VThu, 10 Jul 2014 21:20:00 GMT
p478
sg147
(lp479
g1
(g2
g3
(dtRp480
asS'author_detail'
p481
g1
(g2
g3
(dp482
g152
g477
stRp483
sg154
Vhttp://feeds.gawker.com/gizmodo/1603146449
p484
stRp485
ag1
(g2
g3
(dp486
S'summary_detail'
p487
g1
(g2
g3
(dp488
g52
Vhttp://feeds.gawker.com/gizmodo/full
p489
sg27
g54
sg13
Nsg55
V<p class="has-media media-640"><img alt="Columbia Designed This Camo To Make Anglers Invisible To Fish" class="transform-ku-xlarge" height="288" src="http://i.kinja-img.com/gawker-media/image/upload/s--pbXAARSv--/c_fit,fl_progressive,q_80,w_636/dvcf5fnyzpsxnxkhq8b0.gif" width="636" /></p> <p class="first-text">Hunters wear camouflage clothing from head to toe to blend in with their surroundings and sneak up on their prey. But fisherman never do, so Columbia has designed color-changing shirt with what it's calling a <a href="http://gearjunkie.com/columbia-sportswear-jackets-2015" target="_blank">'Solar Camo' pattern</a> that only appears in the warmth of sunlight, helping anglers avoid being spotted and scaring the fish they're after.</p><p><a href="http://gizmodo.com/columbia-designed-this-camo-to-make-anglers-invisible-t-1602923582">Read more...</a></p><img border="0" height="1" src="http://gizmodo.feedsportal.com/c/34976/f/647164/s/3c6107fd/sc/10/mf.gif" width="1" /><br clear="all" /><br /><br /><a href="http://da.feedsportal.com/r/199107907213/u/94/f/647164/c/34976/s/3c6107fd/sc/10/rc/1/rc.htm" rel="nofollow"><img border="0" src="http://da.feedsportal.com/r/199107907213/u/94/f/647164/c/34976/s/3c6107fd/sc/10/rc/1/rc.img" /></a><br /><a href="http://da.feedsportal.com/r/199107907213/u/94/f/647164/c/34976/s/3c6107fd/sc/10/rc/2/rc.htm" rel="nofollow"><img border="0" src="http://da.feedsportal.com/r/199107907213/u/94/f/647164/c/34976/s/3c6107fd/sc/10/rc/2/rc.img" /></a><br /><a href="http://da.feedsportal.com/r/199107907213/u/94/f/647164/c/34976/s/3c6107fd/sc/10/rc/3/rc.htm" rel="nofollow"><img border="0" src="http://da.feedsportal.com/r/199107907213/u/94/f/647164/c/34976/s/3c6107fd/sc/10/rc/3/rc.img" /></a><br /><br /><a href="http://da.feedsportal.com/r/199107907213/u/94/f/647164/c/34976/s/3c6107fd/sc/10/a2.htm"><img border="0" src="http://da.feedsportal.com/r/199107907213/u/94/f/647164/c/34976/s/3c6107fd/sc/10/a2.img" /></a><img border="0" height="1" src="http://pi.feedsportal.com/r/199107907213/u/94/f/647164/c/34976/s/3c6107fd/sc/10/a2t.img" width="1" /><img height="1" src="http://feeds.feedburner.com/~r/gizmodo/full/~4/IzHYszwDkRw" width="1" />
p490
stRp491
sg22
(lp492
g1
(g2
g3
(dp493
g25
Vhttp://feeds.gawker.com/~r/gizmodo/full/~3/IzHYszwDkRw/columbia-designed-this-camo-to-make-anglers-invisible-t-1602923582
p494
sg27
g28
sg29
g30
stRp495
asg15
g16
((I2014
I7
I10
I21
I0
I0
I3
I191
I0
t(dtRp496
sg18
VColumbia Designed This Camo To Make Anglers Invisible To Fish
p497
sS'feedburner_origlink'
p498
Vhttp://gizmodo.com/columbia-designed-this-camo-to-make-anglers-invisible-t-1602923582
p499
sg127
(lp500
g1
(g2
g3
(dp501
g130
Vdaily desired
p502
sg132
Nsg133
NstRp503
ag1
(g2
g3
(dp504
g130
Vcamping
p505
sg132
Nsg133
NstRp506
ag1
(g2
g3
(dp507
g130
Vclothing
p508
sg132
Nsg133
NstRp509
ag1
(g2
g3
(dp510
g130
Vfishing
p511
sg132
Nsg133
NstRp512
ag1
(g2
g3
(dp513
g130
Vcamouflage
p514
sg132
Nsg133
NstRp515
asg138
g490
sg139
I00
sS'title_detail'
p516
g1
(g2
g3
(dp517
g52
Vhttp://feeds.gawker.com/gizmodo/full
p518
sg27
g60
sg13
Nsg55
g497
stRp519
sg67
g494
sg144
VAndrew Liszewski
p520
sg20
VThu, 10 Jul 2014 21:00:00 GMT
p521
sg147
(lp522
g1
(g2
g3
(dtRp523
asS'author_detail'
p524
g1
(g2
g3
(dp525
g152
g520
stRp526
sg154
Vhttp://feeds.gawker.com/gizmodo/1602923582
p527
stRp528
ag1
(g2
g3
(dp529
S'summary_detail'
p530
g1
(g2
g3
(dp531
g52
Vhttp://feeds.gawker.com/gizmodo/full
p532
sg27
g54
sg13
Nsg55
V<p class="has-media media-640"><img alt="The Rotating Building Where the Offices of the Future Will Be Tested" class="transform-ku-xlarge" height="288" src="http://i.kinja-img.com/gawker-media/image/upload/s--EBIDbgh---/c_fit,fl_progressive,q_80,w_636/pni20ussforzmc7st5nl.jpg" width="636" /></p> <p class="first-text">High up in the hills of Lawrence Berkeley National Laboratory sit four square, blue buildings you'd be forgiven for finding nondescript. Inside, they're decorated with drab gray carpet familiar to any cubicle worker. But it's the buildings' electronic guts that make them unique in the whole world. These labs\u2014including one that rotates 270 degrees\u2014are where office buildings of the future will be tested. </p><p><a href="http://gizmodo.com/the-rotating-building-where-the-offices-of-the-future-w-1602471614">Read more...</a></p><img border="0" height="1" src="http://gizmodo.feedsportal.com/c/34976/f/647164/s/3c601d73/sc/10/mf.gif" width="1" /><br clear="all" /><br /><br /><a href="http://da.feedsportal.com/r/199120597461/u/94/f/647164/c/34976/s/3c601d73/sc/10/rc/1/rc.htm" rel="nofollow"><img border="0" src="http://da.feedsportal.com/r/199120597461/u/94/f/647164/c/34976/s/3c601d73/sc/10/rc/1/rc.img" /></a><br /><a href="http://da.feedsportal.com/r/199120597461/u/94/f/647164/c/34976/s/3c601d73/sc/10/rc/2/rc.htm" rel="nofollow"><img border="0" src="http://da.feedsportal.com/r/199120597461/u/94/f/647164/c/34976/s/3c601d73/sc/10/rc/2/rc.img" /></a><br /><a href="http://da.feedsportal.com/r/199120597461/u/94/f/647164/c/34976/s/3c601d73/sc/10/rc/3/rc.htm" rel="nofollow"><img border="0" src="http://da.feedsportal.com/r/199120597461/u/94/f/647164/c/34976/s/3c601d73/sc/10/rc/3/rc.img" /></a><br /><br /><a href="http://da.feedsportal.com/r/199120597461/u/94/f/647164/c/34976/s/3c601d73/sc/10/a2.htm"><img border="0" src="http://da.feedsportal.com/r/199120597461/u/94/f/647164/c/34976/s/3c601d73/sc/10/a2.img" /></a><img border="0" height="1" src="http://pi.feedsportal.com/r/199120597461/u/94/f/647164/c/34976/s/3c601d73/sc/10/a2t.img" width="1" /><img height="1" src="http://feeds.feedburner.com/~r/gizmodo/full/~4/L7KnHP4NQ9Y" width="1" />
p533
stRp534
sg22
(lp535
g1
(g2
g3
(dp536
g25
Vhttp://feeds.gawker.com/~r/gizmodo/full/~3/L7KnHP4NQ9Y/the-rotating-building-where-the-offices-of-the-future-w-1602471614
p537
sg27
g28
sg29
g30
stRp538
asg15
g16
((I2014
I7
I10
I20
I41
I0
I3
I191
I0
t(dtRp539
sg18
VThe Rotating Building Where the Offices of the Future Will Be Tested
p540
sS'feedburner_origlink'
p541
Vhttp://gizmodo.com/the-rotating-building-where-the-offices-of-the-future-w-1602471614
p542
sg127
(lp543
g1
(g2
g3
(dp544
g130
Venergy
p545
sg132
Nsg133
NstRp546
ag1
(g2
g3
(dp547
g130
Vbuildings
p548
sg132
Nsg133
NstRp549
ag1
(g2
g3
(dp550
g130
Varchitecture
p551
sg132
Nsg133
NstRp552
asg138
g533
sg139
I00
sS'title_detail'
p553
g1
(g2
g3
(dp554
g52
Vhttp://feeds.gawker.com/gizmodo/full
p555
sg27
g60
sg13
Nsg55
g540
stRp556
sg67
g537
sg144
VSarah Zhang
p557
sg20
VThu, 10 Jul 2014 20:41:00 GMT
p558
sg147
(lp559
g1
(g2
g3
(dtRp560
asS'author_detail'
p561
g1
(g2
g3
(dp562
g152
g557
stRp563
sg154
Vhttp://feeds.gawker.com/gizmodo/1602471614
p564
stRp565
ag1
(g2
g3
(dp566
S'summary_detail'
p567
g1
(g2
g3
(dp568
g52
Vhttp://feeds.gawker.com/gizmodo/full
p569
sg27
g54
sg13
Nsg55
V<p class="has-media media-640"><img alt="The World's Largest LED Hydroponic Farm Used to Be a Sony Factory" class="transform-ku-xlarge" height="318" src="http://i.kinja-img.com/gawker-media/image/upload/s--qPV8yznX--/c_fit,fl_progressive,q_80,w_636/hs3ivcudleydonvqd9ga.jpg" width="636" /></p> <p class="first-text">As climate change begins posing new challenges to conventional outdoor food production methods, hydroponic farming has made quick gains in popularity thanks to its space- and energy-saving design. This enormous indoor lettuce farm for example\u2014the largest of its kind in the world\u2014produces 10,000 heads a day in less space than a single American football field and could signal a sea change in how we get our greens.</p><p><a href="http://gizmodo.com/the-worlds-largest-led-hydroponic-farm-used-to-be-a-son-1603082545">Read more...</a></p><img border="0" height="1" src="http://gizmodo.feedsportal.com/c/34976/f/647164/s/3c60ad40/sc/10/mf.gif" width="1" /><br clear="all" /><br /><br /><a href="http://da.feedsportal.com/r/199109383683/u/94/f/647164/c/34976/s/3c60ad40/sc/10/rc/1/rc.htm" rel="nofollow"><img border="0" src="http://da.feedsportal.com/r/199109383683/u/94/f/647164/c/34976/s/3c60ad40/sc/10/rc/1/rc.img" /></a><br /><a href="http://da.feedsportal.com/r/199109383683/u/94/f/647164/c/34976/s/3c60ad40/sc/10/rc/2/rc.htm" rel="nofollow"><img border="0" src="http://da.feedsportal.com/r/199109383683/u/94/f/647164/c/34976/s/3c60ad40/sc/10/rc/2/rc.img" /></a><br /><a href="http://da.feedsportal.com/r/199109383683/u/94/f/647164/c/34976/s/3c60ad40/sc/10/rc/3/rc.htm" rel="nofollow"><img border="0" src="http://da.feedsportal.com/r/199109383683/u/94/f/647164/c/34976/s/3c60ad40/sc/10/rc/3/rc.img" /></a><br /><br /><a href="http://da.feedsportal.com/r/199109383683/u/94/f/647164/c/34976/s/3c60ad40/sc/10/a2.htm"><img border="0" src="http://da.feedsportal.com/r/199109383683/u/94/f/647164/c/34976/s/3c60ad40/sc/10/a2.img" /></a><img border="0" height="1" src="http://pi.feedsportal.com/r/199109383683/u/94/f/647164/c/34976/s/3c60ad40/sc/10/a2t.img" width="1" /><img height="1" src="http://feeds.feedburner.com/~r/gizmodo/full/~4/d6X0idSNDU8" width="1" />
p570
stRp571
sg22
(lp572
g1
(g2
g3
(dp573
g25
Vhttp://feeds.gawker.com/~r/gizmodo/full/~3/d6X0idSNDU8/the-worlds-largest-led-hydroponic-farm-used-to-be-a-son-1603082545
p574
sg27
g28
sg29
g30
stRp575
asg15
g16
((I2014
I7
I10
I20
I20
I0
I3
I191
I0
t(dtRp576
sg18
VThe World's Largest LED Hydroponic Farm Used to Be a Sony Factory
p577
sS'feedburner_origlink'
p578
Vhttp://gizmodo.com/the-worlds-largest-led-hydroponic-farm-used-to-be-a-son-1603082545
p579
sg127
(lp580
g1
(g2
g3
(dp581
g130
Vge
p582
sg132
Nsg133
NstRp583
ag1
(g2
g3
(dp584
g130
Vjapan
p585
sg132
Nsg133
NstRp586
ag1
(g2
g3
(dp587
g130
Vlighting
p588
sg132
Nsg133
NstRp589
ag1
(g2
g3
(dp590
g130
Vmirai
p591
sg132
Nsg133
NstRp592
ag1
(g2
g3
(dp593
g130
Vagriculture
p594
sg132
Nsg133
NstRp595
asg138
g570
sg139
I00
sS'title_detail'
p596
g1
(g2
g3
(dp597
g52
Vhttp://feeds.gawker.com/gizmodo/full
p598
sg27
g60
sg13
Nsg55
g577
stRp599
sg67
g574
sg144
VAndrew Tarantola
p600
sg20
VThu, 10 Jul 2014 20:20:00 GMT
p601
sg147
(lp602
g1
(g2
g3
(dtRp603
asS'author_detail'
p604
g1
(g2
g3
(dp605
g152
g600
stRp606
sg154
Vhttp://feeds.gawker.com/gizmodo/1603082545
p607
stRp608
ag1
(g2
g3
(dp609
S'summary_detail'
p610
g1
(g2
g3
(dp611
g52
Vhttp://feeds.gawker.com/gizmodo/full
p612
sg27
g54
sg13
Nsg55
V<p class="has-media media-640"><img alt="Rotimatic Hands-On: Yep, The Roti-a-Minute Magic Machine Is Awesome" class="transform-original" height="318" src="http://i.kinja-img.com/gawker-media/image/upload/s--ERxoBF8Z--/805723156265163694.gif" width="636" /></p> <p class="first-text"> For about a billion people across the world, nothing is more fundamental to food than fresh, delicious roti. So it's unfortunate that a batch of five can take half an hour or more to make. But all that's about to be a thing of the past, thanks to the Rotimatic:<a href="http://gizmodo.com/forget-a-bread-maker-this-machine-churns-out-fresh-rot-1452183402"> The first fully-automated appliance that can churn out one roti every minute</a> \u2014and Gizmodo recently got to see it in action. </p><p><a href="http://gizmodo.com/hands-on-with-the-magic-machine-that-churns-out-roti-by-1602669092">Read more...</a></p><img border="0" height="1" src="http://gizmodo.feedsportal.com/c/34976/f/647164/s/3c606a62/sc/10/mf.gif" width="1" /><br clear="all" /><br /><br /><a href="http://da.feedsportal.com/r/199120259883/u/94/f/647164/c/34976/s/3c606a62/sc/10/rc/1/rc.htm" rel="nofollow"><img border="0" src="http://da.feedsportal.com/r/199120259883/u/94/f/647164/c/34976/s/3c606a62/sc/10/rc/1/rc.img" /></a><br /><a href="http://da.feedsportal.com/r/199120259883/u/94/f/647164/c/34976/s/3c606a62/sc/10/rc/2/rc.htm" rel="nofollow"><img border="0" src="http://da.feedsportal.com/r/199120259883/u/94/f/647164/c/34976/s/3c606a62/sc/10/rc/2/rc.img" /></a><br /><a href="http://da.feedsportal.com/r/199120259883/u/94/f/647164/c/34976/s/3c606a62/sc/10/rc/3/rc.htm" rel="nofollow"><img border="0" src="http://da.feedsportal.com/r/199120259883/u/94/f/647164/c/34976/s/3c606a62/sc/10/rc/3/rc.img" /></a><br /><br /><a href="http://da.feedsportal.com/r/199120259883/u/94/f/647164/c/34976/s/3c606a62/sc/10/a2.htm"><img border="0" src="http://da.feedsportal.com/r/199120259883/u/94/f/647164/c/34976/s/3c606a62/sc/10/a2.img" /></a><img border="0" height="1" src="http://pi.feedsportal.com/r/199120259883/u/94/f/647164/c/34976/s/3c606a62/sc/10/a2t.img" width="1" /><img height="1" src="http://feeds.feedburner.com/~r/gizmodo/full/~4/__iSsSiqUVQ" width="1" />
p613
stRp614
sg22
(lp615
g1
(g2
g3
(dp616
g25
Vhttp://feeds.gawker.com/~r/gizmodo/full/~3/__iSsSiqUVQ/hands-on-with-the-magic-machine-that-churns-out-roti-by-1602669092
p617
sg27
g28
sg29
g30
stRp618
asg15
g16
((I2014
I7
I10
I20
I0
I0
I3
I191
I0
t(dtRp619
sg18
VRotimatic Hands-On: Yep, The Roti-a-Minute Magic Machine Is Awesome
p620
sS'feedburner_origlink'
p621
Vhttp://gizmodo.com/hands-on-with-the-magic-machine-that-churns-out-roti-by-1602669092
p622
sg127
(lp623
g1
(g2
g3
(dp624
g130
Vrotimatic
p625
sg132
Nsg133
NstRp626
ag1
(g2
g3
(dp627
g130
Vroti
p628
sg132
Nsg133
NstRp629
ag1
(g2
g3
(dp630
g130
Vappliances
p631
sg132
Nsg133
NstRp632
asg138
g613
sg139
I00
sS'title_detail'
p633
g1
(g2
g3
(dp634
g52
Vhttp://feeds.gawker.com/gizmodo/full
p635
sg27
g60
sg13
Nsg55
g620
stRp636
sg67
g617
sg144
VAshley Feinberg
p637
sg20
VThu, 10 Jul 2014 20:00:00 GMT
p638
sg147
(lp639
g1
(g2
g3
(dtRp640
asS'author_detail'
p641
g1
(g2
g3
(dp642
g152
g637
stRp643
sg154
Vhttp://feeds.gawker.com/gizmodo/1602669092
p644
stRp645
ag1
(g2
g3
(dp646
S'summary_detail'
p647
g1
(g2
g3
(dp648
g52
Vhttp://feeds.gawker.com/gizmodo/full
p649
sg27
g54
sg13
Nsg55
V<p class="has-media media-640"><img alt="171 reasons why the Matrix Reloaded was crap" class="transform-original" height="236" src="http://i.kinja-img.com/gawker-media/image/upload/s--x6R7SJyC--/s2hoqg0ljaj4okfcmryl.gif" width="636" /></p> <p class="first-text">After the first <em>Matrix</em>\u2014<a href="http://gizmodo.com/everything-wrong-with-the-matrix-just-kidding-the-matr-1563553018" target="_blank">a movie not without fault </a> but at least entertaining and unique in its aesthetic\u2014the entire franchise went to hell. Matrix Reloaded was particularly offensive, even with Monica Bellucci.</p><p><a href="http://sploid.gizmodo.com/after-the-first-em-matrix-em-a-movie-not-without-fau-1603148142/+caseychan">Read more...</a></p><img border="0" height="1" src="http://gizmodo.feedsportal.com/c/34976/f/647164/s/3c61afe9/sc/19/mf.gif" width="1" /><br clear="all" /><img height="1" src="http://feeds.feedburner.com/~r/gizmodo/full/~4/KR9a8Hb77JY" width="1" />
p650
stRp651
sg22
(lp652
g1
(g2
g3
(dp653
g25
Vhttp://feeds.gawker.com/~r/gizmodo/full/~3/KR9a8Hb77JY/+caseychan
p654
sg27
g28
sg29
g30
stRp655
asg15
g16
((I2014
I7
I10
I19
I53
I0
I3
I191
I0
t(dtRp656
sg18
V171 reasons why the Matrix Reloaded was crap
p657
sS'feedburner_origlink'
p658
Vhttp://sploid.gizmodo.com/after-the-first-em-matrix-em-a-movie-not-without-fau-1603148142/+caseychan
p659
sg127
(lp660
g1
(g2
g3
(dp661
g130
Vcrap
p662
sg132
Nsg133
NstRp663
ag1
(g2
g3
(dp664
g130
Vfun
p665
sg132
Nsg133
NstRp666
ag1
(g2
g3
(dp667
g130
Vmatrix reloaded
p668
sg132
Nsg133
NstRp669
asg138
g650
sg139
I00
sS'title_detail'
p670
g1
(g2
g3
(dp671
g52
Vhttp://feeds.gawker.com/gizmodo/full
p672
sg27
g60
sg13
Nsg55
g657
stRp673
sg67
g654
sg144
VJesus Diaz on Sploid, shared by Casey Chan to Gizmodo
p674
sg20
VThu, 10 Jul 2014 19:53:00 GMT
p675
sg147
(lp676
g1
(g2
g3
(dtRp677
asS'author_detail'
p678
g1
(g2
g3
(dp679
g152
g674
stRp680
sg154
Vhttp://feeds.gawker.com/gizmodo/1603148142
p681
stRp682
ag1
(g2
g3
(dp683
S'summary_detail'
p684
g1
(g2
g3
(dp685
g52
Vhttp://feeds.gawker.com/gizmodo/full
p686
sg27
g54
sg13
Nsg55
V<p class="has-media media-640"><img alt="After Two Years, Baby " class="transform-original" height="357" src="http://i.kinja-img.com/gawker-media/image/upload/s--_NqHf2vl--/805746195927332241.jpg" width="636" /></p> <p class="first-text">The "Mississippi Baby,"<a href="http://gizmodo.com/5988205/report-baby-cured-of-hiv"> born with HIV</a>  and treated with antiretroviral drugs immediately after birth, showed no evidence of HIV after two years without treatment. Now the child <a href="http://www.niaid.nih.gov/news/newsreleases/2014/Pages/MississippiBabyHIV.aspx" target="_blank">has detectable levels of the virus once again</a>. It's a sad conclusion to what seemed like an extremely promising new way to treat this vicious disease.</p><p><a href="http://gizmodo.com/after-two-years-baby-cured-of-hiv-is-showing-detecta-1603137602">Read more...</a></p><img border="0" height="1" src="http://gizmodo.feedsportal.com/c/34976/f/647164/s/3c602b2d/sc/38/mf.gif" width="1" /><br clear="all" /><br /><br /><a href="http://da.feedsportal.com/r/199120599111/u/94/f/647164/c/34976/s/3c602b2d/sc/38/rc/1/rc.htm" rel="nofollow"><img border="0" src="http://da.feedsportal.com/r/199120599111/u/94/f/647164/c/34976/s/3c602b2d/sc/38/rc/1/rc.img" /></a><br /><a href="http://da.feedsportal.com/r/199120599111/u/94/f/647164/c/34976/s/3c602b2d/sc/38/rc/2/rc.htm" rel="nofollow"><img border="0" src="http://da.feedsportal.com/r/199120599111/u/94/f/647164/c/34976/s/3c602b2d/sc/38/rc/2/rc.img" /></a><br /><a href="http://da.feedsportal.com/r/199120599111/u/94/f/647164/c/34976/s/3c602b2d/sc/38/rc/3/rc.htm" rel="nofollow"><img border="0" src="http://da.feedsportal.com/r/199120599111/u/94/f/647164/c/34976/s/3c602b2d/sc/38/rc/3/rc.img" /></a><br /><br /><a href="http://da.feedsportal.com/r/199120599111/u/94/f/647164/c/34976/s/3c602b2d/sc/38/a2.htm"><img border="0" src="http://da.feedsportal.com/r/199120599111/u/94/f/647164/c/34976/s/3c602b2d/sc/38/a2.img" /></a><img border="0" height="1" src="http://pi.feedsportal.com/r/199120599111/u/94/f/647164/c/34976/s/3c602b2d/sc/38/a2t.img" width="1" /><img height="1" src="http://feeds.feedburner.com/~r/gizmodo/full/~4/FtCcfHBwbmk" width="1" />
p687
stRp688
sg22
(lp689
g1
(g2
g3
(dp690
g25
Vhttp://feeds.gawker.com/~r/gizmodo/full/~3/FtCcfHBwbmk/after-two-years-baby-cured-of-hiv-is-showing-detecta-1603137602
p691
sg27
g28
sg29
g30
stRp692
asg15
g16
((I2014
I7
I10
I19
I36
I0
I3
I191
I0
t(dtRp693
sg18
VAfter Two Years, Baby "Cured" of HIV Is Showing Detectable Virus Levels
p694
sS'feedburner_origlink'
p695
Vhttp://gizmodo.com/after-two-years-baby-cured-of-hiv-is-showing-detecta-1603137602
p696
sg127
(lp697
g1
(g2
g3
(dp698
g130
Vhiv
p699
sg132
Nsg133
NstRp700
ag1
(g2
g3
(dp701
g130
Vaids
p702
sg132
Nsg133
NstRp703
ag1
(g2
g3
(dp704
g130
Vmississippi baby
p705
sg132
Nsg133
NstRp706
asg138
g687
sg139
I00
sS'title_detail'
p707
g1
(g2
g3
(dp708
g52
Vhttp://feeds.gawker.com/gizmodo/full
p709
sg27
g60
sg13
Nsg55
g694
stRp710
sg67
g691
sg144
VRobert Sorokanich
p711
sg20
VThu, 10 Jul 2014 19:36:00 GMT
p712
sg147
(lp713
g1
(g2
g3
(dtRp714
asS'author_detail'
p715
g1
(g2
g3
(dp716
g152
g711
stRp717
sg154
Vhttp://feeds.gawker.com/gizmodo/1603137602
p718
stRp719
ag1
(g2
g3
(dp720
S'summary_detail'
p721
g1
(g2
g3
(dp722
g52
Vhttp://feeds.gawker.com/gizmodo/full
p723
sg27
g54
sg13
Nsg55
V<p class="has-media media-640"><img alt="15 Dead Simple IFTTT Recipes That Will Make Your Life Way Easier" class="transform-ku-xlarge" height="288" src="http://i.kinja-img.com/gawker-media/image/upload/s--RBwNo92D--/c_fit,fl_progressive,q_80,w_636/plr2edlm0gj62kcaddqm.jpg" width="636" /></p> <p class="first-text"><a href="http://ifttt.com/" target="_blank">IFTTT</a>\u2014If This Then That\u2014is an automator that links different internet connected services (think: Gmail) and devices (think: your smartphone). After turning on each service, or channel, you can use it as a trigger for another service, or vice versa. It may sound complicated, but it's actually a nice, intuitive way to simplify your life. Here's where to get started.</p><p><a href="http://gizmodo.com/15-dead-simple-ifttt-recipes-that-will-make-your-life-w-1602936347">Read more...</a></p><img border="0" height="1" src="http://gizmodo.feedsportal.com/c/34976/f/647164/s/3c607fb8/sc/46/mf.gif" width="1" /><br clear="all" /><br /><br /><a href="http://da.feedsportal.com/r/199107905074/u/94/f/647164/c/34976/s/3c607fb8/sc/46/rc/1/rc.htm" rel="nofollow"><img border="0" src="http://da.feedsportal.com/r/199107905074/u/94/f/647164/c/34976/s/3c607fb8/sc/46/rc/1/rc.img" /></a><br /><a href="http://da.feedsportal.com/r/199107905074/u/94/f/647164/c/34976/s/3c607fb8/sc/46/rc/2/rc.htm" rel="nofollow"><img border="0" src="http://da.feedsportal.com/r/199107905074/u/94/f/647164/c/34976/s/3c607fb8/sc/46/rc/2/rc.img" /></a><br /><a href="http://da.feedsportal.com/r/199107905074/u/94/f/647164/c/34976/s/3c607fb8/sc/46/rc/3/rc.htm" rel="nofollow"><img border="0" src="http://da.feedsportal.com/r/199107905074/u/94/f/647164/c/34976/s/3c607fb8/sc/46/rc/3/rc.img" /></a><br /><br /><a href="http://da.feedsportal.com/r/199107905074/u/94/f/647164/c/34976/s/3c607fb8/sc/46/a2.htm"><img border="0" src="http://da.feedsportal.com/r/199107905074/u/94/f/647164/c/34976/s/3c607fb8/sc/46/a2.img" /></a><img border="0" height="1" src="http://pi.feedsportal.com/r/199107905074/u/94/f/647164/c/34976/s/3c607fb8/sc/46/a2t.img" width="1" /><img height="1" src="http://feeds.feedburner.com/~r/gizmodo/full/~4/xhZN8U5IUE4" width="1" />
p724
stRp725
sg22
(lp726
g1
(g2
g3
(dp727
g25
Vhttp://feeds.gawker.com/~r/gizmodo/full/~3/xhZN8U5IUE4/15-dead-simple-ifttt-recipes-that-will-make-your-life-w-1602936347
p728
sg27
g28
sg29
g30
stRp729
asg15
g16
((I2014
I7
I10
I19
I20
I0
I3
I191
I0
t(dtRp730
sg18
V15 Dead Simple IFTTT Recipes That Will Make Your Life Way Easier
p731
sS'feedburner_origlink'
p732
Vhttp://gizmodo.com/15-dead-simple-ifttt-recipes-that-will-make-your-life-w-1602936347
p733
sg127
(lp734
g1
(g2
g3
(dp735
g130
Vifttt
p736
sg132
Nsg133
NstRp737
ag1
(g2
g3
(dp738
g130
Vhow to
p739
sg132
Nsg133
NstRp740
ag1
(g2
g3
(dp741
g130
Vweather
p742
sg132
Nsg133
NstRp743
ag1
(g2
g3
(dp744
g130
Vtips
p745
sg132
Nsg133
NstRp746
asg138
g724
sg139
I00
sS'title_detail'
p747
g1
(g2
g3
(dp748
g52
Vhttp://feeds.gawker.com/gizmodo/full
p749
sg27
g60
sg13
Nsg55
g731
stRp750
sg67
g728
sg144
VMario Aguilar
p751
sg20
VThu, 10 Jul 2014 19:20:00 GMT
p752
sg147
(lp753
g1
(g2
g3
(dtRp754
asS'author_detail'
p755
g1
(g2
g3
(dp756
g152
g751
stRp757
sg154
Vhttp://feeds.gawker.com/gizmodo/1602936347
p758
stRp759
ag1
(g2
g3
(dp760
S'summary_detail'
p761
g1
(g2
g3
(dp762
g52
Vhttp://feeds.gawker.com/gizmodo/full
p763
sg27
g54
sg13
Nsg55
V<p class="has-media media-640"><img alt="Each of These Images Is Smaller Than the Width of a Human Hair" class="transform-ku-xlarge" height="371" src="http://i.kinja-img.com/gawker-media/image/upload/s--tK5KVOCk--/c_fit,fl_progressive,q_80,w_636/wkdyqqhhim4a51mq0uli.jpg" width="636" /></p> <p class="first-text">Oxford scientists<a href="http://www.ox.ac.uk/news/2014-07-10-nano-pixels-promise-thin-flexible-high-res-displays" target="_blank"> just revealed a new kind of display technology</a> that can render images smaller than the width of a human hair. The detailed images you see above were rendered on these flexible, nano-pixel displays. Would you believe that each one is smaller than the width of a human hair? And that's only the beginning.</p><p><a href="http://gizmodo.com/each-of-these-images-is-smaller-than-the-width-of-a-hum-1603028407">Read more...</a></p><img border="0" height="1" src="http://gizmodo.feedsportal.com/c/34976/f/647164/s/3c5fe011/sc/4/mf.gif" width="1" /><br clear="all" /><br /><br /><a href="http://da.feedsportal.com/r/199107904769/u/94/f/647164/c/34976/s/3c5fe011/sc/4/rc/1/rc.htm" rel="nofollow"><img border="0" src="http://da.feedsportal.com/r/199107904769/u/94/f/647164/c/34976/s/3c5fe011/sc/4/rc/1/rc.img" /></a><br /><a href="http://da.feedsportal.com/r/199107904769/u/94/f/647164/c/34976/s/3c5fe011/sc/4/rc/2/rc.htm" rel="nofollow"><img border="0" src="http://da.feedsportal.com/r/199107904769/u/94/f/647164/c/34976/s/3c5fe011/sc/4/rc/2/rc.img" /></a><br /><a href="http://da.feedsportal.com/r/199107904769/u/94/f/647164/c/34976/s/3c5fe011/sc/4/rc/3/rc.htm" rel="nofollow"><img border="0" src="http://da.feedsportal.com/r/199107904769/u/94/f/647164/c/34976/s/3c5fe011/sc/4/rc/3/rc.img" /></a><br /><br /><a href="http://da.feedsportal.com/r/199107904769/u/94/f/647164/c/34976/s/3c5fe011/sc/4/a2.htm"><img border="0" src="http://da.feedsportal.com/r/199107904769/u/94/f/647164/c/34976/s/3c5fe011/sc/4/a2.img" /></a><img border="0" height="1" src="http://pi.feedsportal.com/r/199107904769/u/94/f/647164/c/34976/s/3c5fe011/sc/4/a2t.img" width="1" /><img height="1" src="http://feeds.feedburner.com/~r/gizmodo/full/~4/wGnAtL_MOic" width="1" />
p764
stRp765
sg22
(lp766
g1
(g2
g3
(dp767
g25
Vhttp://feeds.gawker.com/~r/gizmodo/full/~3/wGnAtL_MOic/each-of-these-images-is-smaller-than-the-width-of-a-hum-1603028407
p768
sg27
g28
sg29
g30
stRp769
asg15
g16
((I2014
I7
I10
I19
I0
I0
I3
I191
I0
t(dtRp770
sg18
VEach of These Images Is Smaller Than the Width of a Human Hair
p771
sS'feedburner_origlink'
p772
Vhttp://gizmodo.com/each-of-these-images-is-smaller-than-the-width-of-a-hum-1603028407
p773
sg127
(lp774
g1
(g2
g3
(dp775
g130
Vresearch
p776
sg132
Nsg133
NstRp777
ag1
(g2
g3
(dp778
g130
Voxford
p779
sg132
Nsg133
NstRp780
ag1
(g2
g3
(dp781
g130
Vdisplays
p782
sg132
Nsg133
NstRp783
ag1
(g2
g3
(dp784
g130
Vscience
p785
sg132
Nsg133
NstRp786
asg138
g764
sg139
I00
sS'title_detail'
p787
g1
(g2
g3
(dp788
g52
Vhttp://feeds.gawker.com/gizmodo/full
p789
sg27
g60
sg13
Nsg55
g771
stRp790
sg67
g768
sg144
VAdam Clark Estes
p791
sg20
VThu, 10 Jul 2014 19:00:00 GMT
p792
sg147
(lp793
g1
(g2
g3
(dtRp794
asS'author_detail'
p795
g1
(g2
g3
(dp796
g152
g791
stRp797
sg154
Vhttp://feeds.gawker.com/gizmodo/1603028407
p798
stRp799
ag1
(g2
g3
(dp800
S'summary_detail'
p801
g1
(g2
g3
(dp802
g52
Vhttp://feeds.gawker.com/gizmodo/full
p803
sg27
g54
sg13
Nsg55
V<p class="has-media media-640"><img alt="Delta Put the Most Useful Ad Ever Inside Uber Cars" class="transform-ku-xlarge" height="287" src="http://i.kinja-img.com/gawker-media/image/upload/s--H7sCRv9I--/c_fit,fl_progressive,q_80,w_636/kgayy6gfppuq3gmc73ty.jpg" width="636" /></p> <p class="first-text">To promote the fact that Delta has added USB ports to every seat on its long-haul international flights, the airline installed these clever ads\u2014as spotted by <a href="http://laughingsquid.com/delta-ad-campaign-adds-usb-ports-to-uber-cars-to-promote-availability-of-ubs-ports-on-long-haul-international-flights/" target="_blank">Laughing Squid's</a> Scott Beale\u2014in New York Uber taxis, giving them powered USB ports too so that passengers can recharge their phones.</p><p><a href="http://gizmodo.com/delta-put-the-most-useful-ad-ever-inside-uber-cars-1603097734">Read more...</a></p><img border="0" height="1" src="http://gizmodo.feedsportal.com/c/34976/f/647164/s/3c605afc/sc/10/mf.gif" width="1" /><br clear="all" /><br /><br /><a href="http://da.feedsportal.com/r/199120258153/u/94/f/647164/c/34976/s/3c605afc/sc/10/rc/1/rc.htm" rel="nofollow"><img border="0" src="http://da.feedsportal.com/r/199120258153/u/94/f/647164/c/34976/s/3c605afc/sc/10/rc/1/rc.img" /></a><br /><a href="http://da.feedsportal.com/r/199120258153/u/94/f/647164/c/34976/s/3c605afc/sc/10/rc/2/rc.htm" rel="nofollow"><img border="0" src="http://da.feedsportal.com/r/199120258153/u/94/f/647164/c/34976/s/3c605afc/sc/10/rc/2/rc.img" /></a><br /><a href="http://da.feedsportal.com/r/199120258153/u/94/f/647164/c/34976/s/3c605afc/sc/10/rc/3/rc.htm" rel="nofollow"><img border="0" src="http://da.feedsportal.com/r/199120258153/u/94/f/647164/c/34976/s/3c605afc/sc/10/rc/3/rc.img" /></a><br /><br /><a href="http://da.feedsportal.com/r/199120258153/u/94/f/647164/c/34976/s/3c605afc/sc/10/a2.htm"><img border="0" src="http://da.feedsportal.com/r/199120258153/u/94/f/647164/c/34976/s/3c605afc/sc/10/a2.img" /></a><img border="0" height="1" src="http://pi.feedsportal.com/r/199120258153/u/94/f/647164/c/34976/s/3c605afc/sc/10/a2t.img" width="1" /><img height="1" src="http://feeds.feedburner.com/~r/gizmodo/full/~4/IlujbkjeBtw" width="1" />
p804
stRp805
sg22
(lp806
g1
(g2
g3
(dp807
g25
Vhttp://feeds.gawker.com/~r/gizmodo/full/~3/IlujbkjeBtw/delta-put-the-most-useful-ad-ever-inside-uber-cars-1603097734
p808
sg27
g28
sg29
g30
stRp809
asg15
g16
((I2014
I7
I10
I18
I40
I0
I3
I191
I0
t(dtRp810
sg18
VDelta Put the Most Useful Ad Ever Inside Uber Cars
p811
sS'feedburner_origlink'
p812
Vhttp://gizmodo.com/delta-put-the-most-useful-ad-ever-inside-uber-cars-1603097734
p813
sg127
(lp814
g1
(g2
g3
(dp815
g130
Vusb
p816
sg132
Nsg133
NstRp817
ag1
(g2
g3
(dp818
g130
Vdelta
p819
sg132
Nsg133
NstRp820
ag1
(g2
g3
(dp821
g130
Vuber
p822
sg132
Nsg133
NstRp823
ag1
(g2
g3
(dp824
g130
Vadvertising
p825
sg132
Nsg133
NstRp826
asg138
g804
sg139
I00
sS'title_detail'
p827
g1
(g2
g3
(dp828
g52
Vhttp://feeds.gawker.com/gizmodo/full
p829
sg27
g60
sg13
Nsg55
g811
stRp830
sg67
g808
sg144
VAndrew Liszewski
p831
sg20
VThu, 10 Jul 2014 18:40:00 GMT
p832
sg147
(lp833
g1
(g2
g3
(dtRp834
asS'author_detail'
p835
g1
(g2
g3
(dp836
g152
g831
stRp837
sg154
Vhttp://feeds.gawker.com/gizmodo/1603097734
p838
stRp839
ag1
(g2
g3
(dp840
S'summary_detail'
p841
g1
(g2
g3
(dp842
g52
Vhttp://feeds.gawker.com/gizmodo/full
p843
sg27
g54
sg13
Nsg55
V<p class="has-media media-640"><img alt="Shooting Challenge: The 2014 World Cup" class="transform-ku-xlarge" height="424" src="http://i.kinja-img.com/gawker-media/image/upload/s--VXLPD6oL--/c_fit,fl_progressive,q_80,w_636/f0ocxjk0exqitvoxygzk.jpg" width="636" /></p> <p class="first-text">The World Cup is upon us, and this weekend, it comes to an end with one last match between Germany and Argentina. For this week's Shooting Challenge, we want to see your photos of this year's World Cup (even if it's just a viewing party from your couch!).</p><p><a href="http://gizmodo.com/shooting-challenge-the-2014-world-cup-1602961768">Read more...</a></p><img border="0" height="1" src="http://gizmodo.feedsportal.com/c/34976/f/647164/s/3c601d71/sc/13/mf.gif" width="1" /><br clear="all" /><br /><br /><a href="http://da.feedsportal.com/r/199120597462/u/94/f/647164/c/34976/s/3c601d71/sc/13/rc/1/rc.htm" rel="nofollow"><img border="0" src="http://da.feedsportal.com/r/199120597462/u/94/f/647164/c/34976/s/3c601d71/sc/13/rc/1/rc.img" /></a><br /><a href="http://da.feedsportal.com/r/199120597462/u/94/f/647164/c/34976/s/3c601d71/sc/13/rc/2/rc.htm" rel="nofollow"><img border="0" src="http://da.feedsportal.com/r/199120597462/u/94/f/647164/c/34976/s/3c601d71/sc/13/rc/2/rc.img" /></a><br /><a href="http://da.feedsportal.com/r/199120597462/u/94/f/647164/c/34976/s/3c601d71/sc/13/rc/3/rc.htm" rel="nofollow"><img border="0" src="http://da.feedsportal.com/r/199120597462/u/94/f/647164/c/34976/s/3c601d71/sc/13/rc/3/rc.img" /></a><br /><br /><a href="http://da.feedsportal.com/r/199120597462/u/94/f/647164/c/34976/s/3c601d71/sc/13/a2.htm"><img border="0" src="http://da.feedsportal.com/r/199120597462/u/94/f/647164/c/34976/s/3c601d71/sc/13/a2.img" /></a><img border="0" height="1" src="http://pi.feedsportal.com/r/199120597462/u/94/f/647164/c/34976/s/3c601d71/sc/13/a2t.img" width="1" /><img height="1" src="http://feeds.feedburner.com/~r/gizmodo/full/~4/GKsXPtYljJ4" width="1" />
p844
stRp845
sg22
(lp846
g1
(g2
g3
(dp847
g25
Vhttp://feeds.gawker.com/~r/gizmodo/full/~3/GKsXPtYljJ4/shooting-challenge-the-2014-world-cup-1602961768
p848
sg27
g28
sg29
g30
stRp849
asg15
g16
((I2014
I7
I10
I18
I20
I0
I3
I191
I0
t(dtRp850
sg18
VShooting Challenge: The 2014 World Cup
p851
sS'feedburner_origlink'
p852
Vhttp://gizmodo.com/shooting-challenge-the-2014-world-cup-1602961768
p853
sg127
(lp854
g1
(g2
g3
(dp855
g130
Vsports
p856
sg132
Nsg133
NstRp857
ag1
(g2
g3
(dp858
g130
Vworldcup2014worldcup
p859
sg132
Nsg133
NstRp860
ag1
(g2
g3
(dp861
g130
Vphotography
p862
sg132
Nsg133
NstRp863
ag1
(g2
g3
(dp864
g130
Vart
p865
sg132
Nsg133
NstRp866
ag1
(g2
g3
(dp867
g130
Vfootball
p868
sg132
Nsg133
NstRp869
ag1
(g2
g3
(dp870
g130
Vculture
p871
sg132
Nsg133
NstRp872
ag1
(g2
g3
(dp873
g130
Vshootingchallenge
p874
sg132
Nsg133
NstRp875
ag1
(g2
g3
(dp876
g130
Vsoccer
p877
sg132
Nsg133
NstRp878
asg138
g844
sg139
I00
sS'title_detail'
p879
g1
(g2
g3
(dp880
g52
Vhttp://feeds.gawker.com/gizmodo/full
p881
sg27
g60
sg13
Nsg55
g851
stRp882
sg67
g848
sg144
VMark Wilson
p883
sg20
VThu, 10 Jul 2014 18:20:00 GMT
p884
sg147
(lp885
g1
(g2
g3
(dtRp886
asS'author_detail'
p887
g1
(g2
g3
(dp888
g152
g883
stRp889
sg154
Vhttp://feeds.gawker.com/gizmodo/1602961768
p890
stRp891
ag1
(g2
g3
(dp892
S'summary_detail'
p893
g1
(g2
g3
(dp894
g52
Vhttp://feeds.gawker.com/gizmodo/full
p895
sg27
g54
sg13
Nsg55
V<p class="has-media media-640"><img alt="\u200bHonda Just Announced The Best First Motorcycle Ever" class="transform-ku-xlarge" height="408" src="http://i.kinja-img.com/gawker-media/image/upload/s--ZxWCHU_l--/c_fit,fl_progressive,q_80,w_636/ho3f5tssn2nqifqp4ipr.jpg" width="636" /></p> <p class="first-text">Shopping for your very first motorcycle? Start here. The 2015 Honda CB300F promises to be fun to ride, affordable and incredibly cheap to run. It's the perfect learning tool for new riders.</p><p><a href="http://indefinitelywild.gizmodo.com/honda-just-announced-the-best-first-motorcycle-ever-1603087590/+kcampbelldollaghan">Read more...</a></p><img border="0" height="1" src="http://gizmodo.feedsportal.com/c/34976/f/647164/s/3c60e7d5/sc/18/mf.gif" width="1" /><br clear="all" /><img height="1" src="http://feeds.feedburner.com/~r/gizmodo/full/~4/7QEJqyyG1sQ" width="1" />
p896
stRp897
sg22
(lp898
g1
(g2
g3
(dp899
g25
Vhttp://feeds.gawker.com/~r/gizmodo/full/~3/7QEJqyyG1sQ/+kcampbelldollaghan
p900
sg27
g28
sg29
g30
stRp901
asg15
g16
((I2014
I7
I10
I18
I18
I53
I3
I191
I0
t(dtRp902
sg18
V\u200bHonda Just Announced The Best First Motorcycle Ever
p903
sS'feedburner_origlink'
p904
Vhttp://indefinitelywild.gizmodo.com/honda-just-announced-the-best-first-motorcycle-ever-1603087590/+kcampbelldollaghan
p905
sg127
(lp906
g1
(g2
g3
(dp907
g130
Vhonda
p908
sg132
Nsg133
NstRp909
ag1
(g2
g3
(dp910
g130
V2015 honda cb300f
p911
sg132
Nsg133
NstRp912
ag1
(g2
g3
(dp913
g130
Vcb300f
p914
sg132
Nsg133
NstRp915
ag1
(g2
g3
(dp916
g130
Vtwo wheels bad
p917
sg132
Nsg133
NstRp918
ag1
(g2
g3
(dp919
g130
Vmotorcycles
p920
sg132
Nsg133
NstRp921
ag1
(g2
g3
(dp922
g130
Vhonda cb300f
p923
sg132
Nsg133
NstRp924
asg138
g896
sg139
I00
sS'title_detail'
p925
g1
(g2
g3
(dp926
g52
Vhttp://feeds.gawker.com/gizmodo/full
p927
sg27
g60
sg13
Nsg55
g903
stRp928
sg67
g900
sg144
VWes Siler on IndefinitelyWild, shared by Kelsey Campbell-Dollaghan to Gizmodo
p929
sg20
VThu, 10 Jul 2014 18:18:53 GMT
p930
sg147
(lp931
g1
(g2
g3
(dtRp932
asS'author_detail'
p933
g1
(g2
g3
(dp934
g152
g929
stRp935
sg154
Vhttp://feeds.gawker.com/gizmodo/1603087590
p936
stRp937
ag1
(g2
g3
(dp938
S'summary_detail'
p939
g1
(g2
g3
(dp940
g52
Vhttp://feeds.gawker.com/gizmodo/full
p941
sg27
g54
sg13
Nsg55
V<p class="has-media media-640"><img alt="A Home Dry Cleaner That Refreshes Your Clothes in Just Ten Minutes" class="transform-ku-xlarge" height="287" src="http://i.kinja-img.com/gawker-media/image/upload/s--Xrkdlmtl--/c_fit,fl_progressive,q_80,w_636/vhccirab9ppiyjrlgti7.jpg" width="636" /></p> <p class="first-text">The <a href="http://go.redirectingat.com?id=33330X911642&amp;xs=1&amp;url=http%3A%2F%2Fwww1.bloomingdales.com%2Fshop%2Fproduct%2Fswash-express-clothing-care-system%3FID%3D1083975%26amp%3B%2338%3BCategoryID%3D3865%26amp%3B%2338%3BLinkshareID%3Dje6NUbpObpQ-hgCorrBuQgEIaJkLGPoqzA%26amp%3B%2338%3BPartnerID%3DLINKSHARE%26amp%3B%2338%3Bcm_mmc%3DLINKSHARE-_-n-_-n-_-n%23fn%3Dspp%253D2%2526ppp%253D96%2526sp%253DNull%2526rid%253DNull%2526cm_kws%253Dswash&amp;sref=skimrss" target="_blank">Swash</a> is being pitched as a sort of personal dry cleaning machine that promises to refresh clothes in just ten minutes. But instead of the toxic chemicals often used at your local dry cleaner, it runs on disposable detergent pods.</p><p><a href="http://gizmodo.com/a-home-dry-cleaner-that-refreshes-your-clothes-in-just-1603035444">Read more...</a></p><img border="0" height="1" src="http://gizmodo.feedsportal.com/c/34976/f/647164/s/3c5fb841/sc/36/mf.gif" width="1" /><br clear="all" /><br /><br /><a href="http://da.feedsportal.com/r/199120597045/u/94/f/647164/c/34976/s/3c5fb841/sc/36/rc/1/rc.htm" rel="nofollow"><img border="0" src="http://da.feedsportal.com/r/199120597045/u/94/f/647164/c/34976/s/3c5fb841/sc/36/rc/1/rc.img" /></a><br /><a href="http://da.feedsportal.com/r/199120597045/u/94/f/647164/c/34976/s/3c5fb841/sc/36/rc/2/rc.htm" rel="nofollow"><img border="0" src="http://da.feedsportal.com/r/199120597045/u/94/f/647164/c/34976/s/3c5fb841/sc/36/rc/2/rc.img" /></a><br /><a href="http://da.feedsportal.com/r/199120597045/u/94/f/647164/c/34976/s/3c5fb841/sc/36/rc/3/rc.htm" rel="nofollow"><img border="0" src="http://da.feedsportal.com/r/199120597045/u/94/f/647164/c/34976/s/3c5fb841/sc/36/rc/3/rc.img" /></a><br /><br /><a href="http://da.feedsportal.com/r/199120597045/u/94/f/647164/c/34976/s/3c5fb841/sc/36/a2.htm"><img border="0" src="http://da.feedsportal.com/r/199120597045/u/94/f/647164/c/34976/s/3c5fb841/sc/36/a2.img" /></a><img border="0" height="1" src="http://pi.feedsportal.com/r/199120597045/u/94/f/647164/c/34976/s/3c5fb841/sc/36/a2t.img" width="1" /><img height="1" src="http://feeds.feedburner.com/~r/gizmodo/full/~4/sQCjjQ3VSKM" width="1" />
p942
stRp943
sg22
(lp944
g1
(g2
g3
(dp945
g25
Vhttp://feeds.gawker.com/~r/gizmodo/full/~3/sQCjjQ3VSKM/a-home-dry-cleaner-that-refreshes-your-clothes-in-just-1603035444
p946
sg27
g28
sg29
g30
stRp947
asg15
g16
((I2014
I7
I10
I18
I0
I0
I3
I191
I0
t(dtRp948
sg18
VA Home Dry Cleaner That Refreshes Your Clothes in Just Ten Minutes
p949
sS'feedburner_origlink'
p950
Vhttp://gizmodo.com/a-home-dry-cleaner-that-refreshes-your-clothes-in-just-1603035444
p951
sg127
(lp952
g1
(g2
g3
(dp953
g130
Vgadgets
p954
sg132
Nsg133
NstRp955
ag1
(g2
g3
(dp956
g130
Vwhirlpool
p957
sg132
Nsg133
NstRp958
ag1
(g2
g3
(dp959
g130
Vswash
p960
sg132
Nsg133
NstRp961
ag1
(g2
g3
(dp962
g130
Vdry cleaning
p963
sg132
Nsg133
NstRp964
ag1
(g2
g3
(dp965
g130
Vappliances
p966
sg132
Nsg133
NstRp967
asg138
g942
sg139
I00
sS'title_detail'
p968
g1
(g2
g3
(dp969
g52
Vhttp://feeds.gawker.com/gizmodo/full
p970
sg27
g60
sg13
Nsg55
g949
stRp971
sg67
g946
sg144
VAndrew Liszewski
p972
sg20
VThu, 10 Jul 2014 18:00:00 GMT
p973
sg147
(lp974
g1
(g2
g3
(dtRp975
asS'author_detail'
p976
g1
(g2
g3
(dp977
g152
g972
stRp978
sg154
Vhttp://feeds.gawker.com/gizmodo/1603035444
p979
stRp980
ag1
(g2
g3
(dp981
S'summary_detail'
p982
g1
(g2
g3
(dp983
g52
Vhttp://feeds.gawker.com/gizmodo/full
p984
sg27
g54
sg13
Nsg55
V<p class="has-media media-640"><img alt="This Abandoned Warehouse Is Full of Live Jellyfish" class="transform-ku-xlarge" height="288" src="http://i.kinja-img.com/gawker-media/image/upload/s--_20R9BMJ--/c_fit,fl_progressive,q_80,w_636/urcebhltivutxggpq69m.jpg" width="636" /></p> <p class="first-text">If you find yourself wandering around Liverpool in the middle of the night, you might be surprised to happen upon a warehouse with a glowing blue door. Inside, you'll see countless live jellyfish floating peacefully in the unlikely setting. It's not a hallucination. <a href="http://www.thisiscolossal.com/2014/07/a-jellyfish-tank-installed-in-an-abandoned-building-in-london-by-walter-hugo-zoniel-2/" target="_blank">It's art</a>.</p><p><a href="http://gizmodo.com/this-abandoned-warehouse-is-full-of-live-jellyfish-1603044966">Read more...</a></p><img border="0" height="1" src="http://gizmodo.feedsportal.com/c/34976/f/647164/s/3c5f7bf7/sc/10/mf.gif" width="1" /><br clear="all" /><br /><br /><a href="http://da.feedsportal.com/r/199109380126/u/94/f/647164/c/34976/s/3c5f7bf7/sc/10/rc/1/rc.htm" rel="nofollow"><img border="0" src="http://da.feedsportal.com/r/199109380126/u/94/f/647164/c/34976/s/3c5f7bf7/sc/10/rc/1/rc.img" /></a><br /><a href="http://da.feedsportal.com/r/199109380126/u/94/f/647164/c/34976/s/3c5f7bf7/sc/10/rc/2/rc.htm" rel="nofollow"><img border="0" src="http://da.feedsportal.com/r/199109380126/u/94/f/647164/c/34976/s/3c5f7bf7/sc/10/rc/2/rc.img" /></a><br /><a href="http://da.feedsportal.com/r/199109380126/u/94/f/647164/c/34976/s/3c5f7bf7/sc/10/rc/3/rc.htm" rel="nofollow"><img border="0" src="http://da.feedsportal.com/r/199109380126/u/94/f/647164/c/34976/s/3c5f7bf7/sc/10/rc/3/rc.img" /></a><br /><br /><a href="http://da.feedsportal.com/r/199109380126/u/94/f/647164/c/34976/s/3c5f7bf7/sc/10/a2.htm"><img border="0" src="http://da.feedsportal.com/r/199109380126/u/94/f/647164/c/34976/s/3c5f7bf7/sc/10/a2.img" /></a><img border="0" height="1" src="http://pi.feedsportal.com/r/199109380126/u/94/f/647164/c/34976/s/3c5f7bf7/sc/10/a2t.img" width="1" /><img height="1" src="http://feeds.feedburner.com/~r/gizmodo/full/~4/zdrAwy5boWs" width="1" />
p985
stRp986
sg22
(lp987
g1
(g2
g3
(dp988
g25
Vhttp://feeds.gawker.com/~r/gizmodo/full/~3/zdrAwy5boWs/this-abandoned-warehouse-is-full-of-live-jellyfish-1603044966
p989
sg27
g28
sg29
g30
stRp990
asg15
g16
((I2014
I7
I10
I17
I40
I0
I3
I191
I0
t(dtRp991
sg18
VThis Abandoned Warehouse Is Full of Live Jellyfish
p992
sS'feedburner_origlink'
p993
Vhttp://gizmodo.com/this-abandoned-warehouse-is-full-of-live-jellyfish-1603044966
p994
sg127
(lp995
g1
(g2
g3
(dp996
g130
Vinstallations
p997
sg132
Nsg133
NstRp998
ag1
(g2
g3
(dp999
g130
Vart
p1000
sg132
Nsg133
NstRp1001
ag1
(g2
g3
(dp1002
g130
Vjellyfish
p1003
sg132
Nsg133
NstRp1004
ag1
(g2
g3
(dp1005
g130
Vuk
p1006
sg132
Nsg133
NstRp1007
asg138
g985
sg139
I00
sS'title_detail'
p1008
g1
(g2
g3
(dp1009
g52
Vhttp://feeds.gawker.com/gizmodo/full
p1010
sg27
g60
sg13
Nsg55
g992
stRp1011
sg67
g989
sg144
VAdam Clark Estes
p1012
sg20
VThu, 10 Jul 2014 17:40:00 GMT
p1013
sg147
(lp1014
g1
(g2
g3
(dtRp1015
asS'author_detail'
p1016
g1
(g2
g3
(dp1017
g152
g1012
stRp1018
sg154
Vhttp://feeds.gawker.com/gizmodo/1603044966
p1019
stRp1020
ag1
(g2
g3
(dp1021
S'summary_detail'
p1022
g1
(g2
g3
(dp1023
g52
Vhttp://feeds.gawker.com/gizmodo/full
p1024
sg27
g54
sg13
Nsg55
V<p class="has-media media-640"><img alt="The Plan to Resurrect NASA's Long-Lost Satellite Has Failed" class="transform-original" height="288" src="http://i.kinja-img.com/gawker-media/image/upload/s--puSKhmvU--/805604396735043731.png" width="636" /></p> <p class="first-text">Someone throw together an IndieGoGo for a 21 gun salute. The crowdfunded project take control of ISEE-3, NASA's 30-year-old satellite, is kaput. The sad news is a blow to anyone who loves space, science, or stories of redemption by scrappy underdogs. </p><p><a href="http://gizmodo.com/the-plan-to-resurrect-nasas-long-lost-satellite-has-fai-1603048879">Read more...</a></p><img border="0" height="1" src="http://gizmodo.feedsportal.com/c/34976/f/647164/s/3c5fae9e/sc/38/mf.gif" width="1" /><br clear="all" /><br /><br /><a href="http://da.feedsportal.com/r/199120595927/u/94/f/647164/c/34976/s/3c5fae9e/sc/38/rc/1/rc.htm" rel="nofollow"><img border="0" src="http://da.feedsportal.com/r/199120595927/u/94/f/647164/c/34976/s/3c5fae9e/sc/38/rc/1/rc.img" /></a><br /><a href="http://da.feedsportal.com/r/199120595927/u/94/f/647164/c/34976/s/3c5fae9e/sc/38/rc/2/rc.htm" rel="nofollow"><img border="0" src="http://da.feedsportal.com/r/199120595927/u/94/f/647164/c/34976/s/3c5fae9e/sc/38/rc/2/rc.img" /></a><br /><a href="http://da.feedsportal.com/r/199120595927/u/94/f/647164/c/34976/s/3c5fae9e/sc/38/rc/3/rc.htm" rel="nofollow"><img border="0" src="http://da.feedsportal.com/r/199120595927/u/94/f/647164/c/34976/s/3c5fae9e/sc/38/rc/3/rc.img" /></a><br /><br /><a href="http://da.feedsportal.com/r/199120595927/u/94/f/647164/c/34976/s/3c5fae9e/sc/38/a2.htm"><img border="0" src="http://da.feedsportal.com/r/199120595927/u/94/f/647164/c/34976/s/3c5fae9e/sc/38/a2.img" /></a><img border="0" height="1" src="http://pi.feedsportal.com/r/199120595927/u/94/f/647164/c/34976/s/3c5fae9e/sc/38/a2t.img" width="1" /><img height="1" src="http://feeds.feedburner.com/~r/gizmodo/full/~4/r6svv2P8u08" width="1" />
p1025
stRp1026
sg22
(lp1027
g1
(g2
g3
(dp1028
g25
Vhttp://feeds.gawker.com/~r/gizmodo/full/~3/r6svv2P8u08/the-plan-to-resurrect-nasas-long-lost-satellite-has-fai-1603048879
p1029
sg27
g28
sg29
g30
stRp1030
asg15
g16
((I2014
I7
I10
I17
I19
I0
I3
I191
I0
t(dtRp1031
sg18
VThe Plan to Resurrect NASA's Long-Lost Satellite Has Failed
p1032
sS'feedburner_origlink'
p1033
Vhttp://gizmodo.com/the-plan-to-resurrect-nasas-long-lost-satellite-has-fai-1603048879
p1034
sg127
(lp1035
g1
(g2
g3
(dp1036
g130
Vnasa
p1037
sg132
Nsg133
NstRp1038
ag1
(g2
g3
(dp1039
g130
Vfailed
p1040
sg132
Nsg133
NstRp1041
ag1
(g2
g3
(dp1042
g130
Vsatellite
p1043
sg132
Nsg133
NstRp1044
ag1
(g2
g3
(dp1045
g130
Visee-3
p1046
sg132
Nsg133
NstRp1047
ag1
(g2
g3
(dp1048
g130
Vspace
p1049
sg132
Nsg133
NstRp1050
asg138
g1025
sg139
I00
sS'title_detail'
p1051
g1
(g2
g3
(dp1052
g52
Vhttp://feeds.gawker.com/gizmodo/full
p1053
sg27
g60
sg13
Nsg55
g1032
stRp1054
sg67
g1029
sg144
VKelsey Campbell-Dollaghan
p1055
sg20
VThu, 10 Jul 2014 17:19:00 GMT
p1056
sg147
(lp1057
g1
(g2
g3
(dtRp1058
asS'author_detail'
p1059
g1
(g2
g3
(dp1060
g152
g1055
stRp1061
sg154
Vhttp://feeds.gawker.com/gizmodo/1603048879
p1062
stRp1063
ag1
(g2
g3
(dp1064
S'summary_detail'
p1065
g1
(g2
g3
(dp1066
g52
Vhttp://feeds.gawker.com/gizmodo/full
p1067
sg27
g54
sg13
Nsg55
V<p class="has-media media-640"><img alt="Happy Birthday Nikola Tesla" class="transform-ku-xlarge" height="288" src="http://i.kinja-img.com/gawker-media/image/upload/s--XPpqE1Yv--/c_fit,fl_progressive,q_80,w_636/805604549741804945.jpg" width="636" /></p> <p class="first-text">Nikola Tesla was a legendary futurist before the term futurist even existed. He made all kinds of predictions about the way that world would and should operate \u2014 some of them accurate, and some of them <a href="http://paleofuture.gizmodo.com/nikola-teslas-amazing-predictions-for-the-21st-century-512623526">controversial</a> . And guess what? It's his birthday!</p><p><a href="http://paleofuture.gizmodo.com/nikola-teslas-amazing-predictions-for-the-21st-century-512623526/1603048971/+mattnovak">Read more...</a></p><img border="0" height="1" src="http://gizmodo.feedsportal.com/c/34976/f/647164/s/3c5fe00b/sc/5/mf.gif" width="1" /><br clear="all" /><img height="1" src="http://feeds.feedburner.com/~r/gizmodo/full/~4/F0Db13S37hc" width="1" />
p1068
stRp1069
sg22
(lp1070
g1
(g2
g3
(dp1071
g25
Vhttp://feeds.gawker.com/~r/gizmodo/full/~3/F0Db13S37hc/+mattnovak
p1072
sg27
g28
sg29
g30
stRp1073
asg15
g16
((I2014
I7
I10
I17
I16
I0
I3
I191
I0
t(dtRp1074
sg18
VHappy Birthday Nikola Tesla
p1075
sS'feedburner_origlink'
p1076
Vhttp://paleofuture.gizmodo.com/nikola-teslas-amazing-predictions-for-the-21st-century-512623526/1603048971/+mattnovak
p1077
sg127
(lp1078
g1
(g2
g3
(dp1079
g130
Vnikola tesla
p1080
sg132
Nsg133
NstRp1081
ag1
(g2
g3
(dp1082
g130
Vedison
p1083
sg132
Nsg133
NstRp1084
ag1
(g2
g3
(dp1085
g130
Vtesla
p1086
sg132
Nsg133
NstRp1087
ag1
(g2
g3
(dp1088
g130
Vbirthday
p1089
sg132
Nsg133
NstRp1090
asg138
g1068
sg139
I00
sS'title_detail'
p1091
g1
(g2
g3
(dp1092
g52
Vhttp://feeds.gawker.com/gizmodo/full
p1093
sg27
g60
sg13
Nsg55
g1075
stRp1094
sg67
g1072
sg144
VMatt Novak on Paleofuture, shared by Kelsey Campbell-Dollaghan to Gizmodo
p1095
sg20
VThu, 10 Jul 2014 17:16:00 GMT
p1096
sg147
(lp1097
g1
(g2
g3
(dtRp1098
asS'author_detail'
p1099
g1
(g2
g3
(dp1100
g152
g1095
stRp1101
sg154
Vhttp://feeds.gawker.com/gizmodo/1603048971
p1102
stRp1103
ag1
(g2
g3
(dp1104
S'summary_detail'
p1105
g1
(g2
g3
(dp1106
g52
Vhttp://feeds.gawker.com/gizmodo/full
p1107
sg27
g54
sg13
Nsg55
V<p class="has-media media-640"><img alt="FTC: Amazon Billed Parents Millions for Kids' Unauthorized App Buys" class="transform-original" height="358" src="http://i.kinja-img.com/gawker-media/image/upload/s--kp0PmkX6--/805593716626447532.jpg" width="636" /></p> <p class="first-text"> The Federal Trade Commission <a href="http://www.ftc.gov/news-events/press-releases/2014/07/ftc-alleges-amazon-unlawfully-billed-parents-millions-dollars" target="_blank">has filed</a> a lawsuit against Amazon demanding refunds for parents billed for millions of dollars in app purchases.</p><p><a href="http://gizmodo.com/ftc-amazon-billed-parents-millions-for-kids-unauthoriz-1603042239">Read more...</a></p><img border="0" height="1" src="http://gizmodo.feedsportal.com/c/34976/f/647164/s/3c5faabe/sc/15/mf.gif" width="1" /><br clear="all" /><br /><br /><a href="http://da.feedsportal.com/r/199120595477/u/94/f/647164/c/34976/s/3c5faabe/sc/15/rc/1/rc.htm" rel="nofollow"><img border="0" src="http://da.feedsportal.com/r/199120595477/u/94/f/647164/c/34976/s/3c5faabe/sc/15/rc/1/rc.img" /></a><br /><a href="http://da.feedsportal.com/r/199120595477/u/94/f/647164/c/34976/s/3c5faabe/sc/15/rc/2/rc.htm" rel="nofollow"><img border="0" src="http://da.feedsportal.com/r/199120595477/u/94/f/647164/c/34976/s/3c5faabe/sc/15/rc/2/rc.img" /></a><br /><a href="http://da.feedsportal.com/r/199120595477/u/94/f/647164/c/34976/s/3c5faabe/sc/15/rc/3/rc.htm" rel="nofollow"><img border="0" src="http://da.feedsportal.com/r/199120595477/u/94/f/647164/c/34976/s/3c5faabe/sc/15/rc/3/rc.img" /></a><br /><br /><a href="http://da.feedsportal.com/r/199120595477/u/94/f/647164/c/34976/s/3c5faabe/sc/15/a2.htm"><img border="0" src="http://da.feedsportal.com/r/199120595477/u/94/f/647164/c/34976/s/3c5faabe/sc/15/a2.img" /></a><img border="0" height="1" src="http://pi.feedsportal.com/r/199120595477/u/94/f/647164/c/34976/s/3c5faabe/sc/15/a2t.img" width="1" /><img height="1" src="http://feeds.feedburner.com/~r/gizmodo/full/~4/9-Bcf0sgRwM" width="1" />
p1108
stRp1109
sg22
(lp1110
g1
(g2
g3
(dp1111
g25
Vhttp://feeds.gawker.com/~r/gizmodo/full/~3/9-Bcf0sgRwM/ftc-amazon-billed-parents-millions-for-kids-unauthoriz-1603042239
p1112
sg27
g28
sg29
g30
stRp1113
asg15
g16
((I2014
I7
I10
I17
I5
I0
I3
I191
I0
t(dtRp1114
sg18
VFTC: Amazon Billed Parents Millions for Kids' Unauthorized App Buys
p1115
sS'feedburner_origlink'
p1116
Vhttp://gizmodo.com/ftc-amazon-billed-parents-millions-for-kids-unauthoriz-1603042239
p1117
sg127
(lp1118
g1
(g2
g3
(dp1119
g130
Vamazon
p1120
sg132
Nsg133
NstRp1121
ag1
(g2
g3
(dp1122
g130
Vftc
p1123
sg132
Nsg133
NstRp1124
asg138
g1108
sg139
I00
sS'title_detail'
p1125
g1
(g2
g3
(dp1126
g52
Vhttp://feeds.gawker.com/gizmodo/full
p1127
sg27
g60
sg13
Nsg55
g1115
stRp1128
sg67
g1112
sg144
VKate Knibbs
p1129
sg20
VThu, 10 Jul 2014 17:05:00 GMT
p1130
sg147
(lp1131
g1
(g2
g3
(dtRp1132
asS'author_detail'
p1133
g1
(g2
g3
(dp1134
g152
g1129
stRp1135
sg154
Vhttp://feeds.gawker.com/gizmodo/1603042239
p1136
stRp1137
asS'namespaces'
p1138
(dp1139
S''
Vhttp://www.w3.org/2005/Atom
p1140
sS'taxo'
p1141
Vhttp://purl.org/rss/1.0/modules/taxonomy/
p1142
sS'dc'
p1143
Vhttp://purl.org/dc/elements/1.1/
p1144
sS'itunes'
p1145
Vhttp://www.itunes.com/dtds/podcast-1.0.dtd
p1146
sS'rdf'
p1147
Vhttp://www.w3.org/1999/02/22-rdf-syntax-ns#
p1148
sS'feedburner'
p1149
Vhttp://rssnamespace.org/feedburner/ext/1.0
p1150
sstRp1151
.