ccopy_reg
_reconstructor
p1
(cfeedparser
FeedParserDict
p2
c__builtin__
dict
p3
(dp4
S'feed'
p5
g1
(g2
g3
(dp6
S'updated'
p7
VFri, 11 Jul 2014 09:39:08 GMT
p8
sS'subtitle'
p9
VWe come from the future.
p10
sS'language'
p11
Ven
p12
sS'published_parsed'
p13
ctime
struct_time
p14
((I2014
I7
I11
I9
I39
I8
I4
I192
I0
t(dtRp15
sS'title'
p16
Vio9
p17
sS'published'
p18
VFri, 11 Jul 2014 09:39:08 GMT
p19
sS'links'
p20
(lp21
g1
(g2
g3
(dp22
S'href'
p23
Vhttp://io9.com
p24
sS'type'
p25
Vtext/html
p26
sS'rel'
p27
Valternate
p28
stRp29
ag1
(g2
g3
(dp30
S'href'
p31
Vhttp://feeds.gawker.com/io9/full
p32
sS'type'
p33
Vapplication/rss+xml
p34
sS'rel'
p35
Vself
p36
stRp37
ag1
(g2
g3
(dp38
S'href'
p39
Vhttp://pubsubhubbub.appspot.com/
p40
sg25
g26
sS'rel'
p41
Vhub
p42
stRp43
asS'feedburner_info'
p44
(dp45
S'uri'
p46
Vio9/full
p47
ssS'subtitle_detail'
p48
g1
(g2
g3
(dp49
S'base'
p50
Vhttp://feeds.gawker.com/io9/full
p51
sg25
Vtext/html
p52
sg11
NsS'value'
p53
g10
stRp54
sS'title_detail'
p55
g1
(g2
g3
(dp56
g50
Vhttp://feeds.gawker.com/io9/full
p57
sg25
Vtext/plain
p58
sg11
Nsg53
g17
stRp59
sS'link'
p60
g24
sS'ttl'
p61
V30
p62
sS'updated_parsed'
p63
g14
((I2014
I7
I11
I9
I39
I8
I4
I192
I0
t(dtRp64
stRp65
sS'status'
p66
I200
sg7
S'Fri, 11 Jul 2014 10:09:12 GMT'
p67
sg63
g14
((I2014
I7
I11
I10
I9
I12
I4
I192
I0
t(dtRp68
sS'encoding'
p69
VUTF-8
p70
sS'bozo'
p71
I0
sS'headers'
p72
(dp73
S'alternate-protocol'
p74
S'80:quic,80:quic'
p75
sS'x-xss-protection'
p76
S'1; mode=block'
p77
sS'x-content-type-options'
p78
S'nosniff'
p79
sS'content-encoding'
p80
S'gzip'
p81
sS'transfer-encoding'
p82
S'chunked'
p83
sS'expires'
p84
S'Fri, 11 Jul 2014 10:17:12 GMT'
p85
sS'server'
p86
S'GSE'
p87
sS'last-modified'
p88
g67
sS'connection'
p89
S'close'
p90
sS'etag'
p91
S'CefUxSqnKigWA6i1UvGh8a+kDjM'
p92
sS'cache-control'
p93
S'private, max-age=0'
p94
sS'date'
p95
S'Fri, 11 Jul 2014 10:17:12 GMT'
p96
sS'content-type'
p97
S'text/xml; charset=UTF-8'
p98
ssS'etag'
p99
VCefUxSqnKigWA6i1UvGh8a+kDjM
p100
sg23
Vhttp://feeds.gawker.com/io9/full
p101
sS'version'
p102
Vrss20
p103
sS'entries'
p104
(lp105
g1
(g2
g3
(dp106
S'summary_detail'
p107
g1
(g2
g3
(dp108
g50
Vhttp://feeds.gawker.com/io9/full
p109
sg25
g52
sg11
Nsg53
V<p class="has-media media-640"><img alt="Do Not Take Writing Advice from the Worst Muse" class="transform-original" height="313" src="http://i.kinja-img.com/gawker-media/image/upload/s--FOJp1h1N--/entohfshheal0xwknhas.png" width="636" /></p> <p class="first-text"> Twitter account the Worst Muse isn't even a week old, but it's already a premiere source of hilarious writing advice. Below's a selection of our favorites.</p><p><a href="http://io9.com/do-not-take-writing-advice-from-the-worst-muse-1603438929">Read more...</a></p><img border="0" height="1" src="http://io9.feedsportal.com/c/34975/f/647163/s/3c64a47b/sc/4/mf.gif" width="1" /><br clear="all" /><br /><br /><a href="http://da.feedsportal.com/r/199109400698/u/94/f/647163/c/34975/s/3c64a47b/sc/4/rc/1/rc.htm" rel="nofollow"><img border="0" src="http://da.feedsportal.com/r/199109400698/u/94/f/647163/c/34975/s/3c64a47b/sc/4/rc/1/rc.img" /></a><br /><a href="http://da.feedsportal.com/r/199109400698/u/94/f/647163/c/34975/s/3c64a47b/sc/4/rc/2/rc.htm" rel="nofollow"><img border="0" src="http://da.feedsportal.com/r/199109400698/u/94/f/647163/c/34975/s/3c64a47b/sc/4/rc/2/rc.img" /></a><br /><a href="http://da.feedsportal.com/r/199109400698/u/94/f/647163/c/34975/s/3c64a47b/sc/4/rc/3/rc.htm" rel="nofollow"><img border="0" src="http://da.feedsportal.com/r/199109400698/u/94/f/647163/c/34975/s/3c64a47b/sc/4/rc/3/rc.img" /></a><br /><br /><a href="http://da.feedsportal.com/r/199109400698/u/94/f/647163/c/34975/s/3c64a47b/sc/4/a2.htm"><img border="0" src="http://da.feedsportal.com/r/199109400698/u/94/f/647163/c/34975/s/3c64a47b/sc/4/a2.img" /></a><img border="0" height="1" src="http://pi.feedsportal.com/r/199109400698/u/94/f/647163/c/34975/s/3c64a47b/sc/4/a2t.img" width="1" /><img height="1" src="http://feeds.feedburner.com/~r/io9/full/~4/J8r2jGK-0Mk" width="1" />
p110
stRp111
sg20
(lp112
g1
(g2
g3
(dp113
g23
Vhttp://feeds.gawker.com/~r/io9/full/~3/J8r2jGK-0Mk/do-not-take-writing-advice-from-the-worst-muse-1603438929
p114
sg25
g26
sg27
g28
stRp115
asg13
g14
((I2014
I7
I11
I8
I30
I0
I4
I192
I0
t(dtRp116
sg16
VDo Not Take Writing Advice from the Worst Muse
p117
sS'feedburner_origlink'
p118
Vhttp://io9.com/do-not-take-writing-advice-from-the-worst-muse-1603438929
p119
sS'tags'
p120
(lp121
g1
(g2
g3
(dp122
S'term'
p123
Vwriting
p124
sS'scheme'
p125
NsS'label'
p126
NstRp127
ag1
(g2
g3
(dp128
g123
Vthis is awesome
p129
sg125
Nsg126
NstRp130
ag1
(g2
g3
(dp131
g123
Vtwitter
p132
sg125
Nsg126
NstRp133
ag1
(g2
g3
(dp134
g123
Vworst muse
p135
sg125
Nsg126
NstRp136
asS'summary'
p137
g110
sS'guidislink'
p138
I00
sS'title_detail'
p139
g1
(g2
g3
(dp140
g50
Vhttp://feeds.gawker.com/io9/full
p141
sg25
g58
sg11
Nsg53
g117
stRp142
sg60
g114
sS'author'
p143
VKatharine Trendacosta
p144
sg18
VFri, 11 Jul 2014 08:30:00 GMT
p145
sS'authors'
p146
(lp147
g1
(g2
g3
(dtRp148
asS'author_detail'
p149
g1
(g2
g3
(dp150
S'name'
p151
g144
stRp152
sS'id'
p153
Vhttp://feeds.gawker.com/io9/1603438929
p154
stRp155
ag1
(g2
g3
(dp156
S'summary_detail'
p157
g1
(g2
g3
(dp158
g50
Vhttp://feeds.gawker.com/io9/full
p159
sg25
g52
sg11
Nsg53
V<p class="has-media media-640"><img alt="The Dragons Who Hoard Out of Anxiety" class="transform-ku-xlarge" height="270" src="http://i.kinja-img.com/gawker-media/image/upload/s--5PDqRrtm--/c_fit,fl_progressive,q_80,w_636/me2awwkzr5zgzhbfgb9e.jpg" width="636" /></p> <p class="first-text">Mittie Paul, whose dragons we've covered before, has now produced a series of drawings answering the question, "What if instead of being proud miserly creatures, all dragons were just super nervous? They hoarded out of financial anxiety and whatnot." </p><p><a href="http://io9.com/the-dragons-who-hoard-out-of-anxiety-1603427585">Read more...</a></p><img border="0" height="1" src="http://io9.feedsportal.com/c/34975/f/647163/s/3c63289f/sc/14/mf.gif" width="1" /><br clear="all" /><br /><br /><a href="http://da.feedsportal.com/r/199120271458/u/94/f/647163/c/34975/s/3c63289f/sc/14/rc/1/rc.htm" rel="nofollow"><img border="0" src="http://da.feedsportal.com/r/199120271458/u/94/f/647163/c/34975/s/3c63289f/sc/14/rc/1/rc.img" /></a><br /><a href="http://da.feedsportal.com/r/199120271458/u/94/f/647163/c/34975/s/3c63289f/sc/14/rc/2/rc.htm" rel="nofollow"><img border="0" src="http://da.feedsportal.com/r/199120271458/u/94/f/647163/c/34975/s/3c63289f/sc/14/rc/2/rc.img" /></a><br /><a href="http://da.feedsportal.com/r/199120271458/u/94/f/647163/c/34975/s/3c63289f/sc/14/rc/3/rc.htm" rel="nofollow"><img border="0" src="http://da.feedsportal.com/r/199120271458/u/94/f/647163/c/34975/s/3c63289f/sc/14/rc/3/rc.img" /></a><br /><br /><a href="http://da.feedsportal.com/r/199120271458/u/94/f/647163/c/34975/s/3c63289f/sc/14/a2.htm"><img border="0" src="http://da.feedsportal.com/r/199120271458/u/94/f/647163/c/34975/s/3c63289f/sc/14/a2.img" /></a><img border="0" height="1" src="http://pi.feedsportal.com/r/199120271458/u/94/f/647163/c/34975/s/3c63289f/sc/14/a2t.img" width="1" /><img height="1" src="http://feeds.feedburner.com/~r/io9/full/~4/o9FEYRDRul4" width="1" />
p160
stRp161
sg20
(lp162
g1
(g2
g3
(dp163
g23
Vhttp://feeds.gawker.com/~r/io9/full/~3/o9FEYRDRul4/the-dragons-who-hoard-out-of-anxiety-1603427585
p164
sg25
g26
sg27
g28
stRp165
asg13
g14
((I2014
I7
I11
I6
I0
I0
I4
I192
I0
t(dtRp166
sg16
VThe Dragons Who Hoard Out of Anxiety
p167
sS'feedburner_origlink'
p168
Vhttp://io9.com/the-dragons-who-hoard-out-of-anxiety-1603427585
p169
sg120
(lp170
g1
(g2
g3
(dp171
g123
Vdragons
p172
sg125
Nsg126
NstRp173
ag1
(g2
g3
(dp174
g123
Vconcept art
p175
sg125
Nsg126
NstRp176
ag1
(g2
g3
(dp177
g123
Vmittie paul
p178
sg125
Nsg126
NstRp179
asg137
g160
sg138
I00
sS'title_detail'
p180
g1
(g2
g3
(dp181
g50
Vhttp://feeds.gawker.com/io9/full
p182
sg25
g58
sg11
Nsg53
g167
stRp183
sg60
g164
sg143
VKatharine Trendacosta
p184
sg18
VFri, 11 Jul 2014 06:00:00 GMT
p185
sg146
(lp186
g1
(g2
g3
(dtRp187
asS'author_detail'
p188
g1
(g2
g3
(dp189
g151
g184
stRp190
sg153
Vhttp://feeds.gawker.com/io9/1603427585
p191
stRp192
ag1
(g2
g3
(dp193
S'summary_detail'
p194
g1
(g2
g3
(dp195
g50
Vhttp://feeds.gawker.com/io9/full
p196
sg25
g52
sg11
Nsg53
V<p class="has-media media-640"><img alt="With Ridley Scott's David, Are We Entering a New Age of Biblical Epics?" class="transform-ku-xlarge" height="357" src="http://i.kinja-img.com/gawker-media/image/upload/s--SAUcWMC7--/c_fit,fl_progressive,q_80,w_636/nqepgftmrrgs9hwe6aaa.jpg" width="636" /></p> <p class="first-text">Ridley Scott's Christian-Bale-as-Moses epic <em>Exodus: Gods and Kings </em>won't be out until Decemeber, but he's already working on another Old Testament story: King David. So we're forced to wonder: Are Biblical epics officially back?</p><p><a href="http://io9.com/with-ridley-scotts-david-are-we-entering-a-new-age-of-1603395257">Read more...</a></p><img border="0" height="1" src="http://io9.feedsportal.com/c/34975/f/647163/s/3c629c86/sc/13/mf.gif" width="1" /><br clear="all" /><br /><br /><a href="http://da.feedsportal.com/r/199120608710/u/94/f/647163/c/34975/s/3c629c86/sc/13/rc/1/rc.htm" rel="nofollow"><img border="0" src="http://da.feedsportal.com/r/199120608710/u/94/f/647163/c/34975/s/3c629c86/sc/13/rc/1/rc.img" /></a><br /><a href="http://da.feedsportal.com/r/199120608710/u/94/f/647163/c/34975/s/3c629c86/sc/13/rc/2/rc.htm" rel="nofollow"><img border="0" src="http://da.feedsportal.com/r/199120608710/u/94/f/647163/c/34975/s/3c629c86/sc/13/rc/2/rc.img" /></a><br /><a href="http://da.feedsportal.com/r/199120608710/u/94/f/647163/c/34975/s/3c629c86/sc/13/rc/3/rc.htm" rel="nofollow"><img border="0" src="http://da.feedsportal.com/r/199120608710/u/94/f/647163/c/34975/s/3c629c86/sc/13/rc/3/rc.img" /></a><br /><br /><a href="http://da.feedsportal.com/r/199120608710/u/94/f/647163/c/34975/s/3c629c86/sc/13/a2.htm"><img border="0" src="http://da.feedsportal.com/r/199120608710/u/94/f/647163/c/34975/s/3c629c86/sc/13/a2.img" /></a><img border="0" height="1" src="http://pi.feedsportal.com/r/199120608710/u/94/f/647163/c/34975/s/3c629c86/sc/13/a2t.img" width="1" /><img height="1" src="http://feeds.feedburner.com/~r/io9/full/~4/kkHyvItPbW4" width="1" />
p197
stRp198
sg20
(lp199
g1
(g2
g3
(dp200
g23
Vhttp://feeds.gawker.com/~r/io9/full/~3/kkHyvItPbW4/with-ridley-scotts-david-are-we-entering-a-new-age-of-1603395257
p201
sg25
g26
sg27
g28
stRp202
asg13
g14
((I2014
I7
I11
I4
I0
I0
I4
I192
I0
t(dtRp203
sg16
VWith Ridley Scott's David, Are We Entering a New Age of Biblical Epics?
p204
sS'feedburner_origlink'
p205
Vhttp://io9.com/with-ridley-scotts-david-are-we-entering-a-new-age-of-1603395257
p206
sg120
(lp207
g1
(g2
g3
(dp208
g123
Vdavid
p209
sg125
Nsg126
NstRp210
ag1
(g2
g3
(dp211
g123
Vexodus
p212
sg125
Nsg126
NstRp213
ag1
(g2
g3
(dp214
g123
Vnoah
p215
sg125
Nsg126
NstRp216
ag1
(g2
g3
(dp217
g123
Vmovies
p218
sg125
Nsg126
NstRp219
ag1
(g2
g3
(dp220
g123
Vexodus gods and kings
p221
sg125
Nsg126
NstRp222
ag1
(g2
g3
(dp223
g123
Vbible
p224
sg125
Nsg126
NstRp225
ag1
(g2
g3
(dp226
g123
Vridley scott
p227
sg125
Nsg126
NstRp228
asg137
g197
sg138
I00
sS'title_detail'
p229
g1
(g2
g3
(dp230
g50
Vhttp://feeds.gawker.com/io9/full
p231
sg25
g58
sg11
Nsg53
g204
stRp232
sg60
g201
sg143
VKatharine Trendacosta
p233
sg18
VFri, 11 Jul 2014 04:00:00 GMT
p234
sg146
(lp235
g1
(g2
g3
(dtRp236
asS'author_detail'
p237
g1
(g2
g3
(dp238
g151
g233
stRp239
sg153
Vhttp://feeds.gawker.com/io9/1603395257
p240
stRp241
ag1
(g2
g3
(dp242
S'summary_detail'
p243
g1
(g2
g3
(dp244
g50
Vhttp://feeds.gawker.com/io9/full
p245
sg25
g52
sg11
Nsg53
V<p class="has-media media-640"><img alt="It Was an Unexpected Sunset" class="transform-ku-xlarge" height="506" src="http://i.kinja-img.com/gawker-media/image/upload/s--twHxeAZk--/c_fit,fl_progressive,q_80,w_636/yxjg7w77ohgiqmreopjc.jpg" width="636" /></p> <p class="first-text">He'd heard the ships would be arriving at dusk, but he didn't realize that they would actually be causing the dusk in question.</p><p><a href="http://io9.com/it-was-an-unexpected-sunset-1603343470">Read more...</a></p><img border="0" height="1" src="http://io9.feedsportal.com/c/34975/f/647163/s/3c62a86a/sc/10/mf.gif" width="1" /><br clear="all" /><br /><br /><a href="http://da.feedsportal.com/r/199107915089/u/94/f/647163/c/34975/s/3c62a86a/sc/10/rc/1/rc.htm" rel="nofollow"><img border="0" src="http://da.feedsportal.com/r/199107915089/u/94/f/647163/c/34975/s/3c62a86a/sc/10/rc/1/rc.img" /></a><br /><a href="http://da.feedsportal.com/r/199107915089/u/94/f/647163/c/34975/s/3c62a86a/sc/10/rc/2/rc.htm" rel="nofollow"><img border="0" src="http://da.feedsportal.com/r/199107915089/u/94/f/647163/c/34975/s/3c62a86a/sc/10/rc/2/rc.img" /></a><br /><a href="http://da.feedsportal.com/r/199107915089/u/94/f/647163/c/34975/s/3c62a86a/sc/10/rc/3/rc.htm" rel="nofollow"><img border="0" src="http://da.feedsportal.com/r/199107915089/u/94/f/647163/c/34975/s/3c62a86a/sc/10/rc/3/rc.img" /></a><br /><br /><a href="http://da.feedsportal.com/r/199107915089/u/94/f/647163/c/34975/s/3c62a86a/sc/10/a2.htm"><img border="0" src="http://da.feedsportal.com/r/199107915089/u/94/f/647163/c/34975/s/3c62a86a/sc/10/a2.img" /></a><img border="0" height="1" src="http://pi.feedsportal.com/r/199107915089/u/94/f/647163/c/34975/s/3c62a86a/sc/10/a2t.img" width="1" /><img height="1" src="http://feeds.feedburner.com/~r/io9/full/~4/CwahAFPjezM" width="1" />
p246
stRp247
sg20
(lp248
g1
(g2
g3
(dp249
g23
Vhttp://feeds.gawker.com/~r/io9/full/~3/CwahAFPjezM/it-was-an-unexpected-sunset-1603343470
p250
sg25
g26
sg27
g28
stRp251
asg13
g14
((I2014
I7
I11
I3
I32
I0
I4
I192
I0
t(dtRp252
sg16
VIt Was an Unexpected Sunset
p253
sS'feedburner_origlink'
p254
Vhttp://io9.com/it-was-an-unexpected-sunset-1603343470
p255
sg120
(lp256
g1
(g2
g3
(dp257
g123
Vmichael heath
p258
sg125
Nsg126
NstRp259
ag1
(g2
g3
(dp260
g123
Villustration
p261
sg125
Nsg126
NstRp262
ag1
(g2
g3
(dp263
g123
Vconcept art
p264
sg125
Nsg126
NstRp265
ag1
(g2
g3
(dp266
g123
Vearthfall
p267
sg125
Nsg126
NstRp268
asg137
g246
sg138
I00
sS'title_detail'
p269
g1
(g2
g3
(dp270
g50
Vhttp://feeds.gawker.com/io9/full
p271
sg25
g58
sg11
Nsg53
g253
stRp272
sg60
g250
sg143
VAnnalee Newitz
p273
sg18
VFri, 11 Jul 2014 03:32:00 GMT
p274
sg146
(lp275
g1
(g2
g3
(dtRp276
asS'author_detail'
p277
g1
(g2
g3
(dp278
g151
g273
stRp279
sg153
Vhttp://feeds.gawker.com/io9/1603343470
p280
stRp281
ag1
(g2
g3
(dp282
S'summary_detail'
p283
g1
(g2
g3
(dp284
g50
Vhttp://feeds.gawker.com/io9/full
p285
sg25
g52
sg11
Nsg53
V<p class="has-media media-640"><img alt="The Movie That H.R. Giger Spent Decades Trying To Make" class="transform-ku-xlarge" height="436" src="http://i.kinja-img.com/gawker-media/image/upload/s--fkuZVP1w--/c_fit,fl_progressive,q_80,w_636/hc02auj5dmt0bwxjuv6c.jpg" width="636" /></p> <p class="first-text">Artist H.R. Giger left his mark on movies forever, through his contributions to <em>Alien</em> and other classic science fiction films. But he never got to make <em>The Mystery of San Gottardo</em>, the movie he was working on since the 1970s. See some more of the fantastic art from this project below.</p><p><a href="http://io9.com/the-movie-that-h-r-giger-spent-decades-trying-to-make-1603337368">Read more...</a></p><img border="0" height="1" src="http://io9.feedsportal.com/c/34975/f/647163/s/3c621763/sc/38/mf.gif" width="1" /><br clear="all" /><br /><br /><a href="http://da.feedsportal.com/r/199120266598/u/94/f/647163/c/34975/s/3c621763/sc/38/rc/1/rc.htm" rel="nofollow"><img border="0" src="http://da.feedsportal.com/r/199120266598/u/94/f/647163/c/34975/s/3c621763/sc/38/rc/1/rc.img" /></a><br /><a href="http://da.feedsportal.com/r/199120266598/u/94/f/647163/c/34975/s/3c621763/sc/38/rc/2/rc.htm" rel="nofollow"><img border="0" src="http://da.feedsportal.com/r/199120266598/u/94/f/647163/c/34975/s/3c621763/sc/38/rc/2/rc.img" /></a><br /><a href="http://da.feedsportal.com/r/199120266598/u/94/f/647163/c/34975/s/3c621763/sc/38/rc/3/rc.htm" rel="nofollow"><img border="0" src="http://da.feedsportal.com/r/199120266598/u/94/f/647163/c/34975/s/3c621763/sc/38/rc/3/rc.img" /></a><br /><br /><a href="http://da.feedsportal.com/r/199120266598/u/94/f/647163/c/34975/s/3c621763/sc/38/a2.htm"><img border="0" src="http://da.feedsportal.com/r/199120266598/u/94/f/647163/c/34975/s/3c621763/sc/38/a2.img" /></a><img border="0" height="1" src="http://pi.feedsportal.com/r/199120266598/u/94/f/647163/c/34975/s/3c621763/sc/38/a2t.img" width="1" /><img height="1" src="http://feeds.feedburner.com/~r/io9/full/~4/jpGVoSoVeWg" width="1" />
p286
stRp287
sg20
(lp288
g1
(g2
g3
(dp289
g23
Vhttp://feeds.gawker.com/~r/io9/full/~3/jpGVoSoVeWg/the-movie-that-h-r-giger-spent-decades-trying-to-make-1603337368
p290
sg25
g26
sg27
g28
stRp291
asg13
g14
((I2014
I7
I11
I2
I0
I0
I4
I192
I0
t(dtRp292
sg16
VThe Movie That H.R. Giger Spent Decades Trying To Make
p293
sS'feedburner_origlink'
p294
Vhttp://io9.com/the-movie-that-h-r-giger-spent-decades-trying-to-make-1603337368
p295
sg120
(lp296
g1
(g2
g3
(dp297
g123
Vmystery of san gottardo
p298
sg125
Nsg126
NstRp299
ag1
(g2
g3
(dp300
g123
Valien
p301
sg125
Nsg126
NstRp302
ag1
(g2
g3
(dp303
g123
Vart
p304
sg125
Nsg126
NstRp305
ag1
(g2
g3
(dp306
g123
Vholy crap wtf
p307
sg125
Nsg126
NstRp308
ag1
(g2
g3
(dp309
g123
Vmovies
p310
sg125
Nsg126
NstRp311
ag1
(g2
g3
(dp312
g123
Vhg giger
p313
sg125
Nsg126
NstRp314
ag1
(g2
g3
(dp315
g123
Vridley scott
p316
sg125
Nsg126
NstRp317
asg137
g286
sg138
I00
sS'title_detail'
p318
g1
(g2
g3
(dp319
g50
Vhttp://feeds.gawker.com/io9/full
p320
sg25
g58
sg11
Nsg53
g293
stRp321
sg60
g290
sg143
VCharlie Jane Anders
p322
sg18
VFri, 11 Jul 2014 02:00:00 GMT
p323
sg146
(lp324
g1
(g2
g3
(dtRp325
asS'author_detail'
p326
g1
(g2
g3
(dp327
g151
g322
stRp328
sg153
Vhttp://feeds.gawker.com/io9/1603337368
p329
stRp330
ag1
(g2
g3
(dp331
S'summary_detail'
p332
g1
(g2
g3
(dp333
g50
Vhttp://feeds.gawker.com/io9/full
p334
sg25
g52
sg11
Nsg53
V<p class="first-text"><strong>Are open relationships the next sexual revolution? </strong>Over at Alternet, Mark Michaels and Patricia Johnson <a href="http://www.alternet.org/sex-amp-relationships/life-long-sexual-monogamy-just-isnt-natural-here-are-some-other-options" target="_blank">ask whether "designer" relationships that include more than two people could go mainstream in the future</a>, offering people more options when it comes to romance and marriage.</p><p><a href="http://io9.com/are-open-relationships-the-next-sexual-revolution-over-1603337734">Read more...</a></p><img border="0" height="1" src="http://io9.feedsportal.com/c/34975/f/647163/s/3c621244/sc/4/mf.gif" width="1" /><br clear="all" /><br /><br /><a href="http://da.feedsportal.com/r/199120266022/u/94/f/647163/c/34975/s/3c621244/sc/4/rc/1/rc.htm" rel="nofollow"><img border="0" src="http://da.feedsportal.com/r/199120266022/u/94/f/647163/c/34975/s/3c621244/sc/4/rc/1/rc.img" /></a><br /><a href="http://da.feedsportal.com/r/199120266022/u/94/f/647163/c/34975/s/3c621244/sc/4/rc/2/rc.htm" rel="nofollow"><img border="0" src="http://da.feedsportal.com/r/199120266022/u/94/f/647163/c/34975/s/3c621244/sc/4/rc/2/rc.img" /></a><br /><a href="http://da.feedsportal.com/r/199120266022/u/94/f/647163/c/34975/s/3c621244/sc/4/rc/3/rc.htm" rel="nofollow"><img border="0" src="http://da.feedsportal.com/r/199120266022/u/94/f/647163/c/34975/s/3c621244/sc/4/rc/3/rc.img" /></a><br /><br /><a href="http://da.feedsportal.com/r/199120266022/u/94/f/647163/c/34975/s/3c621244/sc/4/a2.htm"><img border="0" src="http://da.feedsportal.com/r/199120266022/u/94/f/647163/c/34975/s/3c621244/sc/4/a2.img" /></a><img border="0" height="1" src="http://pi.feedsportal.com/r/199120266022/u/94/f/647163/c/34975/s/3c621244/sc/4/a2t.img" width="1" /><img height="1" src="http://feeds.feedburner.com/~r/io9/full/~4/ElpzzBcovIs" width="1" />
p335
stRp336
sg20
(lp337
g1
(g2
g3
(dp338
g23
Vhttp://feeds.gawker.com/~r/io9/full/~3/ElpzzBcovIs/are-open-relationships-the-next-sexual-revolution-over-1603337734
p339
sg25
g26
sg27
g28
stRp340
asg13
g14
((I2014
I7
I11
I1
I31
I13
I4
I192
I0
t(dtRp341
sg16
VAre open relationships the next sexual revolution?
p342
sS'feedburner_origlink'
p343
Vhttp://io9.com/are-open-relationships-the-next-sexual-revolution-over-1603337734
p344
sg120
(lp345
g1
(g2
g3
(dp346
g123
Vopen relationships
p347
sg125
Nsg126
NstRp348
ag1
(g2
g3
(dp349
g123
Vsex
p350
sg125
Nsg126
NstRp351
ag1
(g2
g3
(dp352
g123
Vfuturism
p353
sg125
Nsg126
NstRp354
asg137
g335
sg138
I00
sS'title_detail'
p355
g1
(g2
g3
(dp356
g50
Vhttp://feeds.gawker.com/io9/full
p357
sg25
g58
sg11
Nsg53
g342
stRp358
sg60
g339
sg143
VAnnalee Newitz
p359
sg18
VFri, 11 Jul 2014 01:31:13 GMT
p360
sg146
(lp361
g1
(g2
g3
(dtRp362
asS'author_detail'
p363
g1
(g2
g3
(dp364
g151
g359
stRp365
sg153
Vhttp://feeds.gawker.com/io9/1603337734
p366
stRp367
ag1
(g2
g3
(dp368
S'summary_detail'
p369
g1
(g2
g3
(dp370
g50
Vhttp://feeds.gawker.com/io9/full
p371
sg25
g52
sg11
Nsg53
V<p class="has-media media-640"><img alt="How To Train For Space On Earth" class="transform-ku-xlarge" height="636" src="http://i.kinja-img.com/gawker-media/image/upload/s--gvpr8DyS--/c_fit,fl_progressive,q_80,w_636/ynmmb5kzzkrp7gsv6ndk.jpg" width="636" /></p> <p class="first-text">Pictured here: ESA astronaut Samantha Cristoforetti, who will serve as a flight engineer on Expedition 42/43 aboard the ISS, practicing extravehicular activity (aka "EVA" aka repairs in spaaaaaace") in the Partial Gravity Simulator test area in the Space Vehicle Mock-up Facility at NASA's Johnson Space Center. What a badass.</p><p><a href="http://io9.com/how-to-train-for-space-on-earth-1603224671">Read more...</a></p><img border="0" height="1" src="http://io9.feedsportal.com/c/34975/f/647163/s/3c621247/sc/10/mf.gif" width="1" /><br clear="all" /><br /><br /><a href="http://da.feedsportal.com/r/199120266021/u/94/f/647163/c/34975/s/3c621247/sc/10/rc/1/rc.htm" rel="nofollow"><img border="0" src="http://da.feedsportal.com/r/199120266021/u/94/f/647163/c/34975/s/3c621247/sc/10/rc/1/rc.img" /></a><br /><a href="http://da.feedsportal.com/r/199120266021/u/94/f/647163/c/34975/s/3c621247/sc/10/rc/2/rc.htm" rel="nofollow"><img border="0" src="http://da.feedsportal.com/r/199120266021/u/94/f/647163/c/34975/s/3c621247/sc/10/rc/2/rc.img" /></a><br /><a href="http://da.feedsportal.com/r/199120266021/u/94/f/647163/c/34975/s/3c621247/sc/10/rc/3/rc.htm" rel="nofollow"><img border="0" src="http://da.feedsportal.com/r/199120266021/u/94/f/647163/c/34975/s/3c621247/sc/10/rc/3/rc.img" /></a><br /><br /><a href="http://da.feedsportal.com/r/199120266021/u/94/f/647163/c/34975/s/3c621247/sc/10/a2.htm"><img border="0" src="http://da.feedsportal.com/r/199120266021/u/94/f/647163/c/34975/s/3c621247/sc/10/a2.img" /></a><img border="0" height="1" src="http://pi.feedsportal.com/r/199120266021/u/94/f/647163/c/34975/s/3c621247/sc/10/a2t.img" width="1" /><img height="1" src="http://feeds.feedburner.com/~r/io9/full/~4/zlGQ_28utiQ" width="1" />
p372
stRp373
sg20
(lp374
g1
(g2
g3
(dp375
g23
Vhttp://feeds.gawker.com/~r/io9/full/~3/zlGQ_28utiQ/how-to-train-for-space-on-earth-1603224671
p376
sg25
g26
sg27
g28
stRp377
asg13
g14
((I2014
I7
I11
I1
I30
I0
I4
I192
I0
t(dtRp378
sg16
VHow To Train For Space On Earth
p379
sS'feedburner_origlink'
p380
Vhttp://io9.com/how-to-train-for-space-on-earth-1603224671
p381
sg120
(lp382
g1
(g2
g3
(dp383
g123
Veva
p384
sg125
Nsg126
NstRp385
ag1
(g2
g3
(dp386
g123
Vsamantha cristoforetti
p387
sg125
Nsg126
NstRp388
ag1
(g2
g3
(dp389
g123
Viss
p390
sg125
Nsg126
NstRp391
ag1
(g2
g3
(dp392
g123
Vextravehicular activity
p393
sg125
Nsg126
NstRp394
ag1
(g2
g3
(dp395
g123
Vspace
p396
sg125
Nsg126
NstRp397
asg137
g372
sg138
I00
sS'title_detail'
p398
g1
(g2
g3
(dp399
g50
Vhttp://feeds.gawker.com/io9/full
p400
sg25
g58
sg11
Nsg53
g379
stRp401
sg60
g376
sg143
VRobert T. Gonzalez
p402
sg18
VFri, 11 Jul 2014 01:30:00 GMT
p403
sg146
(lp404
g1
(g2
g3
(dtRp405
asS'author_detail'
p406
g1
(g2
g3
(dp407
g151
g402
stRp408
sg153
Vhttp://feeds.gawker.com/io9/1603224671
p409
stRp410
ag1
(g2
g3
(dp411
S'summary_detail'
p412
g1
(g2
g3
(dp413
g50
Vhttp://feeds.gawker.com/io9/full
p414
sg25
g52
sg11
Nsg53
V<p class="has-media media-640"><img alt="Batgirl's New Uniform May Be The Best Damn Superheroine Outfit Ever" class="transform-ku-xlarge" height="459" src="http://i.kinja-img.com/gawker-media/image/upload/s---YgSTl71--/c_fit,fl_progressive,q_80,w_636/ntpq1e1idwbmkilhd0hf.jpg" width="636" /></p> <p class="first-text">Batgirl is getting a look, a new perspective and a new creative team. It's all good news \u2014 especially that fan-favorite illustrator Babs Tarr will making her mainstream comic debut \u2014 but none of it better than Barbara Gordon's brand new, utterly fantastic new uniform.</p><p><a href="http://io9.com/batgirls-new-uniform-may-be-the-best-damn-superheroine-1603247249">Read more...</a></p><img border="0" height="1" src="http://io9.feedsportal.com/c/34975/f/647163/s/3c61e7a2/sc/28/mf.gif" width="1" /><br clear="all" /><br /><br /><a href="http://da.feedsportal.com/r/199120490234/u/94/f/647163/c/34975/s/3c61e7a2/sc/28/rc/1/rc.htm" rel="nofollow"><img border="0" src="http://da.feedsportal.com/r/199120490234/u/94/f/647163/c/34975/s/3c61e7a2/sc/28/rc/1/rc.img" /></a><br /><a href="http://da.feedsportal.com/r/199120490234/u/94/f/647163/c/34975/s/3c61e7a2/sc/28/rc/2/rc.htm" rel="nofollow"><img border="0" src="http://da.feedsportal.com/r/199120490234/u/94/f/647163/c/34975/s/3c61e7a2/sc/28/rc/2/rc.img" /></a><br /><a href="http://da.feedsportal.com/r/199120490234/u/94/f/647163/c/34975/s/3c61e7a2/sc/28/rc/3/rc.htm" rel="nofollow"><img border="0" src="http://da.feedsportal.com/r/199120490234/u/94/f/647163/c/34975/s/3c61e7a2/sc/28/rc/3/rc.img" /></a><br /><br /><a href="http://da.feedsportal.com/r/199120490234/u/94/f/647163/c/34975/s/3c61e7a2/sc/28/a2.htm"><img border="0" src="http://da.feedsportal.com/r/199120490234/u/94/f/647163/c/34975/s/3c61e7a2/sc/28/a2.img" /></a><img border="0" height="1" src="http://pi.feedsportal.com/r/199120490234/u/94/f/647163/c/34975/s/3c61e7a2/sc/28/a2t.img" width="1" /><img height="1" src="http://feeds.feedburner.com/~r/io9/full/~4/B4T9eEpVb_4" width="1" />
p415
stRp416
sg20
(lp417
g1
(g2
g3
(dp418
g23
Vhttp://feeds.gawker.com/~r/io9/full/~3/B4T9eEpVb_4/batgirls-new-uniform-may-be-the-best-damn-superheroine-1603247249
p419
sg25
g26
sg27
g28
stRp420
asg13
g14
((I2014
I7
I11
I0
I30
I0
I4
I192
I0
t(dtRp421
sg16
VBatgirl's New Uniform May Be The Best Damn Superheroine Outfit Ever
p422
sS'feedburner_origlink'
p423
Vhttp://io9.com/batgirls-new-uniform-may-be-the-best-damn-superheroine-1603247249
p424
sg120
(lp425
g1
(g2
g3
(dp426
g123
Vbatgirl
p427
sg125
Nsg126
NstRp428
ag1
(g2
g3
(dp429
g123
Vdc
p430
sg125
Nsg126
NstRp431
ag1
(g2
g3
(dp432
g123
Vcomics
p433
sg125
Nsg126
NstRp434
ag1
(g2
g3
(dp435
g123
Vbabs tarr
p436
sg125
Nsg126
NstRp437
asg137
g415
sg138
I00
sS'title_detail'
p438
g1
(g2
g3
(dp439
g50
Vhttp://feeds.gawker.com/io9/full
p440
sg25
g58
sg11
Nsg53
g422
stRp441
sg60
g419
sg143
VRob Bricken
p442
sg18
VFri, 11 Jul 2014 00:30:00 GMT
p443
sg146
(lp444
g1
(g2
g3
(dtRp445
asS'author_detail'
p446
g1
(g2
g3
(dp447
g151
g442
stRp448
sg153
Vhttp://feeds.gawker.com/io9/1603247249
p449
stRp450
ag1
(g2
g3
(dp451
S'summary_detail'
p452
g1
(g2
g3
(dp453
g50
Vhttp://feeds.gawker.com/io9/full
p454
sg25
g52
sg11
Nsg53
V<p class="has-media media-470"><img alt="NASA is WAY Too Excited About Its Next Rocket Launch" class="transform-ku-medium" height="320" src="http://i.kinja-img.com/gawker-media/image/upload/s--fQ9ckB6U--/c_fit,fl_progressive,q_80,w_320/j1y9gw9almxz3ahrx6un.jpg" width="320" /></p> <p class="first-text">NASA exuberantly celebrated the erection of an Antares rocket today in preparation of the upcoming Orb-2 launch. Now my inner 13-year-old can't stop snickering.</p><p><a href="http://space.io9.com/nasa-is-way-too-excited-about-its-next-rocket-launch-1603286293/+katharinetrendacosta">Read more...</a></p><img border="0" height="1" src="http://io9.feedsportal.com/c/34975/f/647163/s/3c651c29/sc/10/mf.gif" width="1" /><br clear="all" /><img height="1" src="http://feeds.feedburner.com/~r/io9/full/~4/1GjutVq2Y2k" width="1" />
p455
stRp456
sg20
(lp457
g1
(g2
g3
(dp458
g23
Vhttp://feeds.gawker.com/~r/io9/full/~3/1GjutVq2Y2k/+katharinetrendacosta
p459
sg25
g26
sg27
g28
stRp460
asg13
g14
((I2014
I7
I11
I0
I0
I0
I4
I192
I0
t(dtRp461
sg16
VNASA is WAY Too Excited About Its Next Rocket Launch
p462
sS'feedburner_origlink'
p463
Vhttp://space.io9.com/nasa-is-way-too-excited-about-its-next-rocket-launch-1603286293/+katharinetrendacosta
p464
sg120
(lp465
g1
(g2
g3
(dp466
g123
Vspace porn
p467
sg125
Nsg126
NstRp468
ag1
(g2
g3
(dp469
g123
Vrockets
p470
sg125
Nsg126
NstRp471
asg137
g455
sg138
I00
sS'title_detail'
p472
g1
(g2
g3
(dp473
g50
Vhttp://feeds.gawker.com/io9/full
p474
sg25
g58
sg11
Nsg53
g462
stRp475
sg60
g459
sg143
VMika McKinnon on Space, shared by Katharine Trendacosta to io9
p476
sg18
VFri, 11 Jul 2014 00:00:00 GMT
p477
sg146
(lp478
g1
(g2
g3
(dtRp479
asS'author_detail'
p480
g1
(g2
g3
(dp481
g151
g476
stRp482
sg153
Vhttp://feeds.gawker.com/io9/1603286293
p483
stRp484
ag1
(g2
g3
(dp485
S'summary_detail'
p486
g1
(g2
g3
(dp487
g50
Vhttp://feeds.gawker.com/io9/full
p488
sg25
g52
sg11
Nsg53
V<p class="has-media media-640"><img alt="New and Improved Bird Bath, Now With Extra Coyote!" class="transform-ku-xlarge" height="477" src="http://i.kinja-img.com/gawker-media/image/upload/s--s0KyjTWu--/c_fit,fl_progressive,q_80,w_636/yg39nkpu9zb9iwe4dcl3.jpg" width="636" /></p> <p class="first-text">Bird baths aren't just for birds any more. A crafty coyote at Death Valley National Park decided to escape the heat by squeezing itself into a small bird-sized bathtub.</p><p><a href="http://animals.io9.com/new-and-improved-bird-bath-now-with-extra-fox-1603274744/+katharinetrendacosta">Read more...</a></p><img border="0" height="1" src="http://io9.feedsportal.com/c/34975/f/647163/s/3c63e097/sc/10/mf.gif" width="1" /><br clear="all" /><img height="1" src="http://feeds.feedburner.com/~r/io9/full/~4/5Y8qQgiOXug" width="1" />
p489
stRp490
sg20
(lp491
g1
(g2
g3
(dp492
g23
Vhttp://feeds.gawker.com/~r/io9/full/~3/5Y8qQgiOXug/+katharinetrendacosta
p493
sg25
g26
sg27
g28
stRp494
asg13
g14
((I2014
I7
I11
I0
I0
I0
I4
I192
I0
t(dtRp495
sg16
VNew and Improved Bird Bath, Now With Extra Coyote!
p496
sS'feedburner_origlink'
p497
Vhttp://animals.io9.com/new-and-improved-bird-bath-now-with-extra-fox-1603274744/+katharinetrendacosta
p498
sg120
(lp499
g1
(g2
g3
(dp500
g123
Vfox
p501
sg125
Nsg126
NstRp502
ag1
(g2
g3
(dp503
g123
Vsummer
p504
sg125
Nsg126
NstRp505
ag1
(g2
g3
(dp506
g123
Vanimals
p507
sg125
Nsg126
NstRp508
ag1
(g2
g3
(dp509
g123
Vphotos
p510
sg125
Nsg126
NstRp511
ag1
(g2
g3
(dp512
g123
Vcheer up
p513
sg125
Nsg126
NstRp514
ag1
(g2
g3
(dp515
g123
Vstay cool
p516
sg125
Nsg126
NstRp517
asg137
g489
sg138
I00
sS'title_detail'
p518
g1
(g2
g3
(dp519
g50
Vhttp://feeds.gawker.com/io9/full
p520
sg25
g58
sg11
Nsg53
g496
stRp521
sg60
g493
sg143
VJason G. Goldman on Animals, shared by Katharine Trendacosta to io9
p522
sg18
VFri, 11 Jul 2014 00:00:00 GMT
p523
sg146
(lp524
g1
(g2
g3
(dtRp525
asS'author_detail'
p526
g1
(g2
g3
(dp527
g151
g522
stRp528
sg153
Vhttp://feeds.gawker.com/io9/1603274744
p529
stRp530
ag1
(g2
g3
(dp531
S'summary_detail'
p532
g1
(g2
g3
(dp533
g50
Vhttp://feeds.gawker.com/io9/full
p534
sg25
g52
sg11
Nsg53
V<p class="has-media media-640"><img alt="Concept Art Writing Prompt: The Projection Man" class="transform-ku-xlarge" height="357" src="http://i.kinja-img.com/gawker-media/image/upload/s--cbylNhMR--/c_fit,fl_progressive,q_80,w_636/onyqxxpkbg2igjzgljr3.jpg" width="636" /></p> <p class="first-text"> A crowd gathers to watch the projects of a strange being in this week's writing prompt. You tell us: What sort of story is this person telling? And do the people believe it?</p><p><a href="http://io9.com/concept-art-writing-prompt-the-projection-man-1603237387">Read more...</a></p><img border="0" height="1" src="http://io9.feedsportal.com/c/34975/f/647163/s/3c61a0ff/sc/38/mf.gif" width="1" /><br clear="all" /><br /><br /><a href="http://da.feedsportal.com/r/199120263986/u/94/f/647163/c/34975/s/3c61a0ff/sc/38/rc/1/rc.htm" rel="nofollow"><img border="0" src="http://da.feedsportal.com/r/199120263986/u/94/f/647163/c/34975/s/3c61a0ff/sc/38/rc/1/rc.img" /></a><br /><a href="http://da.feedsportal.com/r/199120263986/u/94/f/647163/c/34975/s/3c61a0ff/sc/38/rc/2/rc.htm" rel="nofollow"><img border="0" src="http://da.feedsportal.com/r/199120263986/u/94/f/647163/c/34975/s/3c61a0ff/sc/38/rc/2/rc.img" /></a><br /><a href="http://da.feedsportal.com/r/199120263986/u/94/f/647163/c/34975/s/3c61a0ff/sc/38/rc/3/rc.htm" rel="nofollow"><img border="0" src="http://da.feedsportal.com/r/199120263986/u/94/f/647163/c/34975/s/3c61a0ff/sc/38/rc/3/rc.img" /></a><br /><br /><a href="http://da.feedsportal.com/r/199120263986/u/94/f/647163/c/34975/s/3c61a0ff/sc/38/a2.htm"><img border="0" src="http://da.feedsportal.com/r/199120263986/u/94/f/647163/c/34975/s/3c61a0ff/sc/38/a2.img" /></a><img border="0" height="1" src="http://pi.feedsportal.com/r/199120263986/u/94/f/647163/c/34975/s/3c61a0ff/sc/38/a2t.img" width="1" /><img height="1" src="http://feeds.feedburner.com/~r/io9/full/~4/sxYpbdMx_TQ" width="1" />
p535
stRp536
sg20
(lp537
g1
(g2
g3
(dp538
g23
Vhttp://feeds.gawker.com/~r/io9/full/~3/sxYpbdMx_TQ/concept-art-writing-prompt-the-projection-man-1603237387
p539
sg25
g26
sg27
g28
stRp540
asg13
g14
((I2014
I7
I11
I0
I0
I0
I4
I192
I0
t(dtRp541
sg16
VConcept Art Writing Prompt: The Projection Man
p542
sS'feedburner_origlink'
p543
Vhttp://io9.com/concept-art-writing-prompt-the-projection-man-1603237387
p544
sg120
(lp545
g1
(g2
g3
(dp546
g123
Vconcept art writing prompt
p547
sg125
Nsg126
NstRp548
ag1
(g2
g3
(dp549
g123
Vwriting
p550
sg125
Nsg126
NstRp551
ag1
(g2
g3
(dp552
g123
Vwriting prompt
p553
sg125
Nsg126
NstRp554
ag1
(g2
g3
(dp555
g123
Vart
p556
sg125
Nsg126
NstRp557
ag1
(g2
g3
(dp558
g123
Vflash fiction
p559
sg125
Nsg126
NstRp560
ag1
(g2
g3
(dp561
g123
Vfiction
p562
sg125
Nsg126
NstRp563
ag1
(g2
g3
(dp564
g123
Vconcept art
p565
sg125
Nsg126
NstRp566
ag1
(g2
g3
(dp567
g123
Vjoshua hutchinson
p568
sg125
Nsg126
NstRp569
ag1
(g2
g3
(dp570
g123
Vopen channel
p571
sg125
Nsg126
NstRp572
asg137
g535
sg138
I00
sS'title_detail'
p573
g1
(g2
g3
(dp574
g50
Vhttp://feeds.gawker.com/io9/full
p575
sg25
g58
sg11
Nsg53
g542
stRp576
sg60
g539
sg143
VLauren Davis
p577
sg18
VFri, 11 Jul 2014 00:00:00 GMT
p578
sg146
(lp579
g1
(g2
g3
(dtRp580
asS'author_detail'
p581
g1
(g2
g3
(dp582
g151
g577
stRp583
sg153
Vhttp://feeds.gawker.com/io9/1603237387
p584
stRp585
ag1
(g2
g3
(dp586
S'summary_detail'
p587
g1
(g2
g3
(dp588
g50
Vhttp://feeds.gawker.com/io9/full
p589
sg25
g52
sg11
Nsg53
V<p class="has-media media-640"><img alt="Buzz Aldrin Says Mars Is Not A Place For Tourists" class="transform-ku-xlarge" height="371" src="http://i.kinja-img.com/gawker-media/image/upload/s--lfwLyX-I--/c_fit,fl_progressive,q_80,w_636/cmvnsw6mtr0jcf8zvapo.jpg" width="636" /></p> <p class="first-text">The Second Man on the Moon was on Reddit yesterday doing an AMA. When asked what advice he'd like to give to Space X's Elon Musk, Aldrin's response was decidedly unsympathetic. </p><p><a href="http://io9.com/buzz-aldrin-says-mars-is-not-a-place-for-tourists-1603077899">Read more...</a></p><img border="0" height="1" src="http://io9.feedsportal.com/c/34975/f/647163/s/3c619ea5/sc/30/mf.gif" width="1" /><br clear="all" /><br /><br /><a href="http://da.feedsportal.com/r/199120263716/u/94/f/647163/c/34975/s/3c619ea5/sc/30/rc/1/rc.htm" rel="nofollow"><img border="0" src="http://da.feedsportal.com/r/199120263716/u/94/f/647163/c/34975/s/3c619ea5/sc/30/rc/1/rc.img" /></a><br /><a href="http://da.feedsportal.com/r/199120263716/u/94/f/647163/c/34975/s/3c619ea5/sc/30/rc/2/rc.htm" rel="nofollow"><img border="0" src="http://da.feedsportal.com/r/199120263716/u/94/f/647163/c/34975/s/3c619ea5/sc/30/rc/2/rc.img" /></a><br /><a href="http://da.feedsportal.com/r/199120263716/u/94/f/647163/c/34975/s/3c619ea5/sc/30/rc/3/rc.htm" rel="nofollow"><img border="0" src="http://da.feedsportal.com/r/199120263716/u/94/f/647163/c/34975/s/3c619ea5/sc/30/rc/3/rc.img" /></a><br /><br /><a href="http://da.feedsportal.com/r/199120263716/u/94/f/647163/c/34975/s/3c619ea5/sc/30/a2.htm"><img border="0" src="http://da.feedsportal.com/r/199120263716/u/94/f/647163/c/34975/s/3c619ea5/sc/30/a2.img" /></a><img border="0" height="1" src="http://pi.feedsportal.com/r/199120263716/u/94/f/647163/c/34975/s/3c619ea5/sc/30/a2t.img" width="1" /><img height="1" src="http://feeds.feedburner.com/~r/io9/full/~4/-FJwbBQk9Fg" width="1" />
p590
stRp591
sg20
(lp592
g1
(g2
g3
(dp593
g23
Vhttp://feeds.gawker.com/~r/io9/full/~3/-FJwbBQk9Fg/buzz-aldrin-says-mars-is-not-a-place-for-tourists-1603077899
p594
sg25
g26
sg27
g28
stRp595
asg13
g14
((I2014
I7
I10
I23
I40
I0
I3
I191
I0
t(dtRp596
sg16
VBuzz Aldrin Says Mars Is Not A Place For Tourists
p597
sS'feedburner_origlink'
p598
Vhttp://io9.com/buzz-aldrin-says-mars-is-not-a-place-for-tourists-1603077899
p599
sg120
(lp600
g1
(g2
g3
(dp601
g123
Vmars colonies
p602
sg125
Nsg126
NstRp603
ag1
(g2
g3
(dp604
g123
Vbuzz aldrin
p605
sg125
Nsg126
NstRp606
ag1
(g2
g3
(dp607
g123
Vmars
p608
sg125
Nsg126
NstRp609
ag1
(g2
g3
(dp610
g123
Vspace exploration
p611
sg125
Nsg126
NstRp612
ag1
(g2
g3
(dp613
g123
Vspace colonies
p614
sg125
Nsg126
NstRp615
ag1
(g2
g3
(dp616
g123
Vscience
p617
sg125
Nsg126
NstRp618
ag1
(g2
g3
(dp619
g123
Vspace
p620
sg125
Nsg126
NstRp621
asg137
g590
sg138
I00
sS'title_detail'
p622
g1
(g2
g3
(dp623
g50
Vhttp://feeds.gawker.com/io9/full
p624
sg25
g58
sg11
Nsg53
g597
stRp625
sg60
g594
sg143
VGeorge Dvorsky
p626
sg18
VThu, 10 Jul 2014 23:40:00 GMT
p627
sg146
(lp628
g1
(g2
g3
(dtRp629
asS'author_detail'
p630
g1
(g2
g3
(dp631
g151
g626
stRp632
sg153
Vhttp://feeds.gawker.com/io9/1603077899
p633
stRp634
ag1
(g2
g3
(dp635
S'summary_detail'
p636
g1
(g2
g3
(dp637
g50
Vhttp://feeds.gawker.com/io9/full
p638
sg25
g52
sg11
Nsg53
V<p class="has-media media-640"><img alt="Each Year, 250 Hikers Have To Be Rescued From the Grand Canyon. Why?" class="transform-ku-xlarge" height="393" src="http://i.kinja-img.com/gawker-media/image/upload/s--EOIV8Grx--/c_fit,fl_progressive,q_80,w_636/wr0df7cghevtubv6abqq.jpg" width="636" /></p> <p class="first-text">The hike down into the Grand Canyon is a rewarding one, full of gorgeous views. It's also, however, a treacherous hike with 250 of the people who attempt the route eventually needing rescue from the National Parks Service annually. Just what makes it so dangerous?</p><p><a href="http://io9.com/each-year-250-hikers-have-to-be-rescued-from-the-grand-1603180993">Read more...</a></p><img border="0" height="1" src="http://io9.feedsportal.com/c/34975/f/647163/s/3c61caa4/sc/10/mf.gif" width="1" /><br clear="all" /><br /><br /><a href="http://da.feedsportal.com/r/199109387529/u/94/f/647163/c/34975/s/3c61caa4/sc/10/rc/1/rc.htm" rel="nofollow"><img border="0" src="http://da.feedsportal.com/r/199109387529/u/94/f/647163/c/34975/s/3c61caa4/sc/10/rc/1/rc.img" /></a><br /><a href="http://da.feedsportal.com/r/199109387529/u/94/f/647163/c/34975/s/3c61caa4/sc/10/rc/2/rc.htm" rel="nofollow"><img border="0" src="http://da.feedsportal.com/r/199109387529/u/94/f/647163/c/34975/s/3c61caa4/sc/10/rc/2/rc.img" /></a><br /><a href="http://da.feedsportal.com/r/199109387529/u/94/f/647163/c/34975/s/3c61caa4/sc/10/rc/3/rc.htm" rel="nofollow"><img border="0" src="http://da.feedsportal.com/r/199109387529/u/94/f/647163/c/34975/s/3c61caa4/sc/10/rc/3/rc.img" /></a><br /><br /><a href="http://da.feedsportal.com/r/199109387529/u/94/f/647163/c/34975/s/3c61caa4/sc/10/a2.htm"><img border="0" src="http://da.feedsportal.com/r/199109387529/u/94/f/647163/c/34975/s/3c61caa4/sc/10/a2.img" /></a><img border="0" height="1" src="http://pi.feedsportal.com/r/199109387529/u/94/f/647163/c/34975/s/3c61caa4/sc/10/a2t.img" width="1" /><img height="1" src="http://feeds.feedburner.com/~r/io9/full/~4/inIk20mZUB4" width="1" />
p639
stRp640
sg20
(lp641
g1
(g2
g3
(dp642
g23
Vhttp://feeds.gawker.com/~r/io9/full/~3/inIk20mZUB4/each-year-250-hikers-have-to-be-rescued-from-the-grand-1603180993
p643
sg25
g26
sg27
g28
stRp644
asg13
g14
((I2014
I7
I10
I23
I20
I0
I3
I191
I0
t(dtRp645
sg16
VEach Year, 250 Hikers Have To Be Rescued From the Grand Canyon. Why?
p646
sS'feedburner_origlink'
p647
Vhttp://io9.com/each-year-250-hikers-have-to-be-rescued-from-the-grand-1603180993
p648
sg120
(lp649
g1
(g2
g3
(dp650
g123
Vnational parks
p651
sg125
Nsg126
NstRp652
ag1
(g2
g3
(dp653
g123
Vcomment of the day
p654
sg125
Nsg126
NstRp655
ag1
(g2
g3
(dp656
g123
Vgrand canyon
p657
sg125
Nsg126
NstRp658
asg137
g639
sg138
I00
sS'title_detail'
p659
g1
(g2
g3
(dp660
g50
Vhttp://feeds.gawker.com/io9/full
p661
sg25
g58
sg11
Nsg53
g646
stRp662
sg60
g643
sg143
VRia Misra
p663
sg18
VThu, 10 Jul 2014 23:20:00 GMT
p664
sg146
(lp665
g1
(g2
g3
(dtRp666
asS'author_detail'
p667
g1
(g2
g3
(dp668
g151
g663
stRp669
sg153
Vhttp://feeds.gawker.com/io9/1603180993
p670
stRp671
ag1
(g2
g3
(dp672
S'summary_detail'
p673
g1
(g2
g3
(dp674
g50
Vhttp://feeds.gawker.com/io9/full
p675
sg25
g52
sg11
Nsg53
V<p class="first-text">The number of people suffering from kidney stones has grown over the past thirty years, and a new study shows it's likely to get worse. Here's why.</p><p><a href="http://io9.com/what-is-causing-the-kidney-stone-epidemic-1603060499">Read more...</a></p><img border="0" height="1" src="http://io9.feedsportal.com/c/34975/f/647163/s/3c6195a8/sc/30/mf.gif" width="1" /><br clear="all" /><br /><br /><a href="http://da.feedsportal.com/r/199120262790/u/94/f/647163/c/34975/s/3c6195a8/sc/30/rc/1/rc.htm" rel="nofollow"><img border="0" src="http://da.feedsportal.com/r/199120262790/u/94/f/647163/c/34975/s/3c6195a8/sc/30/rc/1/rc.img" /></a><br /><a href="http://da.feedsportal.com/r/199120262790/u/94/f/647163/c/34975/s/3c6195a8/sc/30/rc/2/rc.htm" rel="nofollow"><img border="0" src="http://da.feedsportal.com/r/199120262790/u/94/f/647163/c/34975/s/3c6195a8/sc/30/rc/2/rc.img" /></a><br /><a href="http://da.feedsportal.com/r/199120262790/u/94/f/647163/c/34975/s/3c6195a8/sc/30/rc/3/rc.htm" rel="nofollow"><img border="0" src="http://da.feedsportal.com/r/199120262790/u/94/f/647163/c/34975/s/3c6195a8/sc/30/rc/3/rc.img" /></a><br /><br /><a href="http://da.feedsportal.com/r/199120262790/u/94/f/647163/c/34975/s/3c6195a8/sc/30/a2.htm"><img border="0" src="http://da.feedsportal.com/r/199120262790/u/94/f/647163/c/34975/s/3c6195a8/sc/30/a2.img" /></a><img border="0" height="1" src="http://pi.feedsportal.com/r/199120262790/u/94/f/647163/c/34975/s/3c6195a8/sc/30/a2t.img" width="1" /><img height="1" src="http://feeds.feedburner.com/~r/io9/full/~4/ZHeBM5TDErM" width="1" />
p676
stRp677
sg20
(lp678
g1
(g2
g3
(dp679
g23
Vhttp://feeds.gawker.com/~r/io9/full/~3/ZHeBM5TDErM/what-is-causing-the-kidney-stone-epidemic-1603060499
p680
sg25
g26
sg27
g28
stRp681
asg13
g14
((I2014
I7
I10
I22
I35
I0
I3
I191
I0
t(dtRp682
sg16
VWhat Is Causing the Kidney Stone Epidemic?
p683
sS'feedburner_origlink'
p684
Vhttp://io9.com/what-is-causing-the-kidney-stone-epidemic-1603060499
p685
sg120
(lp686
g1
(g2
g3
(dp687
g123
Vhealth
p688
sg125
Nsg126
NstRp689
ag1
(g2
g3
(dp690
g123
Vkidney stones
p691
sg125
Nsg126
NstRp692
ag1
(g2
g3
(dp693
g123
Vepidemiology
p694
sg125
Nsg126
NstRp695
ag1
(g2
g3
(dp696
g123
Vmedicine
p697
sg125
Nsg126
NstRp698
ag1
(g2
g3
(dp699
g123
Venvironment
p700
sg125
Nsg126
NstRp701
ag1
(g2
g3
(dp702
g123
Vscience
p703
sg125
Nsg126
NstRp704
asg137
g676
sg138
I00
sS'title_detail'
p705
g1
(g2
g3
(dp706
g50
Vhttp://feeds.gawker.com/io9/full
p707
sg25
g58
sg11
Nsg53
g683
stRp708
sg60
g680
sg143
VAnnalee Newitz
p709
sg18
VThu, 10 Jul 2014 22:35:00 GMT
p710
sg146
(lp711
g1
(g2
g3
(dtRp712
asS'author_detail'
p713
g1
(g2
g3
(dp714
g151
g709
stRp715
sg153
Vhttp://feeds.gawker.com/io9/1603060499
p716
stRp717
ag1
(g2
g3
(dp718
S'summary_detail'
p719
g1
(g2
g3
(dp720
g50
Vhttp://feeds.gawker.com/io9/full
p721
sg25
g52
sg11
Nsg53
V<p class="first-text">How long does it take to dissolve 1 kilogram of nitrogen in 15 kilogram of hydrazine? A not-so-little spacecraft called out for help, and in less than two hours, the internet found an answer.</p><p><a href="http://space.io9.com/distributed-rocket-science-is-a-thing-now-1603240054/+katharinetrendacosta">Read more...</a></p><img border="0" height="1" src="http://io9.feedsportal.com/c/34975/f/647163/s/3c630041/sc/14/mf.gif" width="1" /><br clear="all" /><img height="1" src="http://feeds.feedburner.com/~r/io9/full/~4/pzEgBEtTLfA" width="1" />
p722
stRp723
sg20
(lp724
g1
(g2
g3
(dp725
g23
Vhttp://feeds.gawker.com/~r/io9/full/~3/pzEgBEtTLfA/+katharinetrendacosta
p726
sg25
g26
sg27
g28
stRp727
asg13
g14
((I2014
I7
I10
I22
I30
I0
I3
I191
I0
t(dtRp728
sg16
VDistributed Rocket Science is a Thing Now
p729
sS'feedburner_origlink'
p730
Vhttp://space.io9.com/distributed-rocket-science-is-a-thing-now-1603240054/+katharinetrendacosta
p731
sg120
(lp732
g1
(g2
g3
(dp733
g123
Visee
p734
sg125
Nsg126
NstRp735
ag1
(g2
g3
(dp736
g123
Vrocket science
p737
sg125
Nsg126
NstRp738
asg137
g722
sg138
I00
sS'title_detail'
p739
g1
(g2
g3
(dp740
g50
Vhttp://feeds.gawker.com/io9/full
p741
sg25
g58
sg11
Nsg53
g729
stRp742
sg60
g726
sg143
VMika McKinnon on Space, shared by Katharine Trendacosta to io9
p743
sg18
VThu, 10 Jul 2014 22:30:00 GMT
p744
sg146
(lp745
g1
(g2
g3
(dtRp746
asS'author_detail'
p747
g1
(g2
g3
(dp748
g151
g743
stRp749
sg153
Vhttp://feeds.gawker.com/io9/1603240054
p750
stRp751
ag1
(g2
g3
(dp752
S'summary_detail'
p753
g1
(g2
g3
(dp754
g50
Vhttp://feeds.gawker.com/io9/full
p755
sg25
g52
sg11
Nsg53
V<p class="has-media media-640"><img alt="Planet of the Apes: A Timeline and an Explanation" class="transform-ku-xlarge" height="363" src="http://i.kinja-img.com/gawker-media/image/upload/s--Q4wo5rtA--/c_fit,fl_progressive,q_80,w_636/zisoo4n639d2de5qrubg.png" width="636" /></p> <p class="first-text">With <em>Dawn of the Planet of the Apes </em>coming out tomorrow, it's time to assess where we are in the complicated, time travel dystopia of the franchise that started over a half century ago. We've got a timeline and an analysis of where the current series puts us.</p><p><a href="http://io9.com/planet-of-the-apes-a-timeline-and-an-explanation-1603218068">Read more...</a></p><img border="0" height="1" src="http://io9.feedsportal.com/c/34975/f/647163/s/3c619082/sc/38/mf.gif" width="1" /><br clear="all" /><br /><br /><a href="http://da.feedsportal.com/r/199120262214/u/94/f/647163/c/34975/s/3c619082/sc/38/rc/1/rc.htm" rel="nofollow"><img border="0" src="http://da.feedsportal.com/r/199120262214/u/94/f/647163/c/34975/s/3c619082/sc/38/rc/1/rc.img" /></a><br /><a href="http://da.feedsportal.com/r/199120262214/u/94/f/647163/c/34975/s/3c619082/sc/38/rc/2/rc.htm" rel="nofollow"><img border="0" src="http://da.feedsportal.com/r/199120262214/u/94/f/647163/c/34975/s/3c619082/sc/38/rc/2/rc.img" /></a><br /><a href="http://da.feedsportal.com/r/199120262214/u/94/f/647163/c/34975/s/3c619082/sc/38/rc/3/rc.htm" rel="nofollow"><img border="0" src="http://da.feedsportal.com/r/199120262214/u/94/f/647163/c/34975/s/3c619082/sc/38/rc/3/rc.img" /></a><br /><br /><a href="http://da.feedsportal.com/r/199120262214/u/94/f/647163/c/34975/s/3c619082/sc/38/a2.htm"><img border="0" src="http://da.feedsportal.com/r/199120262214/u/94/f/647163/c/34975/s/3c619082/sc/38/a2.img" /></a><img border="0" height="1" src="http://pi.feedsportal.com/r/199120262214/u/94/f/647163/c/34975/s/3c619082/sc/38/a2t.img" width="1" /><img height="1" src="http://feeds.feedburner.com/~r/io9/full/~4/b1AlYqNeZ6o" width="1" />
p756
stRp757
sg20
(lp758
g1
(g2
g3
(dp759
g23
Vhttp://feeds.gawker.com/~r/io9/full/~3/b1AlYqNeZ6o/planet-of-the-apes-a-timeline-and-an-explanation-1603218068
p760
sg25
g26
sg27
g28
stRp761
asg13
g14
((I2014
I7
I10
I22
I20
I0
I3
I191
I0
t(dtRp762
sg16
VPlanet of the Apes: A Timeline and an Explanation
p763
sS'feedburner_origlink'
p764
Vhttp://io9.com/planet-of-the-apes-a-timeline-and-an-explanation-1603218068
p765
sg120
(lp766
g1
(g2
g3
(dp767
g123
Vmovies
p768
sg125
Nsg126
NstRp769
ag1
(g2
g3
(dp770
g123
Vplanet of the apes
p771
sg125
Nsg126
NstRp772
ag1
(g2
g3
(dp773
g123
Vtelevision
p774
sg125
Nsg126
NstRp775
ag1
(g2
g3
(dp776
g123
Vio9 flashback
p777
sg125
Nsg126
NstRp778
asg137
g756
sg138
I00
sS'title_detail'
p779
g1
(g2
g3
(dp780
g50
Vhttp://feeds.gawker.com/io9/full
p781
sg25
g58
sg11
Nsg53
g763
stRp782
sg60
g760
sg143
VAnnalee Newitz
p783
sg18
VThu, 10 Jul 2014 22:20:00 GMT
p784
sg146
(lp785
g1
(g2
g3
(dtRp786
asS'author_detail'
p787
g1
(g2
g3
(dp788
g151
g783
stRp789
sg153
Vhttp://feeds.gawker.com/io9/1603218068
p790
stRp791
ag1
(g2
g3
(dp792
S'summary_detail'
p793
g1
(g2
g3
(dp794
g50
Vhttp://feeds.gawker.com/io9/full
p795
sg25
g52
sg11
Nsg53
V<p class="has-media media-640"><img alt="" class="transform-ku-xlarge" height="357" src="http://i.kinja-img.com/gawker-media/image/upload/s--WMYJLVia--/c_fit,fl_progressive,q_80,w_636/r2kphjo8biqnv3botmfy.jpg" width="636" /></p> <p class="first-text"><strong><a href="http://www.technologyreview.com/news/528121/a-contraceptive-implant-with-remote-control/" target="_blank">A startup has developed a contraceptive chip for women that can be turned on and off using a remote control device</a></strong>. The implant, which dispenses 30 micrograms of levonorgestrel each day, is designed to last for 16 years. Pre-clinical testing starts next year in the U.S., with the goal of having it on the market by 2018. </p><p><a href="http://io9.com/a-startup-has-developed-a-contraceptive-chip-for-women-1603038260">Read more...</a></p><img border="0" height="1" src="http://io9.feedsportal.com/c/34975/f/647163/s/3c615f52/sc/15/mf.gif" width="1" /><br clear="all" /><img height="1" src="http://feeds.feedburner.com/~r/io9/full/~4/Zo2VXW7fGn0" width="1" />
p796
stRp797
sg20
(lp798
g1
(g2
g3
(dp799
g23
Vhttp://feeds.gawker.com/~r/io9/full/~3/Zo2VXW7fGn0/a-startup-has-developed-a-contraceptive-chip-for-women-1603038260
p800
sg25
g26
sg27
g28
stRp801
asg13
g14
((I2014
I7
I10
I22
I20
I0
I3
I191
I0
t(dtRp802
sg16
VA startup has developed a contraceptive chip for women that can be turned on and off using a remote
p803
sS'feedburner_origlink'
p804
Vhttp://io9.com/a-startup-has-developed-a-contraceptive-chip-for-women-1603038260
p805
sg120
(lp806
g1
(g2
g3
(dp807
g123
Vbiotechnology
p808
sg125
Nsg126
NstRp809
ag1
(g2
g3
(dp810
g123
Vfuturism
p811
sg125
Nsg126
NstRp812
ag1
(g2
g3
(dp813
g123
Vcontraceptives
p814
sg125
Nsg126
NstRp815
ag1
(g2
g3
(dp816
g123
Vreproductive technology
p817
sg125
Nsg126
NstRp818
ag1
(g2
g3
(dp819
g123
Vimplants
p820
sg125
Nsg126
NstRp821
ag1
(g2
g3
(dp822
g123
Vscience
p823
sg125
Nsg126
NstRp824
asg137
g796
sg138
I00
sS'title_detail'
p825
g1
(g2
g3
(dp826
g50
Vhttp://feeds.gawker.com/io9/full
p827
sg25
g58
sg11
Nsg53
g803
stRp828
sg60
g800
sg143
VGeorge Dvorsky
p829
sg18
VThu, 10 Jul 2014 22:20:00 GMT
p830
sg146
(lp831
g1
(g2
g3
(dtRp832
asS'author_detail'
p833
g1
(g2
g3
(dp834
g151
g829
stRp835
sg153
Vhttp://feeds.gawker.com/io9/1603038260
p836
stRp837
ag1
(g2
g3
(dp838
S'summary_detail'
p839
g1
(g2
g3
(dp840
g50
Vhttp://feeds.gawker.com/io9/full
p841
sg25
g52
sg11
Nsg53
V<p class="has-media media-640"><img alt="These Steampunk Computers Transport Us To The Victorian Retro Future" class="transform-original" height="358" src="http://i.kinja-img.com/gawker-media/image/upload/s--IZdaFyTe--/mjompggkr5vqc17sykbn.jpg" width="636" /></p> <h3></h3> <p class="first-text">In an alternate reality Charles Babbage's difference engine and Ada Lovelace's computer programming led us into a world filled with brass-keyed laptops with phonograph speaker systems. Several artists have brought that imagined reality to life, building working computers with a steampunk edge.</p><p><a href="http://io9.com/these-steampunk-computers-transport-us-to-the-victorian-1603040050">Read more...</a></p><img border="0" height="1" src="http://io9.feedsportal.com/c/34975/f/647163/s/3c615f56/sc/46/mf.gif" width="1" /><br clear="all" /><img height="1" src="http://feeds.feedburner.com/~r/io9/full/~4/uVLSRGbpiN0" width="1" />
p842
stRp843
sg20
(lp844
g1
(g2
g3
(dp845
g23
Vhttp://feeds.gawker.com/~r/io9/full/~3/uVLSRGbpiN0/these-steampunk-computers-transport-us-to-the-victorian-1603040050
p846
sg25
g26
sg27
g28
stRp847
asg13
g14
((I2014
I7
I10
I22
I15
I0
I3
I191
I0
t(dtRp848
sg16
VThese Steampunk Computers Transport Us To The Victorian Retro Future
p849
sS'feedburner_origlink'
p850
Vhttp://io9.com/these-steampunk-computers-transport-us-to-the-victorian-1603040050
p851
sg120
(lp852
g1
(g2
g3
(dp853
g123
Vart
p854
sg125
Nsg126
NstRp855
ag1
(g2
g3
(dp856
g123
Vsculpture
p857
sg125
Nsg126
NstRp858
ag1
(g2
g3
(dp859
g123
Vconcept art
p860
sg125
Nsg126
NstRp861
ag1
(g2
g3
(dp862
g123
Vretrofuturism
p863
sg125
Nsg126
NstRp864
ag1
(g2
g3
(dp865
g123
Vsteampunk
p866
sg125
Nsg126
NstRp867
asg137
g842
sg138
I00
sS'title_detail'
p868
g1
(g2
g3
(dp869
g50
Vhttp://feeds.gawker.com/io9/full
p870
sg25
g58
sg11
Nsg53
g849
stRp871
sg60
g846
sg143
VVincze Mikls
p872
sg18
VThu, 10 Jul 2014 22:15:00 GMT
p873
sg146
(lp874
g1
(g2
g3
(dtRp875
asS'author_detail'
p876
g1
(g2
g3
(dp877
g151
g872
stRp878
sg153
Vhttp://feeds.gawker.com/io9/1603040050
p879
stRp880
ag1
(g2
g3
(dp881
S'summary_detail'
p882
g1
(g2
g3
(dp883
g50
Vhttp://feeds.gawker.com/io9/full
p884
sg25
g52
sg11
Nsg53
V<p class="first-text"> <strong>Gawker</strong> <a href="http://bit.ly/TVLtGh" target="_blank">House Candidate Offers $100,000 for Trophy-Hunting Cheerleader's Nudes</a> | <strong>Jalopnik</strong> <a href="http://bit.ly/1mE0Mi9" target="_blank">The LaFerrari XX Is So Fast It Breaks Itself</a> | <strong>Jezebel</strong> <a href="http://bit.ly/1jvgRbd" target="_blank">White Lady Drives Mercedes to Pick Up Food Stamps; Chaos Ensues</a> | <strong>Kotaku</strong> <a href="http://bit.ly/U5NMXM" target="_blank">The Best Way To Break Bad News Is With GIFs</a> | <strong>Kinja </strong><a href="http://j-smith.kinja.com/best-of-kinja-1603161246?utm_source=recirculation&#38;utm_medium=recirculation&#38;utm_campaign=thursdayPM" target="_blank">Popular Posts</a> </p><p><a href="http://io9.com/gawker-house-candidate-offers-100-000-for-trophy-hunti-1603237767">Read more...</a></p><img border="0" height="1" src="http://io9.feedsportal.com/c/34975/f/647163/s/3c619087/sc/10/mf.gif" width="1" /><br clear="all" /><br /><br /><a href="http://da.feedsportal.com/r/199120262213/u/94/f/647163/c/34975/s/3c619087/sc/10/rc/1/rc.htm" rel="nofollow"><img border="0" src="http://da.feedsportal.com/r/199120262213/u/94/f/647163/c/34975/s/3c619087/sc/10/rc/1/rc.img" /></a><br /><a href="http://da.feedsportal.com/r/199120262213/u/94/f/647163/c/34975/s/3c619087/sc/10/rc/2/rc.htm" rel="nofollow"><img border="0" src="http://da.feedsportal.com/r/199120262213/u/94/f/647163/c/34975/s/3c619087/sc/10/rc/2/rc.img" /></a><br /><a href="http://da.feedsportal.com/r/199120262213/u/94/f/647163/c/34975/s/3c619087/sc/10/rc/3/rc.htm" rel="nofollow"><img border="0" src="http://da.feedsportal.com/r/199120262213/u/94/f/647163/c/34975/s/3c619087/sc/10/rc/3/rc.img" /></a><br /><br /><a href="http://da.feedsportal.com/r/199120262213/u/94/f/647163/c/34975/s/3c619087/sc/10/a2.htm"><img border="0" src="http://da.feedsportal.com/r/199120262213/u/94/f/647163/c/34975/s/3c619087/sc/10/a2.img" /></a><img border="0" height="1" src="http://pi.feedsportal.com/r/199120262213/u/94/f/647163/c/34975/s/3c619087/sc/10/a2t.img" width="1" /><img height="1" src="http://feeds.feedburner.com/~r/io9/full/~4/Qp_gtxToYW8" width="1" />
p885
stRp886
sg20
(lp887
g1
(g2
g3
(dp888
g23
Vhttp://feeds.gawker.com/~r/io9/full/~3/Qp_gtxToYW8/gawker-house-candidate-offers-100-000-for-trophy-hunti-1603237767
p889
sg25
g26
sg27
g28
stRp890
asg13
g14
((I2014
I7
I10
I22
I13
I0
I3
I191
I0
t(dtRp891
sg16
VGawker House Candidate Offers $100,000 for Trophy-Hunting Cheerleader's Nudes | Jalopnik The LaFerra
p892
sS'feedburner_origlink'
p893
Vhttp://io9.com/gawker-house-candidate-offers-100-000-for-trophy-hunti-1603237767
p894
sg120
(lp895
g1
(g2
g3
(dp896
g123
Vafternoon favorites
p897
sg125
Nsg126
NstRp898
asg137
g885
sg138
I00
sS'title_detail'
p899
g1
(g2
g3
(dp900
g50
Vhttp://feeds.gawker.com/io9/full
p901
sg25
g58
sg11
Nsg53
g892
stRp902
sg60
g889
sg143
VJessica Smith
p903
sg18
VThu, 10 Jul 2014 22:13:00 GMT
p904
sg146
(lp905
g1
(g2
g3
(dtRp906
asS'author_detail'
p907
g1
(g2
g3
(dp908
g151
g903
stRp909
sg153
Vhttp://feeds.gawker.com/io9/1603237767
p910
stRp911
ag1
(g2
g3
(dp912
S'summary_detail'
p913
g1
(g2
g3
(dp914
g50
Vhttp://feeds.gawker.com/io9/full
p915
sg25
g52
sg11
Nsg53
V<p class="has-media media-640"><img alt="The Science Fiction And Fantasy TV Shows That Had Perfect First Seasons" class="transform-ku-xlarge" height="367" src="http://i.kinja-img.com/gawker-media/image/upload/s--KYsM9Fy0--/c_fit,fl_progressive,q_80,w_636/wq1ezej7yw74eajm8e5f.jpg" width="636" /></p> <p class="first-text">We take it for granted that TV shows need to take some time to find their feet and get into a groove \u2014 especially genre shows, where the concepts have to "gel." But some shows manage to come out of the gate strong. What are your picks for the science fiction and fantasy shows that had (nearly) perfect first seasons?</p><p><a href="http://io9.com/the-science-fiction-and-fantasy-tv-shows-that-had-perfe-1603214104">Read more...</a></p><img border="0" height="1" src="http://io9.feedsportal.com/c/34975/f/647163/s/3c60de2c/sc/38/mf.gif" width="1" /><br clear="all" /><br /><br /><a href="http://da.feedsportal.com/r/199120601660/u/94/f/647163/c/34975/s/3c60de2c/sc/38/rc/1/rc.htm" rel="nofollow"><img border="0" src="http://da.feedsportal.com/r/199120601660/u/94/f/647163/c/34975/s/3c60de2c/sc/38/rc/1/rc.img" /></a><br /><a href="http://da.feedsportal.com/r/199120601660/u/94/f/647163/c/34975/s/3c60de2c/sc/38/rc/2/rc.htm" rel="nofollow"><img border="0" src="http://da.feedsportal.com/r/199120601660/u/94/f/647163/c/34975/s/3c60de2c/sc/38/rc/2/rc.img" /></a><br /><a href="http://da.feedsportal.com/r/199120601660/u/94/f/647163/c/34975/s/3c60de2c/sc/38/rc/3/rc.htm" rel="nofollow"><img border="0" src="http://da.feedsportal.com/r/199120601660/u/94/f/647163/c/34975/s/3c60de2c/sc/38/rc/3/rc.img" /></a><br /><br /><a href="http://da.feedsportal.com/r/199120601660/u/94/f/647163/c/34975/s/3c60de2c/sc/38/a2.htm"><img border="0" src="http://da.feedsportal.com/r/199120601660/u/94/f/647163/c/34975/s/3c60de2c/sc/38/a2.img" /></a><img border="0" height="1" src="http://pi.feedsportal.com/r/199120601660/u/94/f/647163/c/34975/s/3c60de2c/sc/38/a2t.img" width="1" /><img height="1" src="http://feeds.feedburner.com/~r/io9/full/~4/lJoKORmQmkM" width="1" />
p916
stRp917
sg20
(lp918
g1
(g2
g3
(dp919
g23
Vhttp://feeds.gawker.com/~r/io9/full/~3/lJoKORmQmkM/the-science-fiction-and-fantasy-tv-shows-that-had-perfe-1603214104
p920
sg25
g26
sg27
g28
stRp921
asg13
g14
((I2014
I7
I10
I21
I47
I0
I3
I191
I0
t(dtRp922
sg16
VThe Science Fiction And Fantasy TV Shows That Had Perfect First Seasons
p923
sS'feedburner_origlink'
p924
Vhttp://io9.com/the-science-fiction-and-fantasy-tv-shows-that-had-perfe-1603214104
p925
sg143
VCharlie Jane Anders
p926
sg137
g916
sg138
I00
sS'title_detail'
p927
g1
(g2
g3
(dp928
g50
Vhttp://feeds.gawker.com/io9/full
p929
sg25
g58
sg11
Nsg53
g923
stRp930
sg60
g920
sg146
(lp931
g1
(g2
g3
(dtRp932
asS'author_detail'
p933
g1
(g2
g3
(dp934
g151
g926
stRp935
sg153
Vhttp://feeds.gawker.com/io9/1603214104
p936
sg18
VThu, 10 Jul 2014 21:47:00 GMT
p937
stRp938
ag1
(g2
g3
(dp939
S'summary_detail'
p940
g1
(g2
g3
(dp941
g50
Vhttp://feeds.gawker.com/io9/full
p942
sg25
g52
sg11
Nsg53
V<p class="has-media media-640"><img alt="The Mississippi Girl " class="transform-ku-xlarge" height="357" src="http://i.kinja-img.com/gawker-media/image/upload/s--g-sRGMbe--/c_fit,fl_progressive,q_80,w_636/nodzs5gzrkliikyq2dyj.jpg" width="636" /></p> <p class="first-text">In March, 2013, doctors reported that a Mississippi-born child treated early and aggressively for HIV <a href="http://io9.com/5988214/hiv-has-been-cured-in-a-child-for-the-first-time">had been effectively cured of the virus</a> . Now, the child's doctors say the infection has returned. </p><p><a href="http://io9.com/the-mississippi-girl-cured-of-hiv-was-not-actually-cu-1603156961">Read more...</a></p><img border="0" height="1" src="http://io9.feedsportal.com/c/34975/f/647163/s/3c60ef96/sc/32/mf.gif" width="1" /><br clear="all" /><br /><br /><a href="http://da.feedsportal.com/r/199120261678/u/94/f/647163/c/34975/s/3c60ef96/sc/32/rc/1/rc.htm" rel="nofollow"><img border="0" src="http://da.feedsportal.com/r/199120261678/u/94/f/647163/c/34975/s/3c60ef96/sc/32/rc/1/rc.img" /></a><br /><a href="http://da.feedsportal.com/r/199120261678/u/94/f/647163/c/34975/s/3c60ef96/sc/32/rc/2/rc.htm" rel="nofollow"><img border="0" src="http://da.feedsportal.com/r/199120261678/u/94/f/647163/c/34975/s/3c60ef96/sc/32/rc/2/rc.img" /></a><br /><a href="http://da.feedsportal.com/r/199120261678/u/94/f/647163/c/34975/s/3c60ef96/sc/32/rc/3/rc.htm" rel="nofollow"><img border="0" src="http://da.feedsportal.com/r/199120261678/u/94/f/647163/c/34975/s/3c60ef96/sc/32/rc/3/rc.img" /></a><br /><br /><a href="http://da.feedsportal.com/r/199120261678/u/94/f/647163/c/34975/s/3c60ef96/sc/32/a2.htm"><img border="0" src="http://da.feedsportal.com/r/199120261678/u/94/f/647163/c/34975/s/3c60ef96/sc/32/a2.img" /></a><img border="0" height="1" src="http://pi.feedsportal.com/r/199120261678/u/94/f/647163/c/34975/s/3c60ef96/sc/32/a2t.img" width="1" /><img height="1" src="http://feeds.feedburner.com/~r/io9/full/~4/OaC1luKP3ZE" width="1" />
p943
stRp944
sg20
(lp945
g1
(g2
g3
(dp946
g23
Vhttp://feeds.gawker.com/~r/io9/full/~3/OaC1luKP3ZE/the-mississippi-girl-cured-of-hiv-was-not-actually-cu-1603156961
p947
sg25
g26
sg27
g28
stRp948
asg13
g14
((I2014
I7
I10
I21
I43
I0
I3
I191
I0
t(dtRp949
sg16
VThe Mississippi Girl "Cured" of HIV Was Not Actually Cured
p950
sS'feedburner_origlink'
p951
Vhttp://io9.com/the-mississippi-girl-cured-of-hiv-was-not-actually-cu-1603156961
p952
sg120
(lp953
g1
(g2
g3
(dp954
g123
Vmississippi
p955
sg125
Nsg126
NstRp956
ag1
(g2
g3
(dp957
g123
Vdeborah persaud
p958
sg125
Nsg126
NstRp959
ag1
(g2
g3
(dp960
g123
Vart
p961
sg125
Nsg126
NstRp962
ag1
(g2
g3
(dp963
g123
Vhiv
p964
sg125
Nsg126
NstRp965
ag1
(g2
g3
(dp966
g123
Vhannah gay
p967
sg125
Nsg126
NstRp968
ag1
(g2
g3
(dp969
g123
Vhealth
p970
sg125
Nsg126
NstRp971
ag1
(g2
g3
(dp972
g123
Vsci
p973
sg125
Nsg126
NstRp974
ag1
(g2
g3
(dp975
g123
Vvirology
p976
sg125
Nsg126
NstRp977
ag1
(g2
g3
(dp978
g123
Vantiretroviral therapy
p979
sg125
Nsg126
NstRp980
ag1
(g2
g3
(dp981
g123
Vmedicine
p982
sg125
Nsg126
NstRp983
ag1
(g2
g3
(dp984
g123
Vscience
p985
sg125
Nsg126
NstRp986
asg137
g943
sg138
I00
sS'title_detail'
p987
g1
(g2
g3
(dp988
g50
Vhttp://feeds.gawker.com/io9/full
p989
sg25
g58
sg11
Nsg53
g950
stRp990
sg60
g947
sg143
VRobert T. Gonzalez
p991
sg18
VThu, 10 Jul 2014 21:43:00 GMT
p992
sg146
(lp993
g1
(g2
g3
(dtRp994
asS'author_detail'
p995
g1
(g2
g3
(dp996
g151
g991
stRp997
sg153
Vhttp://feeds.gawker.com/io9/1603156961
p998
stRp999
ag1
(g2
g3
(dp1000
S'summary_detail'
p1001
g1
(g2
g3
(dp1002
g50
Vhttp://feeds.gawker.com/io9/full
p1003
sg25
g52
sg11
Nsg53
V<p class="has-media media-640"><img alt="Thankfully, Extant Isn't All About Halle Berry's Space Pregnancy" class="transform-ku-xlarge" height="355" src="http://i.kinja-img.com/gawker-media/image/upload/s--4kVE_AMG--/c_fit,fl_progressive,q_80,w_636/pwdacjmizadhct2bk6fz.png" width="636" /></p> <p class="first-text"> <em>Extant</em>, the new series that finds Halle Berry's character inexplicably pregnant after a solo space mission, may not be the smartest series on television, but it could prove a fun summer mystery show. And fortunately, there's more to it than Berry gazing at her not-yet-expanding navel.</p><p><a href="http://io9.com/thankfully-extant-isnt-all-about-halle-berrys-space-pr-1603204610">Read more...</a></p><img border="0" height="1" src="http://io9.feedsportal.com/c/34975/f/647163/s/3c60d90d/sc/19/mf.gif" width="1" /><br clear="all" /><br /><br /><a href="http://da.feedsportal.com/r/199120601123/u/94/f/647163/c/34975/s/3c60d90d/sc/19/rc/1/rc.htm" rel="nofollow"><img border="0" src="http://da.feedsportal.com/r/199120601123/u/94/f/647163/c/34975/s/3c60d90d/sc/19/rc/1/rc.img" /></a><br /><a href="http://da.feedsportal.com/r/199120601123/u/94/f/647163/c/34975/s/3c60d90d/sc/19/rc/2/rc.htm" rel="nofollow"><img border="0" src="http://da.feedsportal.com/r/199120601123/u/94/f/647163/c/34975/s/3c60d90d/sc/19/rc/2/rc.img" /></a><br /><a href="http://da.feedsportal.com/r/199120601123/u/94/f/647163/c/34975/s/3c60d90d/sc/19/rc/3/rc.htm" rel="nofollow"><img border="0" src="http://da.feedsportal.com/r/199120601123/u/94/f/647163/c/34975/s/3c60d90d/sc/19/rc/3/rc.img" /></a><br /><br /><a href="http://da.feedsportal.com/r/199120601123/u/94/f/647163/c/34975/s/3c60d90d/sc/19/a2.htm"><img border="0" src="http://da.feedsportal.com/r/199120601123/u/94/f/647163/c/34975/s/3c60d90d/sc/19/a2.img" /></a><img border="0" height="1" src="http://pi.feedsportal.com/r/199120601123/u/94/f/647163/c/34975/s/3c60d90d/sc/19/a2t.img" width="1" /><img height="1" src="http://feeds.feedburner.com/~r/io9/full/~4/YY_N5iwG_bA" width="1" />
p1004
stRp1005
sg20
(lp1006
g1
(g2
g3
(dp1007
g23
Vhttp://feeds.gawker.com/~r/io9/full/~3/YY_N5iwG_bA/thankfully-extant-isnt-all-about-halle-berrys-space-pr-1603204610
p1008
sg25
g26
sg27
g28
stRp1009
asg13
g14
((I2014
I7
I10
I21
I30
I0
I3
I191
I0
t(dtRp1010
sg16
VThankfully, Extant Isn't All About Halle Berry's Space Pregnancy
p1011
sS'feedburner_origlink'
p1012
Vhttp://io9.com/thankfully-extant-isnt-all-about-halle-berrys-space-pr-1603204610
p1013
sg120
(lp1014
g1
(g2
g3
(dp1015
g123
Vhalle berry
p1016
sg125
Nsg126
NstRp1017
ag1
(g2
g3
(dp1018
g123
Vtelevision
p1019
sg125
Nsg126
NstRp1020
ag1
(g2
g3
(dp1021
g123
Vtv recap
p1022
sg125
Nsg126
NstRp1023
ag1
(g2
g3
(dp1024
g123
Vextant
p1025
sg125
Nsg126
NstRp1026
asg137
g1004
sg138
I00
sS'title_detail'
p1027
g1
(g2
g3
(dp1028
g50
Vhttp://feeds.gawker.com/io9/full
p1029
sg25
g58
sg11
Nsg53
g1011
stRp1030
sg60
g1008
sg143
VLauren Davis
p1031
sg18
VThu, 10 Jul 2014 21:30:00 GMT
p1032
sg146
(lp1033
g1
(g2
g3
(dtRp1034
asS'author_detail'
p1035
g1
(g2
g3
(dp1036
g151
g1031
stRp1037
sg153
Vhttp://feeds.gawker.com/io9/1603204610
p1038
stRp1039
ag1
(g2
g3
(dp1040
S'summary_detail'
p1041
g1
(g2
g3
(dp1042
g50
Vhttp://feeds.gawker.com/io9/full
p1043
sg25
g52
sg11
Nsg53
V<p class="has-media media-640"><img alt="The Grisly Truth About Tiny Hamsters And What They Really Eat" class="transform-ku-xlarge" height="303" src="http://i.kinja-img.com/gawker-media/image/upload/s--kBjSmWFp--/c_fit,fl_progressive,q_80,w_636/urtj4p5r49wvvtgv7xjh.gif" width="636" /></p> <p class="first-text">As Jason Bittel explains in somewhat distressing detail over at <em>Slate</em>, the truth about hamsters and burritos is that hamsters, contrary to what viral videos would have you believe, do not eat <a href="http://sploid.gizmodo.com/tiny-hamster-eat-tiny-burritos-in-hilarious-tiny-video-1569534544" target="_blank">little burritos</a> , <a href="http://sploid.gizmodo.com/tiny-hamsters-eat-tiny-cakes-for-a-super-silly-tiny-bir-1602121104" target="_blank">tiny cakes</a> , or <a href="http://gawker.com/tiny-hamster-who-eats-tiny-burritos-returns-with-a-tiny-1573411249" target="_blank">mini pizzas</a> . <a href="http://www.slate.com/blogs/wild_things/2014/07/10/video_of_hamster_eating_a_burrito_hamster_cannibalism_and_other_viral_videos.html" target="_blank">They eat each other</a>.</p><p><a href="http://io9.com/the-grisly-truth-about-tiny-hamsters-and-what-they-real-1603124799">Read more...</a></p><img border="0" height="1" src="http://io9.feedsportal.com/c/34975/f/647163/s/3c60d907/sc/38/mf.gif" width="1" /><br clear="all" /><br /><br /><a href="http://da.feedsportal.com/r/199120601122/u/94/f/647163/c/34975/s/3c60d907/sc/38/rc/1/rc.htm" rel="nofollow"><img border="0" src="http://da.feedsportal.com/r/199120601122/u/94/f/647163/c/34975/s/3c60d907/sc/38/rc/1/rc.img" /></a><br /><a href="http://da.feedsportal.com/r/199120601122/u/94/f/647163/c/34975/s/3c60d907/sc/38/rc/2/rc.htm" rel="nofollow"><img border="0" src="http://da.feedsportal.com/r/199120601122/u/94/f/647163/c/34975/s/3c60d907/sc/38/rc/2/rc.img" /></a><br /><a href="http://da.feedsportal.com/r/199120601122/u/94/f/647163/c/34975/s/3c60d907/sc/38/rc/3/rc.htm" rel="nofollow"><img border="0" src="http://da.feedsportal.com/r/199120601122/u/94/f/647163/c/34975/s/3c60d907/sc/38/rc/3/rc.img" /></a><br /><br /><a href="http://da.feedsportal.com/r/199120601122/u/94/f/647163/c/34975/s/3c60d907/sc/38/a2.htm"><img border="0" src="http://da.feedsportal.com/r/199120601122/u/94/f/647163/c/34975/s/3c60d907/sc/38/a2.img" /></a><img border="0" height="1" src="http://pi.feedsportal.com/r/199120601122/u/94/f/647163/c/34975/s/3c60d907/sc/38/a2t.img" width="1" /><img height="1" src="http://feeds.feedburner.com/~r/io9/full/~4/Xg-rUPnxH8g" width="1" />
p1044
stRp1045
sg20
(lp1046
g1
(g2
g3
(dp1047
g23
Vhttp://feeds.gawker.com/~r/io9/full/~3/Xg-rUPnxH8g/the-grisly-truth-about-tiny-hamsters-and-what-they-real-1603124799
p1048
sg25
g26
sg27
g28
stRp1049
asg13
g14
((I2014
I7
I10
I21
I30
I0
I3
I191
I0
t(dtRp1050
sg16
VThe Grisly Truth About Tiny Hamsters And What They Really Eat
p1051
sS'feedburner_origlink'
p1052
Vhttp://io9.com/the-grisly-truth-about-tiny-hamsters-and-what-they-real-1603124799
p1053
sg120
(lp1054
g1
(g2
g3
(dp1055
g123
Vbiology
p1056
sg125
Nsg126
NstRp1057
ag1
(g2
g3
(dp1058
g123
Vplease god no
p1059
sg125
Nsg126
NstRp1060
ag1
(g2
g3
(dp1061
g123
Vanimals
p1062
sg125
Nsg126
NstRp1063
ag1
(g2
g3
(dp1064
g123
Vhamster
p1065
sg125
Nsg126
NstRp1066
ag1
(g2
g3
(dp1067
g123
Vnature red in tooth and claw
p1068
sg125
Nsg126
NstRp1069
ag1
(g2
g3
(dp1070
g123
Vcannibalism
p1071
sg125
Nsg126
NstRp1072
ag1
(g2
g3
(dp1073
g123
Vscience
p1074
sg125
Nsg126
NstRp1075
asg137
g1044
sg138
I00
sS'title_detail'
p1076
g1
(g2
g3
(dp1077
g50
Vhttp://feeds.gawker.com/io9/full
p1078
sg25
g58
sg11
Nsg53
g1051
stRp1079
sg60
g1048
sg143
VRobert T. Gonzalez
p1080
sg18
VThu, 10 Jul 2014 21:30:00 GMT
p1081
sg146
(lp1082
g1
(g2
g3
(dtRp1083
asS'author_detail'
p1084
g1
(g2
g3
(dp1085
g151
g1080
stRp1086
sg153
Vhttp://feeds.gawker.com/io9/1603124799
p1087
stRp1088
ag1
(g2
g3
(dp1089
S'summary_detail'
p1090
g1
(g2
g3
(dp1091
g50
Vhttp://feeds.gawker.com/io9/full
p1092
sg25
g52
sg11
Nsg53
V<p class="has-media media-640"><img alt="Watch a Young Terry Gilliam Explain How He Makes Monty Python Animations" class="transform-ku-xlarge" height="298" src="http://i.kinja-img.com/gawker-media/image/upload/s--w3d_dljs--/c_fit,fl_progressive,q_80,w_636/z5qu1yu97o3kxyatkxu0.gif" width="636" /></p> <p class="first-text">There's a lot to love about vintage Monty Python\u2014dead parrots, silly walks, lumberjacks, killer rabbits\u2014but Terry Gilliam's magic touch with his signature cut-out animations really gave the group a goofball creative edge. In this clip from the early 1970s, a fresh-faced Gilliam (with an incredible 'do) describes his no-tech approach to the process. </p><p><a href="http://gizmodo.com/watch-a-young-terry-gilliam-explain-how-he-makes-monty-1603146449/+charliejane">Read more...</a></p><img border="0" height="1" src="http://io9.feedsportal.com/c/34975/f/647163/s/3c61a9e2/sc/38/mf.gif" width="1" /><br clear="all" /><img height="1" src="http://feeds.feedburner.com/~r/io9/full/~4/soGnSFFPkNI" width="1" />
p1093
stRp1094
sg20
(lp1095
g1
(g2
g3
(dp1096
g23
Vhttp://feeds.gawker.com/~r/io9/full/~3/soGnSFFPkNI/+charliejane
p1097
sg25
g26
sg27
g28
stRp1098
asg13
g14
((I2014
I7
I10
I21
I20
I0
I3
I191
I0
t(dtRp1099
sg16
VWatch a Young Terry Gilliam Explain How He Makes Monty Python Animations
p1100
sS'feedburner_origlink'
p1101
Vhttp://gizmodo.com/watch-a-young-terry-gilliam-explain-how-he-makes-monty-1603146449/+charliejane
p1102
sg120
(lp1103
g1
(g2
g3
(dp1104
g123
Vanimation
p1105
sg125
Nsg126
NstRp1106
ag1
(g2
g3
(dp1107
g123
Vterry gilliam
p1108
sg125
Nsg126
NstRp1109
ag1
(g2
g3
(dp1110
g123
Vmonty python
p1111
sg125
Nsg126
NstRp1112
asg137
g1093
sg138
I00
sS'title_detail'
p1113
g1
(g2
g3
(dp1114
g50
Vhttp://feeds.gawker.com/io9/full
p1115
sg25
g58
sg11
Nsg53
g1100
stRp1116
sg60
g1097
sg143
VJordan Kushins on Gizmodo, shared by Charlie Jane Anders to io9
p1117
sg18
VThu, 10 Jul 2014 21:20:00 GMT
p1118
sg146
(lp1119
g1
(g2
g3
(dtRp1120
asS'author_detail'
p1121
g1
(g2
g3
(dp1122
g151
g1117
stRp1123
sg153
Vhttp://feeds.gawker.com/io9/1603146449
p1124
stRp1125
ag1
(g2
g3
(dp1126
S'summary_detail'
p1127
g1
(g2
g3
(dp1128
g50
Vhttp://feeds.gawker.com/io9/full
p1129
sg25
g52
sg11
Nsg53
V<p class="has-media media-640"><img alt="A Breakthrough in Our Understanding of How Intelligence Evolves" class="transform-ku-xlarge" height="424" src="http://i.kinja-img.com/gawker-media/image/upload/s--V7qXOuEv--/c_fit,fl_progressive,q_80,w_636/805833940169468849.jpg" width="636" /></p> <p class="first-text">It's hard to study intelligence in humans \u2014 our cultures are incredibly complex, and what counts as "smart" is defined as much by our societies as it is by our genes. So some researchers have turned to chimpanzees to understand what actually gives rise to intelligence in the brain.</p><p><a href="http://animals.io9.com/understanding-chimpanzee-intelligence-can-shed-light-on-1603160206/1603196649/+AnnaleeNewitz">Read more...</a></p><img border="0" height="1" src="http://io9.feedsportal.com/c/34975/f/647163/s/3c6107f7/sc/46/mf.gif" width="1" /><br clear="all" /><br /><br /><a href="http://da.feedsportal.com/r/199107907211/u/94/f/647163/c/34975/s/3c6107f7/sc/46/rc/1/rc.htm" rel="nofollow"><img border="0" src="http://da.feedsportal.com/r/199107907211/u/94/f/647163/c/34975/s/3c6107f7/sc/46/rc/1/rc.img" /></a><br /><a href="http://da.feedsportal.com/r/199107907211/u/94/f/647163/c/34975/s/3c6107f7/sc/46/rc/2/rc.htm" rel="nofollow"><img border="0" src="http://da.feedsportal.com/r/199107907211/u/94/f/647163/c/34975/s/3c6107f7/sc/46/rc/2/rc.img" /></a><br /><a href="http://da.feedsportal.com/r/199107907211/u/94/f/647163/c/34975/s/3c6107f7/sc/46/rc/3/rc.htm" rel="nofollow"><img border="0" src="http://da.feedsportal.com/r/199107907211/u/94/f/647163/c/34975/s/3c6107f7/sc/46/rc/3/rc.img" /></a><br /><br /><a href="http://da.feedsportal.com/r/199107907211/u/94/f/647163/c/34975/s/3c6107f7/sc/46/a2.htm"><img border="0" src="http://da.feedsportal.com/r/199107907211/u/94/f/647163/c/34975/s/3c6107f7/sc/46/a2.img" /></a><img border="0" height="1" src="http://pi.feedsportal.com/r/199107907211/u/94/f/647163/c/34975/s/3c6107f7/sc/46/a2t.img" width="1" /><img height="1" src="http://feeds.feedburner.com/~r/io9/full/~4/g6li05zOR1U" width="1" />
p1130
stRp1131
sg20
(lp1132
g1
(g2
g3
(dp1133
g23
Vhttp://feeds.gawker.com/~r/io9/full/~3/g6li05zOR1U/+AnnaleeNewitz
p1134
sg25
g26
sg27
g28
stRp1135
asg13
g14
((I2014
I7
I10
I21
I4
I0
I3
I191
I0
t(dtRp1136
sg16
VA Breakthrough in Our Understanding of How Intelligence Evolves
p1137
sS'feedburner_origlink'
p1138
Vhttp://animals.io9.com/understanding-chimpanzee-intelligence-can-shed-light-on-1603160206/1603196649/+AnnaleeNewitz
p1139
sg120
(lp1140
g1
(g2
g3
(dp1141
g123
Vevolution
p1142
sg125
Nsg126
NstRp1143
ag1
(g2
g3
(dp1144
g123
Vbiology
p1145
sg125
Nsg126
NstRp1146
ag1
(g2
g3
(dp1147
g123
Vanimals
p1148
sg125
Nsg126
NstRp1149
asg137
g1130
sg138
I00
sS'title_detail'
p1150
g1
(g2
g3
(dp1151
g50
Vhttp://feeds.gawker.com/io9/full
p1152
sg25
g58
sg11
Nsg53
g1137
stRp1153
sg60
g1134
sg143
VAnnalee Newitz
p1154
sg18
VThu, 10 Jul 2014 21:04:00 GMT
p1155
sg146
(lp1156
g1
(g2
g3
(dtRp1157
asS'author_detail'
p1158
g1
(g2
g3
(dp1159
g151
g1154
stRp1160
sg153
Vhttp://feeds.gawker.com/io9/1603196649
p1161
stRp1162
asS'namespaces'
p1163
(dp1164
S''
Vhttp://www.w3.org/2005/Atom
p1165
sS'taxo'
p1166
Vhttp://purl.org/rss/1.0/modules/taxonomy/
p1167
sS'dc'
p1168
Vhttp://purl.org/dc/elements/1.1/
p1169
sS'itunes'
p1170
Vhttp://www.itunes.com/dtds/podcast-1.0.dtd
p1171
sS'rdf'
p1172
Vhttp://www.w3.org/1999/02/22-rdf-syntax-ns#
p1173
sS'feedburner'
p1174
Vhttp://rssnamespace.org/feedburner/ext/1.0
p1175
sstRp1176
.