ccopy_reg
_reconstructor
p1
(cfeedparser
FeedParserDict
p2
c__builtin__
dict
p3
(dp4
S'feed'
p5
g1
(g2
g3
(dp6
S'updated'
p7
VFri, 11 Jul 2014 03:17:18 -0000
p8
sS'subtitle'
p9
VBe a better gamer
p10
sS'links'
p11
(lp12
g1
(g2
g3
(dp13
S'href'
p14
Vhttp://day9.tv/archive
p15
sS'type'
p16
Vtext/html
p17
sS'rel'
p18
Valternate
p19
stRp20
ag1
(g2
g3
(dp21
S'href'
p22
Vhttp://day9.tv/rss/
p23
sg16
Vapplication/atom+xml
p24
sS'rel'
p25
Vself
p26
stRp27
asS'language'
p28
Ven
p29
sS'title'
p30
VDay[9]TV Dailies : Day[9]TV
p31
sS'subtitle_detail'
p32
g1
(g2
g3
(dp33
S'base'
p34
Vhttp://day9.tv/rss/
p35
sg16
Vtext/html
p36
sg28
NsS'value'
p37
g10
stRp38
sS'title_detail'
p39
g1
(g2
g3
(dp40
g34
Vhttp://day9.tv/rss/
p41
sg16
Vtext/plain
p42
sg28
Nsg37
g31
stRp43
sS'link'
p44
g15
sS'updated_parsed'
p45
ctime
struct_time
p46
((I2014
I7
I11
I3
I17
I18
I4
I192
I0
t(dtRp47
stRp48
sS'status'
p49
I200
sg7
S'Fri, 11 Jul 2014 10:17:18 GMT'
p50
sg45
g46
((I2014
I7
I11
I10
I17
I18
I4
I192
I0
t(dtRp51
sS'encoding'
p52
Vutf-8
p53
sS'bozo'
p54
I0
sS'headers'
p55
(dp56
S'content-length'
p57
S'5280'
p58
sS'content-encoding'
p59
S'gzip'
p60
sS'expires'
p61
S'Fri, 11 Jul 2014 10:18:18 GMT'
p62
sS'vary'
p63
S'Cookie, Accept-Encoding'
p64
sS'server'
p65
S'gunicorn/0.17.2'
p66
sS'last-modified'
p67
g50
sS'connection'
p68
S'Close'
p69
sS'cache-control'
p70
S'max-age=60'
p71
sS'date'
p72
S'Fri, 11 Jul 2014 10:17:18 GMT'
p73
sS'x-frame-options'
p74
S'SAMEORIGIN'
p75
sS'content-type'
p76
S'application/rss+xml; charset=utf-8'
p77
ssg14
Vhttp://day9.tv/rss/
p78
sS'version'
p79
Vrss20
p80
sS'entries'
p81
(lp82
g1
(g2
g3
(dp83
S'summary_detail'
p84
g1
(g2
g3
(dp85
g34
Vhttp://day9.tv/rss/
p86
sg16
g36
sg28
Nsg37
VI'm currently 7-0 w/ my awesome priest. Hoping to wrap up this arena run with a clean 12-0. Baus mode engaged. [edit] Starting slightly late due to conflicts with THE INTERNATIONAL 4! AKA I'm watching Liquid vs Newbee
p87
stRp88
sg11
(lp89
g1
(g2
g3
(dp90
g14
Vhttp://day9.tv/d/Day9/day9-hearthstone-decktacular-24-arena-run-day-2/
p91
sg16
g17
sg18
g19
stRp92
asg30
VDay[9] HearthSTone Decktacular #24 - Arena Run Day 2 by Day9
p93
sS'summary'
p94
g87
sS'guidislink'
p95
I00
sS'title_detail'
p96
g1
(g2
g3
(dp97
g34
Vhttp://day9.tv/rss/
p98
sg16
g42
sg28
Nsg37
g93
stRp99
sg44
g91
sS'id'
p100
Vhttp://day9.tv/d/Day9/day9-hearthstone-decktacular-24-arena-run-day-2/
p101
stRp102
ag1
(g2
g3
(dp103
S'summary_detail'
p104
g1
(g2
g3
(dp105
g34
Vhttp://day9.tv/rss/
p106
sg16
g36
sg28
Nsg37
VPigBaby blew everyone's mind by going for mass observer/zealot vs terran! We'll be analyzing this new school mixture by checking out Pigbaby's games vs TaeJa and Bomber! We'll see
p107
stRp108
sg11
(lp109
g1
(g2
g3
(dp110
g14
Vhttp://day9.tv/d/Day9/day9-daily-722-pigbabys-pvt-obszealot-style/
p111
sg16
g17
sg18
g19
stRp112
asg30
VDay[9] Daily #722 - PigBaby's PvT Obs/Zealot style  by Day9
p113
sg94
g107
sg95
I00
sS'title_detail'
p114
g1
(g2
g3
(dp115
g34
Vhttp://day9.tv/rss/
p116
sg16
Vtext/html
p117
sg28
Nsg37
g113
stRp118
sg44
g111
sg100
Vhttp://day9.tv/d/Day9/day9-daily-722-pigbabys-pvt-obszealot-style/
p119
stRp120
ag1
(g2
g3
(dp121
S'summary_detail'
p122
g1
(g2
g3
(dp123
g34
Vhttp://day9.tv/rss/
p124
sg16
g36
sg28
Nsg37
VIn tonight's funday, you must win by never ever attacking your enemy, except ONCE. During that attack, you must notify it with a battlecry. Hopefully this will be enough damage to put you into the lead given that, otherwise, you ...
p125
stRp126
sg11
(lp127
g1
(g2
g3
(dp128
g14
Vhttp://day9.tv/d/Day9/day9-daily-721-funday-monday-never-ever-attack/
p129
sg16
g17
sg18
g19
stRp130
asg30
VDay[9] Daily #721 - Funday Monday - Never Ever Attack by Day9
p131
sg94
g125
sg95
I00
sS'title_detail'
p132
g1
(g2
g3
(dp133
g34
Vhttp://day9.tv/rss/
p134
sg16
g42
sg28
Nsg37
g131
stRp135
sg44
g129
sg100
Vhttp://day9.tv/d/Day9/day9-daily-721-funday-monday-never-ever-attack/
p136
stRp137
ag1
(g2
g3
(dp138
S'summary_detail'
p139
g1
(g2
g3
(dp140
g34
Vhttp://day9.tv/rss/
p141
sg16
g36
sg28
Nsg37
VI LIVE IN A NEW PLACE! IN A NEW HOUSE!~ Celebrate with me. Lets play some SC2 Arcade n' Monobattlin fun :). This will be a slightly shorter show due to the 4th of July fun! Yahoo! :D
p142
stRp143
sg11
(lp144
g1
(g2
g3
(dp145
g14
Vhttp://day9.tv/d/Day9/day9s-day-off-subscriber-games_1/
p146
sg16
g17
sg18
g19
stRp147
asg30
VDay[9]'s Day Off - Subscriber games! by Day9
p148
sg94
g142
sg95
I00
sS'title_detail'
p149
g1
(g2
g3
(dp150
g34
Vhttp://day9.tv/rss/
p151
sg16
g117
sg28
Nsg37
g148
stRp152
sg44
g146
sg100
Vhttp://day9.tv/d/Day9/day9s-day-off-subscriber-games_1/
p153
stRp154
ag1
(g2
g3
(dp155
S'summary_detail'
p156
g1
(g2
g3
(dp157
g34
Vhttp://day9.tv/rss/
p158
sg16
g36
sg28
Nsg37
VJust as I find Maru to be incredibly impressive in TvP, we're going to look at his TvZ in the post-hellbat-buff meta vs Soulkey. Part 1 Part 2
p159
stRp160
sg11
(lp161
g1
(g2
g3
(dp162
g14
Vhttp://day9.tv/d/Day9/day9-daily-720-tba/
p163
sg16
g17
sg18
g19
stRp164
asg30
VDay[9] Daily #720 - Maru vs Soulkey - TvZ lets do this by Day9
p165
sg94
g159
sg95
I00
sS'title_detail'
p166
g1
(g2
g3
(dp167
g34
Vhttp://day9.tv/rss/
p168
sg16
g42
sg28
Nsg37
g165
stRp169
sg44
g163
sg100
Vhttp://day9.tv/d/Day9/day9-daily-720-tba/
p170
stRp171
ag1
(g2
g3
(dp172
S'summary_detail'
p173
g1
(g2
g3
(dp174
g34
Vhttp://day9.tv/rss/
p175
sg16
g36
sg28
Nsg37
VNEXT WEEK, I'll be finishing the Arena run I started in episode #22. However, I was so intrigued by the Crusher Shaman that I decided to give it a try today! I love decks that succeed with underused cards. It ...
p176
stRp177
sg11
(lp178
g1
(g2
g3
(dp179
g14
Vhttp://day9.tv/d/Day9/day9-hearthstone-decktacular-23-crusher-shaman/
p180
sg16
g17
sg18
g19
stRp181
asg30
VDay[9] HearthStone Decktacular #23 - Crusher Shaman by Day9
p182
sg94
g176
sg95
I00
sS'title_detail'
p183
g1
(g2
g3
(dp184
g34
Vhttp://day9.tv/rss/
p185
sg16
g42
sg28
Nsg37
g182
stRp186
sg44
g180
sg100
Vhttp://day9.tv/d/Day9/day9-hearthstone-decktacular-23-crusher-shaman/
p187
stRp188
ag1
(g2
g3
(dp189
S'summary_detail'
p190
g1
(g2
g3
(dp191
g34
Vhttp://day9.tv/rss/
p192
sg16
g36
sg28
Nsg37
VOk so Maru DIDN'T WIN this series, but he still played damn well. And, I believe that Terrans are struggling hard vs Protosses. It is therefore my duty to do some more dailies on this matchup. Terrans need to win ...
p193
stRp194
sg11
(lp195
g1
(g2
g3
(dp196
g14
Vhttp://day9.tv/d/Day9/day9-daily-719-maru-vs-classic/
p197
sg16
g17
sg18
g19
stRp198
asg30
VDay[9] Daily #719 - Maru vs Classic by Day9
p199
sg94
g193
sg95
I00
sS'title_detail'
p200
g1
(g2
g3
(dp201
g34
Vhttp://day9.tv/rss/
p202
sg16
g42
sg28
Nsg37
g199
stRp203
sg44
g197
sg100
Vhttp://day9.tv/d/Day9/day9-daily-719-maru-vs-classic/
p204
stRp205
ag1
(g2
g3
(dp206
S'summary_detail'
p207
g1
(g2
g3
(dp208
g34
Vhttp://day9.tv/rss/
p209
sg16
g36
sg28
Nsg37
VIn tonight's funday monday, you were required to tell your opponent EVERYTHING THAT YOU WERE DOING. You are permitted one lie in every game, and in that lie you must use the word "sensational." Lets see how you bastards do! ...
p210
stRp211
sg11
(lp212
g1
(g2
g3
(dp213
g14
Vhttp://day9.tv/d/Day9/day9-daily-718-funday-monday-tell-them-everything/
p214
sg16
g17
sg18
g19
stRp215
asg30
VDay[9] Daily #718 - Funday Monday - Tell them EVERYTHING by Day9
p216
sg94
g210
sg95
I00
sS'title_detail'
p217
g1
(g2
g3
(dp218
g34
Vhttp://day9.tv/rss/
p219
sg16
g42
sg28
Nsg37
g216
stRp220
sg44
g214
sg100
Vhttp://day9.tv/d/Day9/day9-daily-718-funday-monday-tell-them-everything/
p221
stRp222
ag1
(g2
g3
(dp223
S'summary_detail'
p224
g1
(g2
g3
(dp225
g34
Vhttp://day9.tv/rss/
p226
sg16
g36
sg28
Nsg37
VIt's my birthday! Time to stream some SHOVEL KNIGHT! Part 1 Part 2 Part 3 Part 4 Part 5
p227
stRp228
sg11
(lp229
g1
(g2
g3
(dp230
g14
Vhttp://day9.tv/d/Day9/day9-daily-718-shovel-knight/
p231
sg16
g17
sg18
g19
stRp232
asg30
VDay[9]'s Day Off - Shovel Knight by Day9
p233
sg94
g227
sg95
I00
sS'title_detail'
p234
g1
(g2
g3
(dp235
g34
Vhttp://day9.tv/rss/
p236
sg16
g117
sg28
Nsg37
g233
stRp237
sg44
g231
sg100
Vhttp://day9.tv/d/Day9/day9-daily-718-shovel-knight/
p238
stRp239
ag1
(g2
g3
(dp240
S'summary_detail'
p241
g1
(g2
g3
(dp242
g34
Vhttp://day9.tv/rss/
p243
sg16
g36
sg28
Nsg37
VI've officially moved to a new location! I now live in the Bay Area! Since I've been away for a while, I figured we'd just have a nice, fresh hangout time to do the happy time bonding <3
p244
stRp245
sg11
(lp246
g1
(g2
g3
(dp247
g14
Vhttp://day9.tv/d/Day9/day9-daily-717-chat-n-hangout/
p248
sg16
g17
sg18
g19
stRp249
asg30
VDay[9] Daily #717 - Chat n' Hangout! by Day9
p250
sg94
g244
sg95
I00
sS'title_detail'
p251
g1
(g2
g3
(dp252
g34
Vhttp://day9.tv/rss/
p253
sg16
g117
sg28
Nsg37
g250
stRp254
sg44
g248
sg100
Vhttp://day9.tv/d/Day9/day9-daily-717-chat-n-hangout/
p255
stRp256
ag1
(g2
g3
(dp257
S'summary_detail'
p258
g1
(g2
g3
(dp259
g34
Vhttp://day9.tv/rss/
p260
sg16
g36
sg28
Nsg37
VThe top North American StarCraft II players will battle it out for a spot to compete at the Battle Grounds North America event in order to be able to move on to the Battle Grounds Grand Final in Washington, D.C. ...
p261
stRp262
sg11
(lp263
g1
(g2
g3
(dp264
g14
Vhttp://day9.tv/d/Day9/red-bull-battle-grounds-qualifier-series-north-america-day-3/
p265
sg16
g17
sg18
g19
stRp266
asg30
VRed Bull Battle Grounds Qualifier Series - North America Day 3 by Day9
p267
sg94
g261
sg95
I00
sS'title_detail'
p268
g1
(g2
g3
(dp269
g34
Vhttp://day9.tv/rss/
p270
sg16
g42
sg28
Nsg37
g267
stRp271
sg44
g265
sg100
Vhttp://day9.tv/d/Day9/red-bull-battle-grounds-qualifier-series-north-america-day-3/
p272
stRp273
ag1
(g2
g3
(dp274
S'summary_detail'
p275
g1
(g2
g3
(dp276
g34
Vhttp://day9.tv/rss/
p277
sg16
g36
sg28
Nsg37
VThe top North American StarCraft II players will battle it out for a spot to compete at the Battle Grounds North America event in order to be able to move on to the Battle Grounds Grand Final in Washington, D.C. ...
p278
stRp279
sg11
(lp280
g1
(g2
g3
(dp281
g14
Vhttp://day9.tv/d/Day9/red-bull-battle-grounds-qualifier-series-north-america-day-2/
p282
sg16
g17
sg18
g19
stRp283
asg30
VRed Bull Battle Grounds Qualifier Series - North America Day 2 by Day9
p284
sg94
g278
sg95
I00
sS'title_detail'
p285
g1
(g2
g3
(dp286
g34
Vhttp://day9.tv/rss/
p287
sg16
g42
sg28
Nsg37
g284
stRp288
sg44
g282
sg100
Vhttp://day9.tv/d/Day9/red-bull-battle-grounds-qualifier-series-north-america-day-2/
p289
stRp290
ag1
(g2
g3
(dp291
S'summary_detail'
p292
g1
(g2
g3
(dp293
g34
Vhttp://day9.tv/rss/
p294
sg16
g36
sg28
Nsg37
VThe top North American StarCraft II players will battle it out for a spot to compete at the Battle Grounds North America event in order to be able to move on to the Battle Grounds Grand Final in Washington, D.C. ...
p295
stRp296
sg11
(lp297
g1
(g2
g3
(dp298
g14
Vhttp://day9.tv/d/Day9/red-bull-battle-grounds-qualifier-series-north-america-day-1/
p299
sg16
g17
sg18
g19
stRp300
asg30
VRed Bull Battle Grounds Qualifier Series - North America Day 1 by Day9
p301
sg94
g295
sg95
I00
sS'title_detail'
p302
g1
(g2
g3
(dp303
g34
Vhttp://day9.tv/rss/
p304
sg16
g42
sg28
Nsg37
g301
stRp305
sg44
g299
sg100
Vhttp://day9.tv/d/Day9/red-bull-battle-grounds-qualifier-series-north-america-day-1/
p306
stRp307
ag1
(g2
g3
(dp308
S'summary_detail'
p309
g1
(g2
g3
(dp310
g34
Vhttp://day9.tv/rss/
p311
sg16
g36
sg28
Nsg37
VI've been playing this lately, so I'm excited to give it a shot with Sensei JP battling w/ me all day. Hell yiss. Part 1 Part 2 Part 3 Part 4 Part 5
p312
stRp313
sg11
(lp314
g1
(g2
g3
(dp315
g14
Vhttp://day9.tv/d/Day9/day9s-day-off-csgo-w-jp/
p316
sg16
g17
sg18
g19
stRp317
asg30
VDay[9]'s Day Off - CS:GO w JP by Day9
p318
sg94
g312
sg95
I00
sS'title_detail'
p319
g1
(g2
g3
(dp320
g34
Vhttp://day9.tv/rss/
p321
sg16
g117
sg28
Nsg37
g318
stRp322
sg44
g316
sg100
Vhttp://day9.tv/d/Day9/day9s-day-off-csgo-w-jp/
p323
stRp324
ag1
(g2
g3
(dp325
S'summary_detail'
p326
g1
(g2
g3
(dp327
g34
Vhttp://day9.tv/rss/
p328
sg16
g36
sg28
Nsg37
VDespite FlaSh's best efforts, herO was able to take an excellent win vs FlaSh by defending multiple SCV pulls back to back to back. We'll examine how herO executes his defense so consistently by cutting geysers at his 3rd and ...
p329
stRp330
sg11
(lp331
g1
(g2
g3
(dp332
g14
Vhttp://day9.tv/d/Day9/day9-daily-716-flash-vs-hero/
p333
sg16
g17
sg18
g19
stRp334
asg30
VDay[9] Daily #716 - FlaSh vs herO by Day9
p335
sg94
g329
sg95
I00
sS'title_detail'
p336
g1
(g2
g3
(dp337
g34
Vhttp://day9.tv/rss/
p338
sg16
g42
sg28
Nsg37
g335
stRp339
sg44
g333
sg100
Vhttp://day9.tv/d/Day9/day9-daily-716-flash-vs-hero/
p340
stRp341
ag1
(g2
g3
(dp342
S'summary_detail'
p343
g1
(g2
g3
(dp344
g34
Vhttp://day9.tv/rss/
p345
sg16
g36
sg28
Nsg37
VI've never devoted a decktacular to an Arena Run, so lets try it out this Wednesday! :D If I'm STILL WINNING, I simply carry it over to the next week.
p346
stRp347
sg11
(lp348
g1
(g2
g3
(dp349
g14
Vhttp://day9.tv/d/Day9/day9-hearthstone-decktacular-22-an-arena-run/
p350
sg16
g17
sg18
g19
stRp351
asg30
VDay[9] HearthStone Decktacular #22 - An Arena Run! by Day9
p352
sg94
g346
sg95
I00
sS'title_detail'
p353
g1
(g2
g3
(dp354
g34
Vhttp://day9.tv/rss/
p355
sg16
g42
sg28
Nsg37
g352
stRp356
sg44
g350
sg100
Vhttp://day9.tv/d/Day9/day9-hearthstone-decktacular-22-an-arena-run/
p357
stRp358
ag1
(g2
g3
(dp359
S'summary_detail'
p360
g1
(g2
g3
(dp361
g34
Vhttp://day9.tv/rss/
p362
sg16
g36
sg28
Nsg37
VIn TotalBiscuit's amazing SanDisk ShoutCraft Invitational, FlaSh put up an astounding performance across all matchups to reconfirm his god status in SC2. In today's daily, we'll take a look at FlaSh's sexy mech moves in TvT to take out Bbyong. ...
p363
stRp364
sg11
(lp365
g1
(g2
g3
(dp366
g14
Vhttp://day9.tv/d/Day9/day9-daily-715-flash-vs-bbyong/
p367
sg16
g17
sg18
g19
stRp368
asg30
VDay[9] Daily #715 - Flash vs Bbyong by Day9
p369
sg94
g363
sg95
I00
sS'title_detail'
p370
g1
(g2
g3
(dp371
g34
Vhttp://day9.tv/rss/
p372
sg16
g42
sg28
Nsg37
g369
stRp373
sg44
g367
sg100
Vhttp://day9.tv/d/Day9/day9-daily-715-flash-vs-bbyong/
p374
stRp375
ag1
(g2
g3
(dp376
S'summary_detail'
p377
g1
(g2
g3
(dp378
g34
Vhttp://day9.tv/rss/
p379
sg16
g36
sg28
Nsg37
VIn today's funday, y'all must play in a team game where one player can build ANYTHING he likes, but the other players may only build medivacs. Let's see how much support you need! :D
p380
stRp381
sg11
(lp382
g1
(g2
g3
(dp383
g14
Vhttp://day9.tv/d/Day9/day9-daily-714-funday-monday-need-a-medic/
p384
sg16
g17
sg18
g19
stRp385
asg30
VDay[9] Daily #714 - Funday Monday - Need a Medic? by Day9
p386
sg94
g380
sg95
I00
sS'title_detail'
p387
g1
(g2
g3
(dp388
g34
Vhttp://day9.tv/rss/
p389
sg16
g42
sg28
Nsg37
g386
stRp390
sg44
g384
sg100
Vhttp://day9.tv/d/Day9/day9-daily-714-funday-monday-need-a-medic/
p391
stRp392
ag1
(g2
g3
(dp393
S'summary_detail'
p394
g1
(g2
g3
(dp395
g34
Vhttp://day9.tv/rss/
p396
sg16
g36
sg28
Nsg37
VI'm gonna play again because I love this game Part 1 Part 2 Part 3 Part 4 Part 5 Part 6 Part 7 Part 8 Part 9 Watch on Blip
p397
stRp398
sg11
(lp399
g1
(g2
g3
(dp400
g14
Vhttp://day9.tv/d/Day9/day9s-day-off-dark-souls-ii-day-5/
p401
sg16
g17
sg18
g19
stRp402
asg30
VDay[9]'s Day Off - Dark Souls II Day 5 by Day9
p403
sg94
g397
sg95
I00
sS'title_detail'
p404
g1
(g2
g3
(dp405
g34
Vhttp://day9.tv/rss/
p406
sg16
g117
sg28
Nsg37
g403
stRp407
sg44
g401
sg100
Vhttp://day9.tv/d/Day9/day9s-day-off-dark-souls-ii-day-5/
p408
stRp409
ag1
(g2
g3
(dp410
S'summary_detail'
p411
g1
(g2
g3
(dp412
g34
Vhttp://day9.tv/rss/
p413
sg16
g36
sg28
Nsg37
VI'm thoroughly enjoying these GSL Run episodes! In today's show, we'll look at Soulkey pull some very tough wins in two ZvP series vs Yonghwa and sOs! I'll add more details the day of the broadcast, but we'll be looking ...
p414
stRp415
sg11
(lp416
g1
(g2
g3
(dp417
g14
Vhttp://day9.tv/d/Day9/day9-daily-713-soulkeys-gsl-run/
p418
sg16
g17
sg18
g19
stRp419
asg30
VDay[9] Daily #713 - Soulkey's GSL Run by Day9
p420
sg94
g414
sg95
I00
sS'title_detail'
p421
g1
(g2
g3
(dp422
g34
Vhttp://day9.tv/rss/
p423
sg16
g117
sg28
Nsg37
g420
stRp424
sg44
g418
sg100
Vhttp://day9.tv/d/Day9/day9-daily-713-soulkeys-gsl-run/
p425
stRp426
ag1
(g2
g3
(dp427
S'summary_detail'
p428
g1
(g2
g3
(dp429
g34
Vhttp://day9.tv/rss/
p430
sg16
g36
sg28
Nsg37
VIn today's episode, we'll be testing out StrifeCro's control mage! The mage was the first class I played a ton in HearthStone, so the idea of a freezing and blasting mage is near and dear to my heart. The purpose ...
p431
stRp432
sg11
(lp433
g1
(g2
g3
(dp434
g14
Vhttp://day9.tv/d/Day9/day9-hearthstone-decktacular-21-control-mage/
p435
sg16
g17
sg18
g19
stRp436
asg30
VDay[9] HearthStone Decktacular #21 - Control Mage by Day9
p437
sg94
g431
sg95
I00
sS'title_detail'
p438
g1
(g2
g3
(dp439
g34
Vhttp://day9.tv/rss/
p440
sg16
g42
sg28
Nsg37
g437
stRp441
sg44
g435
sg100
Vhttp://day9.tv/d/Day9/day9-hearthstone-decktacular-21-control-mage/
p442
stRp443
ag1
(g2
g3
(dp444
S'summary_detail'
p445
g1
(g2
g3
(dp446
g34
Vhttp://day9.tv/rss/
p447
sg16
g36
sg28
Nsg37
VEven though he had a slightly more difficult journey through GSL, Innovation is BACK in the round of 16! Let's take a look at his ability to execute clean, low unit, high attack frequency stylin!
p448
stRp449
sg11
(lp450
g1
(g2
g3
(dp451
g14
Vhttp://day9.tv/d/Day9/day9-daily-711-innovations-gsl-run/
p452
sg16
g17
sg18
g19
stRp453
asg30
VDay[9] Daily #711 - Innovation's GSL Run! by Day9
p454
sg94
g448
sg95
I00
sS'title_detail'
p455
g1
(g2
g3
(dp456
g34
Vhttp://day9.tv/rss/
p457
sg16
g117
sg28
Nsg37
g454
stRp458
sg44
g452
sg100
Vhttp://day9.tv/d/Day9/day9-daily-711-innovations-gsl-run/
p459
stRp460
ag1
(g2
g3
(dp461
S'summary_detail'
p462
g1
(g2
g3
(dp463
g34
Vhttp://day9.tv/rss/
p464
sg16
g36
sg28
Nsg37
VYou may not build units that shoot air units. Queens are permissible ONLY IF THEY CHILL BY HATCHERIES! No offensive queen action! Submit yo' games to monday@day9.tv and be sure to follow the submission guidelines!
p465
stRp466
sg11
(lp467
g1
(g2
g3
(dp468
g14
Vhttp://day9.tv/d/Day9/day9-daily-712-funday-monday-no-anti-air/
p469
sg16
g17
sg18
g19
stRp470
asg30
VDay[9] Daily #712 - Funday Monday - No Anti-Air by Day9
p471
sg94
g465
sg95
I00
sS'title_detail'
p472
g1
(g2
g3
(dp473
g34
Vhttp://day9.tv/rss/
p474
sg16
g42
sg28
Nsg37
g471
stRp475
sg44
g469
sg100
Vhttp://day9.tv/d/Day9/day9-daily-712-funday-monday-no-anti-air/
p476
stRp477
ag1
(g2
g3
(dp478
S'summary_detail'
p479
g1
(g2
g3
(dp480
g34
Vhttp://day9.tv/rss/
p481
sg16
g36
sg28
Nsg37
V
stRp482
sg11
(lp483
g1
(g2
g3
(dp484
g14
Vhttp://day9.tv/d/Day9/ahgl-season-4-grand-finals-starcraft-ii-and-league-of-legends/
p485
sg16
g17
sg18
g19
stRp486
asg30
VAHGL Season 4 Grand Finals - StarCraft II and League of Legends by Day9
p487
sg94
V
sg95
I00
sS'title_detail'
p488
g1
(g2
g3
(dp489
g34
Vhttp://day9.tv/rss/
p490
sg16
g42
sg28
Nsg37
g487
stRp491
sg44
g485
sg100
Vhttp://day9.tv/d/Day9/ahgl-season-4-grand-finals-starcraft-ii-and-league-of-legends/
p492
stRp493
ag1
(g2
g3
(dp494
S'summary_detail'
p495
g1
(g2
g3
(dp496
g34
Vhttp://day9.tv/rss/
p497
sg16
g36
sg28
Nsg37
VTHE REVIEWS FINALLY CAME OUT! I'm totally gonna give this game a go for a lil bit at least. Hopefully it's good? :D Part 1 Part 2 Part 3 Part 4
p498
stRp499
sg11
(lp500
g1
(g2
g3
(dp501
g14
Vhttp://day9.tv/d/Day9/day9s-day-off-watch-dogs/
p502
sg16
g17
sg18
g19
stRp503
asg30
VDay[9]'s Day Off - Watch Dogs by Day9
p504
sg94
g498
sg95
I00
sS'title_detail'
p505
g1
(g2
g3
(dp506
g34
Vhttp://day9.tv/rss/
p507
sg16
g117
sg28
Nsg37
g504
stRp508
sg44
g502
sg100
Vhttp://day9.tv/d/Day9/day9s-day-off-watch-dogs/
p509
stRp510
ag1
(g2
g3
(dp511
S'summary_detail'
p512
g1
(g2
g3
(dp513
g34
Vhttp://day9.tv/rss/
p514
sg16
g36
sg28
Nsg37
VIf you can't beat'em, join em right? I'll be using this miracle rogue that I totally netdecked. Hopefully it fares better than the last deck I netdecked :P
p515
stRp516
sg11
(lp517
g1
(g2
g3
(dp518
g14
Vhttp://day9.tv/d/Day9/day9-hearthstone-decktacular-20-miracle-rogue/
p519
sg16
g17
sg18
g19
stRp520
asg30
VDay[9] HearthStone Decktacular #20 - Miracle Rogue by Day9
p521
sg94
g515
sg95
I00
sS'title_detail'
p522
g1
(g2
g3
(dp523
g34
Vhttp://day9.tv/rss/
p524
sg16
g42
sg28
Nsg37
g521
stRp525
sg44
g519
sg100
Vhttp://day9.tv/d/Day9/day9-hearthstone-decktacular-20-miracle-rogue/
p526
stRp527
ag1
(g2
g3
(dp528
S'summary_detail'
p529
g1
(g2
g3
(dp530
g34
Vhttp://day9.tv/rss/
p531
sg16
g36
sg28
Nsg37
VToday's daily will be a clinic on how to perform excellent, long term focused PvT from Harstem. He practiced hundreds of ONLY PvT games in preparation for his WCS Group, and boy do them results pay off. We'll look at
p532
stRp533
sg11
(lp534
g1
(g2
g3
(dp535
g14
Vhttp://day9.tv/d/Day9/day9-daily-710-tba/
p536
sg16
g17
sg18
g19
stRp537
asg30
VDay[9] Daily #710 - Harstem vs Jjajki - EUROPE HOLDS by Day9
p538
sg94
g532
sg95
I00
sS'title_detail'
p539
g1
(g2
g3
(dp540
g34
Vhttp://day9.tv/rss/
p541
sg16
g42
sg28
Nsg37
g538
stRp542
sg44
g536
sg100
Vhttp://day9.tv/d/Day9/day9-daily-710-tba/
p543
stRp544
ag1
(g2
g3
(dp545
S'summary_detail'
p546
g1
(g2
g3
(dp547
g34
Vhttp://day9.tv/rss/
p548
sg16
g36
sg28
Nsg37
VYou may only build the following attacking units In other words, all the core damage dealer units are OUT OF THE QUESTION. Buildings are fine :). Submit to monday@day9.tv and be sure to follow the submission guidelines :D
p549
stRp550
sg11
(lp551
g1
(g2
g3
(dp552
g14
Vhttp://day9.tv/d/Day9/day9-daily-709-funday-monday-ispwomp/
p553
sg16
g17
sg18
g19
stRp554
asg30
VDay[9] Daily #709 - Funday Monday - ISPWOMP by Day9
p555
sg94
g549
sg95
I00
sS'title_detail'
p556
g1
(g2
g3
(dp557
g34
Vhttp://day9.tv/rss/
p558
sg16
g42
sg28
Nsg37
g555
stRp559
sg44
g553
sg100
Vhttp://day9.tv/d/Day9/day9-daily-709-funday-monday-ispwomp/
p560
stRp561
ag1
(g2
g3
(dp562
S'summary_detail'
p563
g1
(g2
g3
(dp564
g34
Vhttp://day9.tv/rss/
p565
sg16
g36
sg28
Nsg37
VOn Saturday, March 31st the live grand finals of the After Hours Gaming League will be played, but before that there is one more final - the B-League finals! The best teams that did not make the main playoffs competed ...
p566
stRp567
sg11
(lp568
g1
(g2
g3
(dp569
g14
Vhttp://day9.tv/d/Day9/ahgl-sc2-b-league-playoff-finals-adobe-vs-facebook/
p570
sg16
g17
sg18
g19
stRp571
asg30
VAHGL SC2 B-League Playoff Finals - Adobe vs Facebook by Day9
p572
sg94
g566
sg95
I00
sS'title_detail'
p573
g1
(g2
g3
(dp574
g34
Vhttp://day9.tv/rss/
p575
sg16
g42
sg28
Nsg37
g572
stRp576
sg44
g570
sg100
Vhttp://day9.tv/d/Day9/ahgl-sc2-b-league-playoff-finals-adobe-vs-facebook/
p577
stRp578
ag1
(g2
g3
(dp579
S'summary_detail'
p580
g1
(g2
g3
(dp581
g34
Vhttp://day9.tv/rss/
p582
sg16
g36
sg28
Nsg37
VTRAWNSISTAH! I loved Bastion. Let's rock out this one. Part 1 Part 2 Part 3 Part 4 Part 5 Part 6 Part 1 Part 2 Part 3
p583
stRp584
sg11
(lp585
g1
(g2
g3
(dp586
g14
Vhttp://day9.tv/d/Day9/day9s-day-off-tba_1/
p587
sg16
g17
sg18
g19
stRp588
asg30
VDay[9]'s Day Off - Transistor by Day9
p589
sg94
g583
sg95
I00
sS'title_detail'
p590
g1
(g2
g3
(dp591
g34
Vhttp://day9.tv/rss/
p592
sg16
g117
sg28
Nsg37
g589
stRp593
sg44
g587
sg100
Vhttp://day9.tv/d/Day9/day9s-day-off-tba_1/
p594
stRp595
ag1
(g2
g3
(dp596
S'summary_detail'
p597
g1
(g2
g3
(dp598
g34
Vhttp://day9.tv/rss/
p599
sg16
g36
sg28
Nsg37
VParting wrecked everybody so quickly and convincingly we'll be able to watch all 4 of his GSL group games in a row. We'll see insane fast 3 bases that transition into tricky mass gateway allins as well as unusual 1 ...
p600
stRp601
sg11
(lp602
g1
(g2
g3
(dp603
g14
Vhttp://day9.tv/d/Day9/day9-daily-708-partings-gsl-run/
p604
sg16
g17
sg18
g19
stRp605
asg30
VDay[9] Daily #708 - Parting's GSL run by Day9
p606
sg94
g600
sg95
I00
sS'title_detail'
p607
g1
(g2
g3
(dp608
g34
Vhttp://day9.tv/rss/
p609
sg16
g117
sg28
Nsg37
g606
stRp610
sg44
g604
sg100
Vhttp://day9.tv/d/Day9/day9-daily-708-partings-gsl-run/
p611
stRp612
ag1
(g2
g3
(dp613
S'summary_detail'
p614
g1
(g2
g3
(dp615
g34
Vhttp://day9.tv/rss/
p616
sg16
g36
sg28
Nsg37
VAlthough the paladin has frequented the low-tier list of hero rankings, it's always been one of my favorite classes. So, I was thrilled when I saw the Crusher Control Paladin as a viable play in the current metagame. I'm going ...
p617
stRp618
sg11
(lp619
g1
(g2
g3
(dp620
g14
Vhttp://day9.tv/d/Day9/day9-hearthstone-decktacular-19-control-paladin/
p621
sg16
g17
sg18
g19
stRp622
asg30
VDay[9] HearthStone Decktacular #19 - Control Paladin by Day9
p623
sg94
g617
sg95
I00
sS'title_detail'
p624
g1
(g2
g3
(dp625
g34
Vhttp://day9.tv/rss/
p626
sg16
g42
sg28
Nsg37
g623
stRp627
sg44
g621
sg100
Vhttp://day9.tv/d/Day9/day9-hearthstone-decktacular-19-control-paladin/
p628
stRp629
ag1
(g2
g3
(dp630
S'summary_detail'
p631
g1
(g2
g3
(dp632
g34
Vhttp://day9.tv/rss/
p633
sg16
g36
sg28
Nsg37
VDespite the general sentiment of "Terran being the weakest race," Maru defies all expectations by having some of the most aggressive and beautiful Terran play I've seen in a long while. We'll take a look at 3 (maybe even 4) ...
p634
stRp635
sg11
(lp636
g1
(g2
g3
(dp637
g14
Vhttp://day9.tv/d/Day9/day9-daily-707-marus-gsl-run/
p638
sg16
g17
sg18
g19
stRp639
asg30
VDay[9] Daily #707 - Maru's GSL run by Day9
p640
sg94
g634
sg95
I00
sS'title_detail'
p641
g1
(g2
g3
(dp642
g34
Vhttp://day9.tv/rss/
p643
sg16
g117
sg28
Nsg37
g640
stRp644
sg44
g638
sg100
Vhttp://day9.tv/d/Day9/day9-daily-707-marus-gsl-run/
p645
stRp646
ag1
(g2
g3
(dp647
S'summary_detail'
p648
g1
(g2
g3
(dp649
g34
Vhttp://day9.tv/rss/
p650
sg16
g36
sg28
Nsg37
VYou must play a game in which all your attacks are based on the warp prism - either via drops or warp ins! Part 1 Part 2 Part 3
p651
stRp652
sg11
(lp653
g1
(g2
g3
(dp654
g14
Vhttp://day9.tv/d/Day9/day9-daily-706-funday-monday-mass-warp-prism/
p655
sg16
g17
sg18
g19
stRp656
asg30
VDay[9] Daily #706 - Funday Monday - Mass Warp Prism! by Day9
p657
sg94
g651
sg95
I00
sS'title_detail'
p658
g1
(g2
g3
(dp659
g34
Vhttp://day9.tv/rss/
p660
sg16
g42
sg28
Nsg37
g657
stRp661
sg44
g655
sg100
Vhttp://day9.tv/d/Day9/day9-daily-706-funday-monday-mass-warp-prism/
p662
stRp663
ag1
(g2
g3
(dp664
S'summary_detail'
p665
g1
(g2
g3
(dp666
g34
Vhttp://day9.tv/rss/
p667
sg16
g36
sg28
Nsg37
VWho will win the B-League finals next week? Vote for your favorite here! Two of the biggest powerhouse companies in the After Hours Gaming League - IBM (#2 seed, 10-1) and Microsoft (#3 seed, 10-1), face off in their most ...
p668
stRp669
sg11
(lp670
g1
(g2
g3
(dp671
g14
Vhttp://day9.tv/d/Day9/ahgl-sc2-playoff-semifinals-microsoft-vs-ibm/
p672
sg16
g17
sg18
g19
stRp673
asg30
VAHGL SC2 Playoff Semifinals - Microsoft vs IBM by Day9
p674
sg94
g668
sg95
I00
sS'title_detail'
p675
g1
(g2
g3
(dp676
g34
Vhttp://day9.tv/rss/
p677
sg16
g42
sg28
Nsg37
g674
stRp678
sg44
g672
sg100
Vhttp://day9.tv/d/Day9/ahgl-sc2-playoff-semifinals-microsoft-vs-ibm/
p679
stRp680
ag1
(g2
g3
(dp681
S'summary_detail'
p682
g1
(g2
g3
(dp683
g34
Vhttp://day9.tv/rss/
p684
sg16
g36
sg28
Nsg37
VThis will be my last Dark Souls segment for a while. I absolutely adore this game, but I want to explore other games on my day off :D. Part 1
p685
stRp686
sg11
(lp687
g1
(g2
g3
(dp688
g14
Vhttp://day9.tv/d/Day9/day9s-day-off-dark-souls-day-4/
p689
sg16
g17
sg18
g19
stRp690
asg30
VDay[9]'s Day Off - Dark Souls Day 4 by Day9
p691
sg94
g685
sg95
I00
sS'title_detail'
p692
g1
(g2
g3
(dp693
g34
Vhttp://day9.tv/rss/
p694
sg16
g117
sg28
Nsg37
g691
stRp695
sg44
g689
sg100
Vhttp://day9.tv/d/Day9/day9s-day-off-dark-souls-day-4/
p696
stRp697
ag1
(g2
g3
(dp698
S'summary_detail'
p699
g1
(g2
g3
(dp700
g34
Vhttp://day9.tv/rss/
p701
sg16
g36
sg28
Nsg37
VBling and Snute played a gorgeous, beautiful game that demonstrates both how to go swarm host and great ways to defeat it! We'll largely look at things from BlinG's point of view and examine
p702
stRp703
sg11
(lp704
g1
(g2
g3
(dp705
g14
Vhttp://day9.tv/d/Day9/day9-daily-705-tba/
p706
sg16
g17
sg18
g19
stRp707
asg30
VDay[9] Daily #705 - Snute vs Bling - More Anti-SwarmHost play! by Day9
p708
sg94
g702
sg95
I00
sS'title_detail'
p709
g1
(g2
g3
(dp710
g34
Vhttp://day9.tv/rss/
p711
sg16
g42
sg28
Nsg37
g708
stRp712
sg44
g706
sg100
Vhttp://day9.tv/d/Day9/day9-daily-705-tba/
p713
stRp714
ag1
(g2
g3
(dp715
S'summary_detail'
p716
g1
(g2
g3
(dp717
g34
Vhttp://day9.tv/rss/
p718
sg16
g36
sg28
Nsg37
VMy love for the Druid knows no bounds. As a result, I'm fancying this deliciously dirty ramp-to-huge-dudes druid that winds up with some hilarious and amazing wins.
p719
stRp720
sg11
(lp721
g1
(g2
g3
(dp722
g14
Vhttp://day9.tv/d/Day9/day9-hearthstone-decktacular-ramp-druid/
p723
sg16
g17
sg18
g19
stRp724
asg30
VDay[9] HearthStone Decktacular #18 - Ramp Druid by Day9
p725
sg94
g719
sg95
I00
sS'title_detail'
p726
g1
(g2
g3
(dp727
g34
Vhttp://day9.tv/rss/
p728
sg16
g42
sg28
Nsg37
g725
stRp729
sg44
g723
sg100
Vhttp://day9.tv/d/Day9/day9-hearthstone-decktacular-ramp-druid/
p730
stRp731
ag1
(g2
g3
(dp732
S'summary_detail'
p733
g1
(g2
g3
(dp734
g34
Vhttp://day9.tv/rss/
p735
sg16
g36
sg28
Nsg37
VIn these DreamHack Bucharest Grand Final replays, we get the chance to see ST_Life do some amazingly sexy builds to crush Impact in a best of 5. We'll see
p736
stRp737
sg11
(lp738
g1
(g2
g3
(dp739
g14
Vhttp://day9.tv/d/Day9/day9-daily-704-life-vs-impact/
p740
sg16
g17
sg18
g19
stRp741
asg30
VDay[9] Daily #704 - Life vs Impact by Day9
p742
sg94
g736
sg95
I00
sS'title_detail'
p743
g1
(g2
g3
(dp744
g34
Vhttp://day9.tv/rss/
p745
sg16
g42
sg28
Nsg37
g742
stRp746
sg44
g740
sg100
Vhttp://day9.tv/d/Day9/day9-daily-704-life-vs-impact/
p747
stRp748
ag1
(g2
g3
(dp749
S'summary_detail'
p750
g1
(g2
g3
(dp751
g34
Vhttp://day9.tv/rss/
p752
sg16
g36
sg28
Nsg37
VThis best of 3 from the DreamHack Bucharest semifinal provides a wonderful educational example of how both Terran and Zerg adjust differently according to the read on their opponent! What we'll see in this episode is
p753
stRp754
sg11
(lp755
g1
(g2
g3
(dp756
g14
Vhttp://day9.tv/d/Day9/day9-daily-703-life-vs-innovation/
p757
sg16
g17
sg18
g19
stRp758
asg30
VDay[9] Daily #703 - Life vs Innovation by Day9
p759
sg94
g753
sg95
I00
sS'title_detail'
p760
g1
(g2
g3
(dp761
g34
Vhttp://day9.tv/rss/
p762
sg16
g42
sg28
Nsg37
g759
stRp763
sg44
g757
sg100
Vhttp://day9.tv/d/Day9/day9-daily-703-life-vs-innovation/
p764
stRp765
asS'namespaces'
p766
(dp767
S''
Vhttp://www.w3.org/2005/Atom
p768
sstRp769
.