ccopy_reg
_reconstructor
p1
(cfeedparser
FeedParserDict
p2
c__builtin__
dict
p3
(dp4
S'feed'
p5
g1
(g2
g3
(dp6
S'info'
p7
VThis is an XML content feed. It is intended to be viewed in a newsreader or syndicated to another site.
p8
sS'updated'
p9
VFri, 11 Jul 2014 09:23:35 GMT
p10
sS'subtitle'
p11
VTech By Design
p12
sS'language'
p13
Ven
p14
sS'published_parsed'
p15
ctime
struct_time
p16
((I2014
I7
I11
I9
I23
I35
I4
I192
I0
t(dtRp17
sS'title'
p18
VGizmodo
p19
sS'published'
p20
VFri, 11 Jul 2014 09:23:35 GMT
p21
sS'links'
p22
(lp23
g1
(g2
g3
(dp24
S'href'
p25
Vhttp://gizmodo.com
p26
sS'type'
p27
Vtext/html
p28
sS'rel'
p29
Valternate
p30
stRp31
ag1
(g2
g3
(dp32
S'href'
p33
Vhttp://pubsubhubbub.appspot.com/
p34
sg27
g28
sS'rel'
p35
Vhub
p36
stRp37
ag1
(g2
g3
(dp38
S'href'
p39
Vhttp://www.gizmodo.com/index.xml
p40
sS'type'
p41
Vapplication/rss+xml
p42
sS'rel'
p43
Vself
p44
stRp45
asS'feedburner_info'
p46
(dp47
S'uri'
p48
Vgizmodo/full
p49
ssS'subtitle_detail'
p50
g1
(g2
g3
(dp51
S'base'
p52
Vhttp://feeds.gawker.com/gizmodo/full
p53
sg27
Vtext/html
p54
sg13
NsS'value'
p55
g12
stRp56
sS'title_detail'
p57
g1
(g2
g3
(dp58
g52
Vhttp://feeds.gawker.com/gizmodo/full
p59
sg27
Vtext/plain
p60
sg13
Nsg55
g19
stRp61
sS'info_detail'
p62
g1
(g2
g3
(dp63
g52
Vhttp://feeds.gawker.com/gizmodo/full
p64
sg27
Vtext/plain
p65
sg13
Nsg55
g8
stRp66
sS'link'
p67
g26
sS'ttl'
p68
V30
p69
sS'updated_parsed'
p70
g16
((I2014
I7
I11
I9
I23
I35
I4
I192
I0
t(dtRp71
stRp72
sS'status'
p73
I200
sg9
S'Fri, 11 Jul 2014 10:06:39 GMT'
p74
sg70
g16
((I2014
I7
I11
I10
I6
I39
I4
I192
I0
t(dtRp75
sS'encoding'
p76
VUTF-8
p77
sS'bozo'
p78
I0
sS'headers'
p79
(dp80
S'alternate-protocol'
p81
S'80:quic,80:quic'
p82
sS'x-xss-protection'
p83
S'1; mode=block'
p84
sS'x-content-type-options'
p85
S'nosniff'
p86
sS'content-encoding'
p87
S'gzip'
p88
sS'transfer-encoding'
p89
S'chunked'
p90
sS'expires'
p91
S'Fri, 11 Jul 2014 10:17:10 GMT'
p92
sS'server'
p93
S'GSE'
p94
sS'last-modified'
p95
g74
sS'connection'
p96
S'close'
p97
sS'etag'
p98
S'CpR1ywlRfPqMTguvTRu9mMOseA0'
p99
sS'cache-control'
p100
S'private, max-age=0'
p101
sS'date'
p102
S'Fri, 11 Jul 2014 10:17:10 GMT'
p103
sS'content-type'
p104
S'text/xml; charset=UTF-8'
p105
ssS'etag'
p106
VCpR1ywlRfPqMTguvTRu9mMOseA0
p107
sg25
Vhttp://feeds.gawker.com/gizmodo/full
p108
sS'version'
p109
Vrss20
p110
sS'entries'
p111
(lp112
g1
(g2
g3
(dp113
S'summary_detail'
p114
g1
(g2
g3
(dp115
g52
Vhttp://feeds.gawker.com/gizmodo/full
p116
sg27
g54
sg13
Nsg55
V<p class="has-media media-640"><span class="clear-both flex-video widescreen"></span></p> <p class="first-text">Land Rover's windshield experiments have already been pretty impressive \u2014 remember<a href="http://www.gizmodo.co.uk/2014/04/land-rovers-augmented-reality-transparent-bonnet-concept-will-keep-you-out-of-potholes/" target="_blank"> </a><a href="http://gizmodo.com/an-augmented-reality-transparent-hood-could-keep-you-ou-1561242380">the concept </a> that would make your car's bonnet appear transparent to make it easier to avoid potholes? But what if you're on a silky-smooth race track, looking to perfect your performance?</p><p><a href="http://gizmodo.com/this-augmented-reality-windshield-tells-you-how-to-take-1603452937">Read more...</a></p><img border="0" height="1" src="http://gizmodo.feedsportal.com/c/34976/f/647164/s/3c650526/sc/4/mf.gif" width="1" /><br clear="all" /><br /><br /><a href="http://da.feedsportal.com/r/199107925055/u/94/f/647164/c/34976/s/3c650526/sc/4/rc/1/rc.htm" rel="nofollow"><img border="0" src="http://da.feedsportal.com/r/199107925055/u/94/f/647164/c/34976/s/3c650526/sc/4/rc/1/rc.img" /></a><br /><a href="http://da.feedsportal.com/r/199107925055/u/94/f/647164/c/34976/s/3c650526/sc/4/rc/2/rc.htm" rel="nofollow"><img border="0" src="http://da.feedsportal.com/r/199107925055/u/94/f/647164/c/34976/s/3c650526/sc/4/rc/2/rc.img" /></a><br /><a href="http://da.feedsportal.com/r/199107925055/u/94/f/647164/c/34976/s/3c650526/sc/4/rc/3/rc.htm" rel="nofollow"><img border="0" src="http://da.feedsportal.com/r/199107925055/u/94/f/647164/c/34976/s/3c650526/sc/4/rc/3/rc.img" /></a><br /><br /><a href="http://da.feedsportal.com/r/199107925055/u/94/f/647164/c/34976/s/3c650526/sc/4/a2.htm"><img border="0" src="http://da.feedsportal.com/r/199107925055/u/94/f/647164/c/34976/s/3c650526/sc/4/a2.img" /></a><img border="0" height="1" src="http://pi.feedsportal.com/r/199107925055/u/94/f/647164/c/34976/s/3c650526/sc/4/a2t.img" width="1" /><img height="1" src="http://feeds.feedburner.com/~r/gizmodo/full/~4/sy9yx0eDjjg" width="1" />
p117
stRp118
sg22
(lp119
g1
(g2
g3
(dp120
g25
Vhttp://feeds.gawker.com/~r/gizmodo/full/~3/sy9yx0eDjjg/this-augmented-reality-windshield-tells-you-how-to-take-1603452937
p121
sg27
g28
sg29
g30
stRp122
asg15
g16
((I2014
I7
I11
I9
I15
I0
I4
I192
I0
t(dtRp123
sg18
VThis Augmented Reality Windshield Tells You How to Take a Racing Line
p124
sS'feedburner_origlink'
p125
Vhttp://gizmodo.com/this-augmented-reality-windshield-tells-you-how-to-take-1603452937
p126
sS'tags'
p127
(lp128
g1
(g2
g3
(dp129
S'term'
p130
Vaugmented reality
p131
sS'scheme'
p132
NsS'label'
p133
NstRp134
ag1
(g2
g3
(dp135
g130
Vautomobiles
p136
sg132
Nsg133
NstRp137
ag1
(g2
g3
(dp138
g130
Vjaguar land rover
p139
sg132
Nsg133
NstRp140
asS'summary'
p141
g117
sS'guidislink'
p142
I00
sS'title_detail'
p143
g1
(g2
g3
(dp144
g52
Vhttp://feeds.gawker.com/gizmodo/full
p145
sg27
g60
sg13
Nsg55
g124
stRp146
sg67
g121
sS'author'
p147
VGerald Lynch - Gizmodo UK
p148
sg20
VFri, 11 Jul 2014 09:15:00 GMT
p149
sS'authors'
p150
(lp151
g1
(g2
g3
(dtRp152
asS'author_detail'
p153
g1
(g2
g3
(dp154
S'name'
p155
g148
stRp156
sS'id'
p157
Vhttp://feeds.gawker.com/gizmodo/1603452937
p158
stRp159
ag1
(g2
g3
(dp160
S'summary_detail'
p161
g1
(g2
g3
(dp162
g52
Vhttp://feeds.gawker.com/gizmodo/full
p163
sg27
g54
sg13
Nsg55
V<p class="has-media media-640"><img alt="Bloomberg: SoundCloud Is About to Sign Deals With Record Labels" class="transform-original" height="287" src="http://i.kinja-img.com/gawker-media/image/upload/s--Jcouzspt--/806513514602641296.jpg" width="636" /></p> <p class="first-text"><a href="http://www.bloomberg.com/news/2014-07-10/soundcloud-said-to-near-deals-with-record-labels.html" target="_blank">Bloomberg is reporting</a> that Soundcloud is close to signing deals with the world's largest music labels that will protect it from legal wranglings over copyright violations.</p><p><a href="http://gizmodo.com/bloomberg-soundcloud-is-about-to-sign-deals-with-recor-1603449940">Read more...</a></p><img border="0" height="1" src="http://gizmodo.feedsportal.com/c/34976/f/647164/s/3c645f38/sc/30/mf.gif" width="1" /><br clear="all" /><br /><br /><a href="http://da.feedsportal.com/r/199120616439/u/94/f/647164/c/34976/s/3c645f38/sc/30/rc/1/rc.htm" rel="nofollow"><img border="0" src="http://da.feedsportal.com/r/199120616439/u/94/f/647164/c/34976/s/3c645f38/sc/30/rc/1/rc.img" /></a><br /><a href="http://da.feedsportal.com/r/199120616439/u/94/f/647164/c/34976/s/3c645f38/sc/30/rc/2/rc.htm" rel="nofollow"><img border="0" src="http://da.feedsportal.com/r/199120616439/u/94/f/647164/c/34976/s/3c645f38/sc/30/rc/2/rc.img" /></a><br /><a href="http://da.feedsportal.com/r/199120616439/u/94/f/647164/c/34976/s/3c645f38/sc/30/rc/3/rc.htm" rel="nofollow"><img border="0" src="http://da.feedsportal.com/r/199120616439/u/94/f/647164/c/34976/s/3c645f38/sc/30/rc/3/rc.img" /></a><br /><br /><a href="http://da.feedsportal.com/r/199120616439/u/94/f/647164/c/34976/s/3c645f38/sc/30/a2.htm"><img border="0" src="http://da.feedsportal.com/r/199120616439/u/94/f/647164/c/34976/s/3c645f38/sc/30/a2.img" /></a><img border="0" height="1" src="http://pi.feedsportal.com/r/199120616439/u/94/f/647164/c/34976/s/3c645f38/sc/30/a2t.img" width="1" /><img height="1" src="http://feeds.feedburner.com/~r/gizmodo/full/~4/nvT6De7J1eM" width="1" />
p164
stRp165
sg22
(lp166
g1
(g2
g3
(dp167
g25
Vhttp://feeds.gawker.com/~r/gizmodo/full/~3/nvT6De7J1eM/bloomberg-soundcloud-is-about-to-sign-deals-with-recor-1603449940
p168
sg27
g28
sg29
g30
stRp169
asg15
g16
((I2014
I7
I11
I8
I30
I0
I4
I192
I0
t(dtRp170
sg18
VBloomberg: SoundCloud Is About to Sign Deals With Record Labels
p171
sS'feedburner_origlink'
p172
Vhttp://gizmodo.com/bloomberg-soundcloud-is-about-to-sign-deals-with-recor-1603449940
p173
sg127
(lp174
g1
(g2
g3
(dp175
g130
Vmusic
p176
sg132
Nsg133
NstRp177
ag1
(g2
g3
(dp178
g130
Vbloomberg
p179
sg132
Nsg133
NstRp180
ag1
(g2
g3
(dp181
g130
Vrumors
p182
sg132
Nsg133
NstRp183
ag1
(g2
g3
(dp184
g130
Vsoundcloud
p185
sg132
Nsg133
NstRp186
asg141
g164
sg142
I00
sS'title_detail'
p187
g1
(g2
g3
(dp188
g52
Vhttp://feeds.gawker.com/gizmodo/full
p189
sg27
g60
sg13
Nsg55
g171
stRp190
sg67
g168
sg147
VJamie Condliffe
p191
sg20
VFri, 11 Jul 2014 08:30:00 GMT
p192
sg150
(lp193
g1
(g2
g3
(dtRp194
asS'author_detail'
p195
g1
(g2
g3
(dp196
g155
g191
stRp197
sg157
Vhttp://feeds.gawker.com/gizmodo/1603449940
p198
stRp199
ag1
(g2
g3
(dp200
S'summary_detail'
p201
g1
(g2
g3
(dp202
g52
Vhttp://feeds.gawker.com/gizmodo/full
p203
sg27
g54
sg13
Nsg55
V<p class="has-media media-640"><img alt="Amazon Is Begging the FAA to Push Drone Tests Beyond Regulations" class="transform-ku-xlarge" height="288" src="http://i.kinja-img.com/gawker-media/image/upload/s--xcfcMuXX--/c_fit,fl_progressive,q_80,w_636/bj5ylc896jjsuwdgelb0.png" width="636" /></p> <p class="first-text"> Amazon has started begging the Federal Aviation Administration to let it start testing drones in its own backyard, according to <a href="http://www.regulations.gov/#!searchResults;rpp=25;so=DESC;sb=postedDate;po=0;s=amazon;dct=O%252BPS;a=FAA" target="_blank">a letter</a> that was made public Thursday.</p><p><a href="http://gizmodo.com/amazon-is-begging-the-faa-to-push-drone-tests-beyond-re-1603446445">Read more...</a></p><img border="0" height="1" src="http://gizmodo.feedsportal.com/c/34976/f/647164/s/3c643551/sc/21/mf.gif" width="1" /><br clear="all" /><br /><br /><a href="http://da.feedsportal.com/r/199109398907/u/94/f/647164/c/34976/s/3c643551/sc/21/rc/1/rc.htm" rel="nofollow"><img border="0" src="http://da.feedsportal.com/r/199109398907/u/94/f/647164/c/34976/s/3c643551/sc/21/rc/1/rc.img" /></a><br /><a href="http://da.feedsportal.com/r/199109398907/u/94/f/647164/c/34976/s/3c643551/sc/21/rc/2/rc.htm" rel="nofollow"><img border="0" src="http://da.feedsportal.com/r/199109398907/u/94/f/647164/c/34976/s/3c643551/sc/21/rc/2/rc.img" /></a><br /><a href="http://da.feedsportal.com/r/199109398907/u/94/f/647164/c/34976/s/3c643551/sc/21/rc/3/rc.htm" rel="nofollow"><img border="0" src="http://da.feedsportal.com/r/199109398907/u/94/f/647164/c/34976/s/3c643551/sc/21/rc/3/rc.img" /></a><br /><br /><a href="http://da.feedsportal.com/r/199109398907/u/94/f/647164/c/34976/s/3c643551/sc/21/a2.htm"><img border="0" src="http://da.feedsportal.com/r/199109398907/u/94/f/647164/c/34976/s/3c643551/sc/21/a2.img" /></a><img border="0" height="1" src="http://pi.feedsportal.com/r/199109398907/u/94/f/647164/c/34976/s/3c643551/sc/21/a2t.img" width="1" /><img height="1" src="http://feeds.feedburner.com/~r/gizmodo/full/~4/O0VHI0n-_FY" width="1" />
p204
stRp205
sg22
(lp206
g1
(g2
g3
(dp207
g25
Vhttp://feeds.gawker.com/~r/gizmodo/full/~3/O0VHI0n-_FY/amazon-is-begging-the-faa-to-push-drone-tests-beyond-re-1603446445
p208
sg27
g28
sg29
g30
stRp209
asg15
g16
((I2014
I7
I11
I7
I47
I0
I4
I192
I0
t(dtRp210
sg18
VAmazon Is Begging the FAA to Push Drone Tests Beyond Regulations
p211
sS'feedburner_origlink'
p212
Vhttp://gizmodo.com/amazon-is-begging-the-faa-to-push-drone-tests-beyond-re-1603446445
p213
sg127
(lp214
g1
(g2
g3
(dp215
g130
Vdrones
p216
sg132
Nsg133
NstRp217
ag1
(g2
g3
(dp218
g130
Vamazon
p219
sg132
Nsg133
NstRp220
ag1
(g2
g3
(dp221
g130
Vdelivery
p222
sg132
Nsg133
NstRp223
asg141
g204
sg142
I00
sS'title_detail'
p224
g1
(g2
g3
(dp225
g52
Vhttp://feeds.gawker.com/gizmodo/full
p226
sg27
g60
sg13
Nsg55
g211
stRp227
sg67
g208
sg147
VJamie Condliffe
p228
sg20
VFri, 11 Jul 2014 07:47:00 GMT
p229
sg150
(lp230
g1
(g2
g3
(dtRp231
asS'author_detail'
p232
g1
(g2
g3
(dp233
g155
g228
stRp234
sg157
Vhttp://feeds.gawker.com/gizmodo/1603446445
p235
stRp236
ag1
(g2
g3
(dp237
S'summary_detail'
p238
g1
(g2
g3
(dp239
g52
Vhttp://feeds.gawker.com/gizmodo/full
p240
sg27
g54
sg13
Nsg55
V<p class="has-media media-640"><img alt="Here's every Transformers robot fight scene in one video" class="transform-original" height="263" src="http://i.kinja-img.com/gawker-media/image/upload/s--WSNwn5g7--/ns7bpmjq0wxpnfpqvgiq.gif" width="636" /></p> <p class="first-text">Instead of making the Marky Mark Transformers sequel, Michael Bay should have just sent in <a href="https://www.youtube.com/watch?v=c7Q9gob-onQ" target="_blank">this sick, non-stop supercut of every single robot fight scene</a> from the Transformers trilogy to theaters. Yep. This video is an orgy of explosive metal on metal battle scenes without any of the pesky humans screwing it up. I would love to see this IMAX.</p><p><a href="http://sploid.gizmodo.com/heres-every-transformers-robot-fight-scene-in-one-video-1603419966/+caseychan">Read more...</a></p><img border="0" height="1" src="http://gizmodo.feedsportal.com/c/34976/f/647164/s/3c63122a/sc/17/mf.gif" width="1" /><br clear="all" /><br /><br /><a href="http://da.feedsportal.com/r/199109394241/u/94/f/647164/c/34976/s/3c63122a/sc/17/rc/1/rc.htm" rel="nofollow"><img border="0" src="http://da.feedsportal.com/r/199109394241/u/94/f/647164/c/34976/s/3c63122a/sc/17/rc/1/rc.img" /></a><br /><a href="http://da.feedsportal.com/r/199109394241/u/94/f/647164/c/34976/s/3c63122a/sc/17/rc/2/rc.htm" rel="nofollow"><img border="0" src="http://da.feedsportal.com/r/199109394241/u/94/f/647164/c/34976/s/3c63122a/sc/17/rc/2/rc.img" /></a><br /><a href="http://da.feedsportal.com/r/199109394241/u/94/f/647164/c/34976/s/3c63122a/sc/17/rc/3/rc.htm" rel="nofollow"><img border="0" src="http://da.feedsportal.com/r/199109394241/u/94/f/647164/c/34976/s/3c63122a/sc/17/rc/3/rc.img" /></a><br /><br /><a href="http://da.feedsportal.com/r/199109394241/u/94/f/647164/c/34976/s/3c63122a/sc/17/a2.htm"><img border="0" src="http://da.feedsportal.com/r/199109394241/u/94/f/647164/c/34976/s/3c63122a/sc/17/a2.img" /></a><img border="0" height="1" src="http://pi.feedsportal.com/r/199109394241/u/94/f/647164/c/34976/s/3c63122a/sc/17/a2t.img" width="1" /><img height="1" src="http://feeds.feedburner.com/~r/gizmodo/full/~4/2MfQY5lk2z4" width="1" />
p241
stRp242
sg22
(lp243
g1
(g2
g3
(dp244
g25
Vhttp://feeds.gawker.com/~r/gizmodo/full/~3/2MfQY5lk2z4/+caseychan
p245
sg27
g28
sg29
g30
stRp246
asg15
g16
((I2014
I7
I11
I5
I11
I0
I4
I192
I0
t(dtRp247
sg18
VHere's every Transformers robot fight scene in one video
p248
sS'feedburner_origlink'
p249
Vhttp://sploid.gizmodo.com/heres-every-transformers-robot-fight-scene-in-one-video-1603419966/+caseychan
p250
sg127
(lp251
g1
(g2
g3
(dp252
g130
Vmichael bay
p253
sg132
Nsg133
NstRp254
ag1
(g2
g3
(dp255
g130
Vrobots
p256
sg132
Nsg133
NstRp257
ag1
(g2
g3
(dp258
g130
Vaction
p259
sg132
Nsg133
NstRp260
ag1
(g2
g3
(dp261
g130
Vtransformers
p262
sg132
Nsg133
NstRp263
ag1
(g2
g3
(dp264
g130
Vfun
p265
sg132
Nsg133
NstRp266
ag1
(g2
g3
(dp267
g130
Vfight scenes
p268
sg132
Nsg133
NstRp269
asg141
g241
sg142
I00
sS'title_detail'
p270
g1
(g2
g3
(dp271
g52
Vhttp://feeds.gawker.com/gizmodo/full
p272
sg27
g60
sg13
Nsg55
g248
stRp273
sg67
g245
sg147
VCasey Chan on Sploid, shared by Casey Chan to Gizmodo
p274
sg20
VFri, 11 Jul 2014 05:11:00 GMT
p275
sg150
(lp276
g1
(g2
g3
(dtRp277
asS'author_detail'
p278
g1
(g2
g3
(dp279
g155
g274
stRp280
sg157
Vhttp://feeds.gawker.com/gizmodo/1603419966
p281
stRp282
ag1
(g2
g3
(dp283
S'summary_detail'
p284
g1
(g2
g3
(dp285
g52
Vhttp://feeds.gawker.com/gizmodo/full
p286
sg27
g54
sg13
Nsg55
V<p class="has-media media-640"><img alt="Apparently, the US Navy got itself some cool alien spaceships" class="transform-ku-xlarge" height="390" src="http://i.kinja-img.com/gawker-media/image/upload/s--V5R2janS--/c_fit,fl_progressive,q_80,w_636/fsxtvubnrfdawkjb7u0r.jpg" width="636" /></p> <p class="first-text">The Northrop Grumman X-47B carrier-launched drone really feels like the future of aviation in this image taken on board the USS Harry Truman. And, while it looks like some alien spaceship from a sci-fi show, the final version of this beast will completely replace those F-18s in a couple decades.</p><p><a href="http://sploid.gizmodo.com/apparently-the-us-navy-got-itself-some-cool-alien-spac-1603415266/+caseychan">Read more...</a></p><img border="0" height="1" src="http://gizmodo.feedsportal.com/c/34976/f/647164/s/3c6345ec/sc/28/mf.gif" width="1" /><br clear="all" /><img height="1" src="http://feeds.feedburner.com/~r/gizmodo/full/~4/JdoENcL9tk8" width="1" />
p287
stRp288
sg22
(lp289
g1
(g2
g3
(dp290
g25
Vhttp://feeds.gawker.com/~r/gizmodo/full/~3/JdoENcL9tk8/+caseychan
p291
sg27
g28
sg29
g30
stRp292
asg15
g16
((I2014
I7
I11
I4
I53
I0
I4
I192
I0
t(dtRp293
sg18
VApparently, the US Navy got itself some cool alien spaceships
p294
sS'feedburner_origlink'
p295
Vhttp://sploid.gizmodo.com/apparently-the-us-navy-got-itself-some-cool-alien-spac-1603415266/+caseychan
p296
sg127
(lp297
g1
(g2
g3
(dp298
g130
Vairplanes
p299
sg132
Nsg133
NstRp300
ag1
(g2
g3
(dp301
g130
Vx-47b
p302
sg132
Nsg133
NstRp303
ag1
(g2
g3
(dp304
g130
Vcool
p305
sg132
Nsg133
NstRp306
asg141
g287
sg142
I00
sS'title_detail'
p307
g1
(g2
g3
(dp308
g52
Vhttp://feeds.gawker.com/gizmodo/full
p309
sg27
g60
sg13
Nsg55
g294
stRp310
sg67
g291
sg147
VJesus Diaz on Sploid, shared by Casey Chan to Gizmodo
p311
sg20
VFri, 11 Jul 2014 04:53:00 GMT
p312
sg150
(lp313
g1
(g2
g3
(dtRp314
asS'author_detail'
p315
g1
(g2
g3
(dp316
g155
g311
stRp317
sg157
Vhttp://feeds.gawker.com/gizmodo/1603415266
p318
stRp319
ag1
(g2
g3
(dp320
S'summary_detail'
p321
g1
(g2
g3
(dp322
g52
Vhttp://feeds.gawker.com/gizmodo/full
p323
sg27
g54
sg13
Nsg55
V<p class="has-media media-640"><img alt="Seeing strangers take off each other's clothes is quite awkward" class="transform-original" height="288" src="http://i.kinja-img.com/gawker-media/image/upload/s--vrSfujq---/dso8uw2hdggivdhqxumb.png" width="636" /></p> <p class="first-text">Here's the official, anted up sequel to <a href="http://sploid.gizmodo.com/watching-complete-strangers-make-out-is-actually-awkwar-1540921129">First Kiss, </a> called Undress Me, which means "strangers" are taking off each other's clothes now in a video to promote the new season of Masters of Sex. It doesn't quite have the well acted charm of the original and you feel more like a voyeur this time around but watching beautiful people act clumsy around each other kind of soothes your inner awkward teenage soul in a "Hey, they're just like us!" kind of way.</p><p><a href="http://sploid.gizmodo.com/seeing-strangers-take-off-each-other-clothes-is-aww-kwa-1603373640/+caseychan">Read more...</a></p><img border="0" height="1" src="http://gizmodo.feedsportal.com/c/34976/f/647164/s/3c62a380/sc/10/mf.gif" width="1" /><br clear="all" /><br /><br /><a href="http://da.feedsportal.com/r/199107914537/u/94/f/647164/c/34976/s/3c62a380/sc/10/rc/1/rc.htm" rel="nofollow"><img border="0" src="http://da.feedsportal.com/r/199107914537/u/94/f/647164/c/34976/s/3c62a380/sc/10/rc/1/rc.img" /></a><br /><a href="http://da.feedsportal.com/r/199107914537/u/94/f/647164/c/34976/s/3c62a380/sc/10/rc/2/rc.htm" rel="nofollow"><img border="0" src="http://da.feedsportal.com/r/199107914537/u/94/f/647164/c/34976/s/3c62a380/sc/10/rc/2/rc.img" /></a><br /><a href="http://da.feedsportal.com/r/199107914537/u/94/f/647164/c/34976/s/3c62a380/sc/10/rc/3/rc.htm" rel="nofollow"><img border="0" src="http://da.feedsportal.com/r/199107914537/u/94/f/647164/c/34976/s/3c62a380/sc/10/rc/3/rc.img" /></a><br /><br /><a href="http://da.feedsportal.com/r/199107914537/u/94/f/647164/c/34976/s/3c62a380/sc/10/a2.htm"><img border="0" src="http://da.feedsportal.com/r/199107914537/u/94/f/647164/c/34976/s/3c62a380/sc/10/a2.img" /></a><img border="0" height="1" src="http://pi.feedsportal.com/r/199107914537/u/94/f/647164/c/34976/s/3c62a380/sc/10/a2t.img" width="1" /><img height="1" src="http://feeds.feedburner.com/~r/gizmodo/full/~4/f6iWv1j5Vrs" width="1" />
p324
stRp325
sg22
(lp326
g1
(g2
g3
(dp327
g25
Vhttp://feeds.gawker.com/~r/gizmodo/full/~3/f6iWv1j5Vrs/+caseychan
p328
sg27
g28
sg29
g30
stRp329
asg15
g16
((I2014
I7
I11
I2
I56
I0
I4
I192
I0
t(dtRp330
sg18
VSeeing strangers take off each other's clothes is quite awkward
p331
sS'feedburner_origlink'
p332
Vhttp://sploid.gizmodo.com/seeing-strangers-take-off-each-other-clothes-is-aww-kwa-1603373640/+caseychan
p333
sg127
(lp334
g1
(g2
g3
(dp335
g130
Vart
p336
sg132
Nsg133
NstRp337
ag1
(g2
g3
(dp338
g130
Vsex
p339
sg132
Nsg133
NstRp340
ag1
(g2
g3
(dp341
g130
Vkiss
p342
sg132
Nsg133
NstRp343
ag1
(g2
g3
(dp344
g130
Vfirst kiss
p345
sg132
Nsg133
NstRp346
ag1
(g2
g3
(dp347
g130
Vstrangers
p348
sg132
Nsg133
NstRp349
ag1
(g2
g3
(dp350
g130
Vawkward
p351
sg132
Nsg133
NstRp352
ag1
(g2
g3
(dp353
g130
Vclothes
p354
sg132
Nsg133
NstRp355
asg141
g324
sg142
I00
sS'title_detail'
p356
g1
(g2
g3
(dp357
g52
Vhttp://feeds.gawker.com/gizmodo/full
p358
sg27
g60
sg13
Nsg55
g331
stRp359
sg67
g328
sg147
VCasey Chan on Sploid, shared by Casey Chan to Gizmodo
p360
sg20
VFri, 11 Jul 2014 02:56:00 GMT
p361
sg150
(lp362
g1
(g2
g3
(dtRp363
asS'author_detail'
p364
g1
(g2
g3
(dp365
g155
g360
stRp366
sg157
Vhttp://feeds.gawker.com/gizmodo/1603373640
p367
stRp368
ag1
(g2
g3
(dp369
S'summary_detail'
p370
g1
(g2
g3
(dp371
g52
Vhttp://feeds.gawker.com/gizmodo/full
p372
sg27
g54
sg13
Nsg55
V<p class="has-media media-640"><img alt="Imagining Google as a real person is still so embarrassingly hilarious" class="transform-original" height="296" src="http://i.kinja-img.com/gawker-media/image/upload/s--mAEQgxo4--/dautw9nuvnzctw3kfgop.png" width="636" /></p> <p class="first-text">If Google were a real person, he would probably <a href="http://www.collegehumor.com/video/6979707/what-if-google-was-a-guy-part-3" target="_blank">have the world's most frustrating job.</a> I mean, Google has to deal with all the crud we type into the search engine and spit out results that match up to our perverted tastes, stoned questions, deepest fears, doddering mistakes all while trying to not to judge us. </p><p><a href="http://sploid.gizmodo.com/its-still-embarrassingly-hilarious-to-imagine-google-as-1603324446/+caseychan">Read more...</a></p><img border="0" height="1" src="http://gizmodo.feedsportal.com/c/34976/f/647164/s/3c61ec17/sc/4/mf.gif" width="1" /><br clear="all" /><br /><br /><a href="http://da.feedsportal.com/r/199120490874/u/94/f/647164/c/34976/s/3c61ec17/sc/4/rc/1/rc.htm" rel="nofollow"><img border="0" src="http://da.feedsportal.com/r/199120490874/u/94/f/647164/c/34976/s/3c61ec17/sc/4/rc/1/rc.img" /></a><br /><a href="http://da.feedsportal.com/r/199120490874/u/94/f/647164/c/34976/s/3c61ec17/sc/4/rc/2/rc.htm" rel="nofollow"><img border="0" src="http://da.feedsportal.com/r/199120490874/u/94/f/647164/c/34976/s/3c61ec17/sc/4/rc/2/rc.img" /></a><br /><a href="http://da.feedsportal.com/r/199120490874/u/94/f/647164/c/34976/s/3c61ec17/sc/4/rc/3/rc.htm" rel="nofollow"><img border="0" src="http://da.feedsportal.com/r/199120490874/u/94/f/647164/c/34976/s/3c61ec17/sc/4/rc/3/rc.img" /></a><br /><br /><a href="http://da.feedsportal.com/r/199120490874/u/94/f/647164/c/34976/s/3c61ec17/sc/4/a2.htm"><img border="0" src="http://da.feedsportal.com/r/199120490874/u/94/f/647164/c/34976/s/3c61ec17/sc/4/a2.img" /></a><img border="0" height="1" src="http://pi.feedsportal.com/r/199120490874/u/94/f/647164/c/34976/s/3c61ec17/sc/4/a2t.img" width="1" /><img height="1" src="http://feeds.feedburner.com/~r/gizmodo/full/~4/yJBxKBhTInE" width="1" />
p373
stRp374
sg22
(lp375
g1
(g2
g3
(dp376
g25
Vhttp://feeds.gawker.com/~r/gizmodo/full/~3/yJBxKBhTInE/+caseychan
p377
sg27
g28
sg29
g30
stRp378
asg15
g16
((I2014
I7
I11
I1
I0
I0
I4
I192
I0
t(dtRp379
sg18
VImagining Google as a real person is still so embarrassingly hilarious
p380
sS'feedburner_origlink'
p381
Vhttp://sploid.gizmodo.com/its-still-embarrassingly-hilarious-to-imagine-google-as-1603324446/+caseychan
p382
sg127
(lp383
g1
(g2
g3
(dp384
g130
Virl
p385
sg132
Nsg133
NstRp386
ag1
(g2
g3
(dp387
g130
Vhaha
p388
sg132
Nsg133
NstRp389
ag1
(g2
g3
(dp390
g130
Vhumor
p391
sg132
Nsg133
NstRp392
ag1
(g2
g3
(dp393
g130
Vgoogle
p394
sg132
Nsg133
NstRp395
asg141
g373
sg142
I00
sS'title_detail'
p396
g1
(g2
g3
(dp397
g52
Vhttp://feeds.gawker.com/gizmodo/full
p398
sg27
g60
sg13
Nsg55
g380
stRp399
sg67
g377
sg147
VCasey Chan on Sploid, shared by Casey Chan to Gizmodo
p400
sg20
VFri, 11 Jul 2014 01:00:00 GMT
p401
sg150
(lp402
g1
(g2
g3
(dtRp403
asS'author_detail'
p404
g1
(g2
g3
(dp405
g155
g400
stRp406
sg157
Vhttp://feeds.gawker.com/gizmodo/1603324446
p407
stRp408
ag1
(g2
g3
(dp409
S'summary_detail'
p410
g1
(g2
g3
(dp411
g52
Vhttp://feeds.gawker.com/gizmodo/full
p412
sg27
g54
sg13
Nsg55
V<p class="has-media media-640"><img alt="10 tricks that famous movie directors use as their trademark" class="transform-original" height="265" src="http://i.kinja-img.com/gawker-media/image/upload/s--z_ylF_Qi--/ovaxx0jwv0vpecglwxcx.jpg" width="636" /></p> <p class="first-text">With some directors, you can immediately tell you're watching a movie they directed just by looking at a still frame without any context. There's a visual style they stamp on their films, a certain special effect they like, a narrative preference they utilize, basically, a trademark they have. <a href="https://www.youtube.com/watch?v=6kInDsp4S_g" target="_blank">WatchMojo came up with a list</a> of the 10 most famous movie director trademarks in the video below.</p><p><a href="http://sploid.gizmodo.com/10-tricks-that-famous-movie-directors-use-as-their-trad-1603312440/+caseychan">Read more...</a></p><img border="0" height="1" src="http://gizmodo.feedsportal.com/c/34976/f/647164/s/3c62252b/sc/10/mf.gif" width="1" /><br clear="all" /><img height="1" src="http://feeds.feedburner.com/~r/gizmodo/full/~4/XMv7ALQ2lLU" width="1" />
p413
stRp414
sg22
(lp415
g1
(g2
g3
(dp416
g25
Vhttp://feeds.gawker.com/~r/gizmodo/full/~3/XMv7ALQ2lLU/+caseychan
p417
sg27
g28
sg29
g30
stRp418
asg15
g16
((I2014
I7
I11
I0
I35
I6
I4
I192
I0
t(dtRp419
sg18
V10 tricks that famous movie directors use as their trademark
p420
sS'feedburner_origlink'
p421
Vhttp://sploid.gizmodo.com/10-tricks-that-famous-movie-directors-use-as-their-trad-1603312440/+caseychan
p422
sg127
(lp423
g1
(g2
g3
(dp424
g130
Vdirectors
p425
sg132
Nsg133
NstRp426
ag1
(g2
g3
(dp427
g130
Vtrademarks
p428
sg132
Nsg133
NstRp429
ag1
(g2
g3
(dp430
g130
Vmovies
p431
sg132
Nsg133
NstRp432
ag1
(g2
g3
(dp433
g130
Vstyle
p434
sg132
Nsg133
NstRp435
ag1
(g2
g3
(dp436
g130
Vinteresting
p437
sg132
Nsg133
NstRp438
ag1
(g2
g3
(dp439
g130
Vfilm
p440
sg132
Nsg133
NstRp441
asg141
g413
sg142
I00
sS'title_detail'
p442
g1
(g2
g3
(dp443
g52
Vhttp://feeds.gawker.com/gizmodo/full
p444
sg27
g60
sg13
Nsg55
g420
stRp445
sg67
g417
sg147
VCasey Chan on Sploid, shared by Casey Chan to Gizmodo
p446
sg20
VFri, 11 Jul 2014 00:35:06 GMT
p447
sg150
(lp448
g1
(g2
g3
(dtRp449
asS'author_detail'
p450
g1
(g2
g3
(dp451
g155
g446
stRp452
sg157
Vhttp://feeds.gawker.com/gizmodo/1603312440
p453
stRp454
ag1
(g2
g3
(dp455
S'summary_detail'
p456
g1
(g2
g3
(dp457
g52
Vhttp://feeds.gawker.com/gizmodo/full
p458
sg27
g54
sg13
Nsg55
V<p class="has-media media-640"><img alt="Orphan Black Got Stiffed At The Emmys, But You Should Still Watch It" class="transform-original" height="356" src="http://i.kinja-img.com/gawker-media/image/upload/s--4yMOiNnO--/805812754262922415.jpg" width="636" /></p> <p class="first-text">The 2014 Emmy Award nominations came out today, and fans of BBC America's <em>Orphan Black</em> were understandably upset when lead actress Tatiana Maslany didn't get nominated. Maslany, after all, plays seven distinct characters on the thrilling, original, weird clone drama. </p><p><a href="http://gizmodo.com/orphan-black-got-stiffed-at-the-emmys-but-you-should-s-1603112883">Read more...</a></p><img border="0" height="1" src="http://gizmodo.feedsportal.com/c/34976/f/647164/s/3c61cf1f/sc/17/mf.gif" width="1" /><br clear="all" /><br /><br /><a href="http://da.feedsportal.com/r/199109388093/u/94/f/647164/c/34976/s/3c61cf1f/sc/17/rc/1/rc.htm" rel="nofollow"><img border="0" src="http://da.feedsportal.com/r/199109388093/u/94/f/647164/c/34976/s/3c61cf1f/sc/17/rc/1/rc.img" /></a><br /><a href="http://da.feedsportal.com/r/199109388093/u/94/f/647164/c/34976/s/3c61cf1f/sc/17/rc/2/rc.htm" rel="nofollow"><img border="0" src="http://da.feedsportal.com/r/199109388093/u/94/f/647164/c/34976/s/3c61cf1f/sc/17/rc/2/rc.img" /></a><br /><a href="http://da.feedsportal.com/r/199109388093/u/94/f/647164/c/34976/s/3c61cf1f/sc/17/rc/3/rc.htm" rel="nofollow"><img border="0" src="http://da.feedsportal.com/r/199109388093/u/94/f/647164/c/34976/s/3c61cf1f/sc/17/rc/3/rc.img" /></a><br /><br /><a href="http://da.feedsportal.com/r/199109388093/u/94/f/647164/c/34976/s/3c61cf1f/sc/17/a2.htm"><img border="0" src="http://da.feedsportal.com/r/199109388093/u/94/f/647164/c/34976/s/3c61cf1f/sc/17/a2.img" /></a><img border="0" height="1" src="http://pi.feedsportal.com/r/199109388093/u/94/f/647164/c/34976/s/3c61cf1f/sc/17/a2t.img" width="1" /><img height="1" src="http://feeds.feedburner.com/~r/gizmodo/full/~4/tAl66zu_Enk" width="1" />
p459
stRp460
sg22
(lp461
g1
(g2
g3
(dp462
g25
Vhttp://feeds.gawker.com/~r/gizmodo/full/~3/tAl66zu_Enk/orphan-black-got-stiffed-at-the-emmys-but-you-should-s-1603112883
p463
sg27
g28
sg29
g30
stRp464
asg15
g16
((I2014
I7
I11
I0
I0
I0
I4
I192
I0
t(dtRp465
sg18
VOrphan Black Got Stiffed At The Emmys, But You Should Still Watch It
p466
sS'feedburner_origlink'
p467
Vhttp://gizmodo.com/orphan-black-got-stiffed-at-the-emmys-but-you-should-s-1603112883
p468
sg127
(lp469
g1
(g2
g3
(dp470
g130
Vorphan black
p471
sg132
Nsg133
NstRp472
ag1
(g2
g3
(dp473
g130
Vmovie night
p474
sg132
Nsg133
NstRp475
asg141
g459
sg142
I00
sS'title_detail'
p476
g1
(g2
g3
(dp477
g52
Vhttp://feeds.gawker.com/gizmodo/full
p478
sg27
g60
sg13
Nsg55
g466
stRp479
sg67
g463
sg147
VKate Knibbs
p480
sg20
VFri, 11 Jul 2014 00:00:00 GMT
p481
sg150
(lp482
g1
(g2
g3
(dtRp483
asS'author_detail'
p484
g1
(g2
g3
(dp485
g155
g480
stRp486
sg157
Vhttp://feeds.gawker.com/gizmodo/1603112883
p487
stRp488
ag1
(g2
g3
(dp489
S'summary_detail'
p490
g1
(g2
g3
(dp491
g52
Vhttp://feeds.gawker.com/gizmodo/full
p492
sg27
g54
sg13
Nsg55
V<p class="has-media media-640"><span class="clear-both flex-video widescreen"></span></p> <p class="first-text">The relationship between scent and our memory centers is well-documented, but I'm guessing sound must be located nearby, too. Certain songs and albums have a powerful tendency to cement themselves to the moment in time when you first discovered them. </p><p><a href="http://gizmodo.com/future-islands-in-the-fall-1603260508">Read more...</a></p><img border="0" height="1" src="http://gizmodo.feedsportal.com/c/34976/f/647164/s/3c6163ef/sc/4/mf.gif" width="1" /><br clear="all" /><br /><br /><a href="http://da.feedsportal.com/r/199109386835/u/94/f/647164/c/34976/s/3c6163ef/sc/4/rc/1/rc.htm" rel="nofollow"><img border="0" src="http://da.feedsportal.com/r/199109386835/u/94/f/647164/c/34976/s/3c6163ef/sc/4/rc/1/rc.img" /></a><br /><a href="http://da.feedsportal.com/r/199109386835/u/94/f/647164/c/34976/s/3c6163ef/sc/4/rc/2/rc.htm" rel="nofollow"><img border="0" src="http://da.feedsportal.com/r/199109386835/u/94/f/647164/c/34976/s/3c6163ef/sc/4/rc/2/rc.img" /></a><br /><a href="http://da.feedsportal.com/r/199109386835/u/94/f/647164/c/34976/s/3c6163ef/sc/4/rc/3/rc.htm" rel="nofollow"><img border="0" src="http://da.feedsportal.com/r/199109386835/u/94/f/647164/c/34976/s/3c6163ef/sc/4/rc/3/rc.img" /></a><br /><br /><a href="http://da.feedsportal.com/r/199109386835/u/94/f/647164/c/34976/s/3c6163ef/sc/4/a2.htm"><img border="0" src="http://da.feedsportal.com/r/199109386835/u/94/f/647164/c/34976/s/3c6163ef/sc/4/a2.img" /></a><img border="0" height="1" src="http://pi.feedsportal.com/r/199109386835/u/94/f/647164/c/34976/s/3c6163ef/sc/4/a2t.img" width="1" /><img height="1" src="http://feeds.feedburner.com/~r/gizmodo/full/~4/2NhNhbSz4Yg" width="1" />
p493
stRp494
sg22
(lp495
g1
(g2
g3
(dp496
g25
Vhttp://feeds.gawker.com/~r/gizmodo/full/~3/2NhNhbSz4Yg/future-islands-in-the-fall-1603260508
p497
sg27
g28
sg29
g30
stRp498
asg15
g16
((I2014
I7
I10
I23
I0
I0
I3
I191
I0
t(dtRp499
sg18
VFuture Islands: In the Fall
p500
sS'feedburner_origlink'
p501
Vhttp://gizmodo.com/future-islands-in-the-fall-1603260508
p502
sg127
(lp503
g1
(g2
g3
(dp504
g130
Vin the fall
p505
sg132
Nsg133
NstRp506
ag1
(g2
g3
(dp507
g130
Vfuture islands
p508
sg132
Nsg133
NstRp509
ag1
(g2
g3
(dp510
g130
Vsoundtrack
p511
sg132
Nsg133
NstRp512
asg141
g493
sg142
I00
sS'title_detail'
p513
g1
(g2
g3
(dp514
g52
Vhttp://feeds.gawker.com/gizmodo/full
p515
sg27
g60
sg13
Nsg55
g500
stRp516
sg67
g497
sg147
VKelsey Campbell-Dollaghan
p517
sg20
VThu, 10 Jul 2014 23:00:00 GMT
p518
sg150
(lp519
g1
(g2
g3
(dtRp520
asS'author_detail'
p521
g1
(g2
g3
(dp522
g155
g517
stRp523
sg157
Vhttp://feeds.gawker.com/gizmodo/1603260508
p524
stRp525
ag1
(g2
g3
(dp526
S'summary_detail'
p527
g1
(g2
g3
(dp528
g52
Vhttp://feeds.gawker.com/gizmodo/full
p529
sg27
g54
sg13
Nsg55
V<p class="has-media media-640"><img alt="This Vintage Typewriter Is Actually a Keyboard For Your Tablet" class="transform-ku-xlarge" height="357" src="http://i.kinja-img.com/gawker-media/image/upload/s--W3e1uP6D--/c_fit,fl_progressive,q_80,w_636/ulkxafjxey1psu3kx5xg.jpg" width="636" /></p> <p class="first-text">For some of us who type all day for a living, the world is too quiet. We pine for the whir of the Xerox machine, the rattle of rotary telephones, the clackety-clack of the typewriter. A slightly romantic vision, maybe, but no longer completely impossible, thanks to this keyboard modeled to look exactly like a vintage typewriter.</p><p><a href="http://gizmodo.com/this-vintage-typewriter-is-actually-a-keyboard-for-your-1599446847">Read more...</a></p><img border="0" height="1" src="http://gizmodo.feedsportal.com/c/34976/f/647164/s/3c6166bc/sc/5/mf.gif" width="1" /><br clear="all" /><img height="1" src="http://feeds.feedburner.com/~r/gizmodo/full/~4/HgNts9DMz3A" width="1" />
p530
stRp531
sg22
(lp532
g1
(g2
g3
(dp533
g25
Vhttp://feeds.gawker.com/~r/gizmodo/full/~3/HgNts9DMz3A/this-vintage-typewriter-is-actually-a-keyboard-for-your-1599446847
p534
sg27
g28
sg29
g30
stRp535
asg15
g16
((I2014
I7
I10
I22
I40
I0
I3
I191
I0
t(dtRp536
sg18
VThis Vintage Typewriter Is Actually a Keyboard For Your Tablet
p537
sS'feedburner_origlink'
p538
Vhttp://gizmodo.com/this-vintage-typewriter-is-actually-a-keyboard-for-your-1599446847
p539
sg127
(lp540
g1
(g2
g3
(dp541
g130
Vtypewriters
p542
sg132
Nsg133
NstRp543
ag1
(g2
g3
(dp544
g130
Vcomputers
p545
sg132
Nsg133
NstRp546
ag1
(g2
g3
(dp547
g130
Vkeyboards
p548
sg132
Nsg133
NstRp549
ag1
(g2
g3
(dp550
g130
Vqwerkywriter
p551
sg132
Nsg133
NstRp552
ag1
(g2
g3
(dp553
g130
Vwish you were here
p554
sg132
Nsg133
NstRp555
asg141
g530
sg142
I00
sS'title_detail'
p556
g1
(g2
g3
(dp557
g52
Vhttp://feeds.gawker.com/gizmodo/full
p558
sg27
g60
sg13
Nsg55
g537
stRp559
sg67
g534
sg147
VAlissa Walker
p560
sg20
VThu, 10 Jul 2014 22:40:00 GMT
p561
sg150
(lp562
g1
(g2
g3
(dtRp563
asS'author_detail'
p564
g1
(g2
g3
(dp565
g155
g560
stRp566
sg157
Vhttp://feeds.gawker.com/gizmodo/1599446847
p567
stRp568
ag1
(g2
g3
(dp569
S'summary_detail'
p570
g1
(g2
g3
(dp571
g52
Vhttp://feeds.gawker.com/gizmodo/full
p572
sg27
g54
sg13
Nsg55
V<p class="has-media media-640"><img alt="Scientist find that 80 percent of all light in the Universe is missing" class="transform-ku-xlarge" height="423" src="http://i.kinja-img.com/gawker-media/image/upload/s--m90oV-7f--/c_fit,fl_progressive,q_80,w_636/805898042041024660.jpg" width="636" /></p> <p class="first-text">According to observations made by the Cosmic Origins Spectrograph on board the Hubble Space Telescope, <a href="http://www.colorado.edu/news/releases/2014/07/09/cu-boulder-instrument-onboard-hubble-reveals-universe-%E2%80%98missing%E2%80%99-light" target="_blank">the Universe is <em>missing</em> 80 percent of all its light.</a> Astronomers are completely baffled: "We still don't know for sure what it is, but at least one thing we thought we knew about the present day universe isn't true." </p><p><a href="http://sploid.gizmodo.com/scientists-find-that-80-percent-of-all-light-in-the-uni-1603234995/+caseychan">Read more...</a></p><img border="0" height="1" src="http://gizmodo.feedsportal.com/c/34976/f/647164/s/3c619c6f/sc/22/mf.gif" width="1" /><br clear="all" /><img height="1" src="http://feeds.feedburner.com/~r/gizmodo/full/~4/XhG_qUVniwI" width="1" />
p573
stRp574
sg22
(lp575
g1
(g2
g3
(dp576
g25
Vhttp://feeds.gawker.com/~r/gizmodo/full/~3/XhG_qUVniwI/+caseychan
p577
sg27
g28
sg29
g30
stRp578
asg15
g16
((I2014
I7
I10
I22
I7
I0
I3
I191
I0
t(dtRp579
sg18
VScientist find that 80 percent of all light in the Universe is missing
p580
sS'feedburner_origlink'
p581
Vhttp://sploid.gizmodo.com/scientists-find-that-80-percent-of-all-light-in-the-uni-1603234995/+caseychan
p582
sg127
(lp583
g1
(g2
g3
(dp584
g130
Vlight
p585
sg132
Nsg133
NstRp586
ag1
(g2
g3
(dp587
g130
Vfascinating
p588
sg132
Nsg133
NstRp589
ag1
(g2
g3
(dp590
g130
Vinteresting
p591
sg132
Nsg133
NstRp592
asg141
g573
sg142
I00
sS'title_detail'
p593
g1
(g2
g3
(dp594
g52
Vhttp://feeds.gawker.com/gizmodo/full
p595
sg27
g60
sg13
Nsg55
g580
stRp596
sg67
g577
sg147
VJesus Diaz on Sploid, shared by Casey Chan to Gizmodo
p597
sg20
VThu, 10 Jul 2014 22:07:00 GMT
p598
sg150
(lp599
g1
(g2
g3
(dtRp600
asS'author_detail'
p601
g1
(g2
g3
(dp602
g155
g597
stRp603
sg157
Vhttp://feeds.gawker.com/gizmodo/1603234995
p604
stRp605
ag1
(g2
g3
(dp606
S'summary_detail'
p607
g1
(g2
g3
(dp608
g52
Vhttp://feeds.gawker.com/gizmodo/full
p609
sg27
g54
sg13
Nsg55
V<p class="has-media media-640"><img alt="This Compact Device Keeps Small Electronics Running on Emergency Power" class="transform-ku-xlarge" height="288" src="http://i.kinja-img.com/gawker-media/image/upload/s--Ec5Mfuj5--/c_fit,fl_progressive,q_80,w_636/yuxedxczw2ys10kd9voa.jpg" width="636" /></p> <p class="first-text">A UPS\u2014or uninterruptible power supply\u2014beneath your desk can be a lifesaver if your building loses electricity while you're working. However, most people don't own one because a UPS is typically designed for power-hungry desktop computers and end up being heavy and expensive\u2014but not <a href="https://www.apc.com/products/resource/include/techspec_index.cfm?base_sku=BGE70&#38;tab=models" target="_blank">APC's new tiny and cheap Back-UPS Connect 70</a>.</p><p><a href="http://gizmodo.com/this-compact-device-keeps-small-electronics-running-on-1602391682">Read more...</a></p><img border="0" height="1" src="http://gizmodo.feedsportal.com/c/34976/f/647164/s/3c615986/sc/5/mf.gif" width="1" /><br clear="all" /><br /><br /><a href="http://da.feedsportal.com/r/199109385641/u/94/f/647164/c/34976/s/3c615986/sc/5/rc/1/rc.htm" rel="nofollow"><img border="0" src="http://da.feedsportal.com/r/199109385641/u/94/f/647164/c/34976/s/3c615986/sc/5/rc/1/rc.img" /></a><br /><a href="http://da.feedsportal.com/r/199109385641/u/94/f/647164/c/34976/s/3c615986/sc/5/rc/2/rc.htm" rel="nofollow"><img border="0" src="http://da.feedsportal.com/r/199109385641/u/94/f/647164/c/34976/s/3c615986/sc/5/rc/2/rc.img" /></a><br /><a href="http://da.feedsportal.com/r/199109385641/u/94/f/647164/c/34976/s/3c615986/sc/5/rc/3/rc.htm" rel="nofollow"><img border="0" src="http://da.feedsportal.com/r/199109385641/u/94/f/647164/c/34976/s/3c615986/sc/5/rc/3/rc.img" /></a><br /><br /><a href="http://da.feedsportal.com/r/199109385641/u/94/f/647164/c/34976/s/3c615986/sc/5/a2.htm"><img border="0" src="http://da.feedsportal.com/r/199109385641/u/94/f/647164/c/34976/s/3c615986/sc/5/a2.img" /></a><img border="0" height="1" src="http://pi.feedsportal.com/r/199109385641/u/94/f/647164/c/34976/s/3c615986/sc/5/a2t.img" width="1" /><img height="1" src="http://feeds.feedburner.com/~r/gizmodo/full/~4/vzlJVzd36SY" width="1" />
p610
stRp611
sg22
(lp612
g1
(g2
g3
(dp613
g25
Vhttp://feeds.gawker.com/~r/gizmodo/full/~3/vzlJVzd36SY/this-compact-device-keeps-small-electronics-running-on-1602391682
p614
sg27
g28
sg29
g30
stRp615
asg15
g16
((I2014
I7
I10
I22
I0
I0
I3
I191
I0
t(dtRp616
sg18
VThis Compact Device Keeps Small Electronics Running on Emergency Power
p617
sS'feedburner_origlink'
p618
Vhttp://gizmodo.com/this-compact-device-keeps-small-electronics-running-on-1602391682
p619
sg127
(lp620
g1
(g2
g3
(dp621
g130
Vbatteries
p622
sg132
Nsg133
NstRp623
ag1
(g2
g3
(dp624
g130
Vpower
p625
sg132
Nsg133
NstRp626
ag1
(g2
g3
(dp627
g130
Vapc
p628
sg132
Nsg133
NstRp629
ag1
(g2
g3
(dp630
g130
Vapc back-ups connect 70
p631
sg132
Nsg133
NstRp632
asg141
g610
sg142
I00
sS'title_detail'
p633
g1
(g2
g3
(dp634
g52
Vhttp://feeds.gawker.com/gizmodo/full
p635
sg27
g60
sg13
Nsg55
g617
stRp636
sg67
g614
sg147
VAndrew Liszewski
p637
sg20
VThu, 10 Jul 2014 22:00:00 GMT
p638
sg150
(lp639
g1
(g2
g3
(dtRp640
asS'author_detail'
p641
g1
(g2
g3
(dp642
g155
g637
stRp643
sg157
Vhttp://feeds.gawker.com/gizmodo/1602391682
p644
stRp645
ag1
(g2
g3
(dp646
S'summary_detail'
p647
g1
(g2
g3
(dp648
g52
Vhttp://feeds.gawker.com/gizmodo/full
p649
sg27
g54
sg13
Nsg55
V<p class="has-media media-640"><img alt="Why a Once-Hated 1980s Design Movement Is Making a Comeback" class="transform-ku-xlarge" height="458" src="http://i.kinja-img.com/gawker-media/image/upload/s--h2KvfKvs--/c_fit,fl_progressive,q_80,w_636/vtzmdijaxvcoglfwbscx.jpg" width="636" /></p> <p class="first-text"> Although you know it when you see it, it's hard to accurately describe Memphis design without resorting to specific 1980s pop cultural references. It's <em>Pee-Wee's Playhouse </em>meets <em>Miami Vice</em>. It's <em>Saved By The Bell</em> plus <em>Beetlejuice</em>. And it's all coming back, in a very big way.</p><p><a href="http://gizmodo.com/why-a-once-hated-1980s-design-movement-is-making-a-come-1602111413">Read more...</a></p><img border="0" height="1" src="http://gizmodo.feedsportal.com/c/34976/f/647164/s/3c614384/sc/4/mf.gif" width="1" /><br clear="all" /><br /><br /><a href="http://da.feedsportal.com/r/199120486931/u/94/f/647164/c/34976/s/3c614384/sc/4/rc/1/rc.htm" rel="nofollow"><img border="0" src="http://da.feedsportal.com/r/199120486931/u/94/f/647164/c/34976/s/3c614384/sc/4/rc/1/rc.img" /></a><br /><a href="http://da.feedsportal.com/r/199120486931/u/94/f/647164/c/34976/s/3c614384/sc/4/rc/2/rc.htm" rel="nofollow"><img border="0" src="http://da.feedsportal.com/r/199120486931/u/94/f/647164/c/34976/s/3c614384/sc/4/rc/2/rc.img" /></a><br /><a href="http://da.feedsportal.com/r/199120486931/u/94/f/647164/c/34976/s/3c614384/sc/4/rc/3/rc.htm" rel="nofollow"><img border="0" src="http://da.feedsportal.com/r/199120486931/u/94/f/647164/c/34976/s/3c614384/sc/4/rc/3/rc.img" /></a><br /><br /><a href="http://da.feedsportal.com/r/199120486931/u/94/f/647164/c/34976/s/3c614384/sc/4/a2.htm"><img border="0" src="http://da.feedsportal.com/r/199120486931/u/94/f/647164/c/34976/s/3c614384/sc/4/a2.img" /></a><img border="0" height="1" src="http://pi.feedsportal.com/r/199120486931/u/94/f/647164/c/34976/s/3c614384/sc/4/a2t.img" width="1" /><img height="1" src="http://feeds.feedburner.com/~r/gizmodo/full/~4/ehvkq3FsSt4" width="1" />
p650
stRp651
sg22
(lp652
g1
(g2
g3
(dp653
g25
Vhttp://feeds.gawker.com/~r/gizmodo/full/~3/ehvkq3FsSt4/why-a-once-hated-1980s-design-movement-is-making-a-come-1602111413
p654
sg27
g28
sg29
g30
stRp655
asg15
g16
((I2014
I7
I10
I21
I40
I0
I3
I191
I0
t(dtRp656
sg18
VWhy a Once-Hated 1980s Design Movement Is Making a Comeback
p657
sS'feedburner_origlink'
p658
Vhttp://gizmodo.com/why-a-once-hated-1980s-design-movement-is-making-a-come-1602111413
p659
sg127
(lp660
g1
(g2
g3
(dp661
g130
Vdesign
p662
sg132
Nsg133
NstRp663
ag1
(g2
g3
(dp664
g130
Vettore sottsass
p665
sg132
Nsg133
NstRp666
ag1
(g2
g3
(dp667
g130
Vmemphis
p668
sg132
Nsg133
NstRp669
ag1
(g2
g3
(dp670
g130
Varchitecture
p671
sg132
Nsg133
NstRp672
ag1
(g2
g3
(dp673
g130
Vfurniture
p674
sg132
Nsg133
NstRp675
asg141
g650
sg142
I00
sS'title_detail'
p676
g1
(g2
g3
(dp677
g52
Vhttp://feeds.gawker.com/gizmodo/full
p678
sg27
g60
sg13
Nsg55
g657
stRp679
sg67
g654
sg147
VAlissa Walker
p680
sg20
VThu, 10 Jul 2014 21:40:00 GMT
p681
sg150
(lp682
g1
(g2
g3
(dtRp683
asS'author_detail'
p684
g1
(g2
g3
(dp685
g155
g680
stRp686
sg157
Vhttp://feeds.gawker.com/gizmodo/1602111413
p687
stRp688
ag1
(g2
g3
(dp689
S'summary_detail'
p690
g1
(g2
g3
(dp691
g52
Vhttp://feeds.gawker.com/gizmodo/full
p692
sg27
g54
sg13
Nsg55
V<p class="has-media media-640"><img alt="In 1893, 2.5 million pounds of horse manure filled NYC streets per day" class="transform-ku-xlarge" height="379" src="http://i.kinja-img.com/gawker-media/image/upload/s--4ZCK21yd--/c_fit,fl_progressive,q_80,w_636/uqihtjbqxjqqzkymik7x.jpg" width="636" /></p> <p class="first-text"> Think New York summers are pungent now? Imagine what it must've smelled like at the turn of the 20th century. Before the introduction of the automobile, horses were leaving about 2.5 million pounds of shit in the streets per day.</p><p><a href="http://factually.gizmodo.com/in-1893-2-5-million-pounds-of-horse-manure-filled-nyc-1603208434/+kcampbelldollaghan">Read more...</a></p><img border="0" height="1" src="http://gizmodo.feedsportal.com/c/34976/f/647164/s/3c6192c0/sc/10/mf.gif" width="1" /><br clear="all" /><img height="1" src="http://feeds.feedburner.com/~r/gizmodo/full/~4/IM6XeBenfUI" width="1" />
p693
stRp694
sg22
(lp695
g1
(g2
g3
(dp696
g25
Vhttp://feeds.gawker.com/~r/gizmodo/full/~3/IM6XeBenfUI/+kcampbelldollaghan
p697
sg27
g28
sg29
g30
stRp698
asg15
g16
((I2014
I7
I10
I21
I30
I0
I3
I191
I0
t(dtRp699
sg18
VIn 1893, 2.5 million pounds of horse manure filled NYC streets per day
p700
sS'feedburner_origlink'
p701
Vhttp://factually.gizmodo.com/in-1893-2-5-million-pounds-of-horse-manure-filled-nyc-1603208434/+kcampbelldollaghan
p702
sg127
(lp703
g1
(g2
g3
(dp704
g130
Vnew york city
p705
sg132
Nsg133
NstRp706
ag1
(g2
g3
(dp707
g130
Vsmells
p708
sg132
Nsg133
NstRp709
ag1
(g2
g3
(dp710
g130
Vtransportation
p711
sg132
Nsg133
NstRp712
ag1
(g2
g3
(dp713
g130
Vhorses
p714
sg132
Nsg133
NstRp715
ag1
(g2
g3
(dp716
g130
Vautomobiles
p717
sg132
Nsg133
NstRp718
ag1
(g2
g3
(dp719
g130
Vcars
p720
sg132
Nsg133
NstRp721
asg141
g693
sg142
I00
sS'title_detail'
p722
g1
(g2
g3
(dp723
g52
Vhttp://feeds.gawker.com/gizmodo/full
p724
sg27
g60
sg13
Nsg55
g700
stRp725
sg67
g697
sg147
VMatt Novak on Factually, shared by Kelsey Campbell-Dollaghan to Gizmodo
p726
sg20
VThu, 10 Jul 2014 21:30:00 GMT
p727
sg150
(lp728
g1
(g2
g3
(dtRp729
asS'author_detail'
p730
g1
(g2
g3
(dp731
g155
g726
stRp732
sg157
Vhttp://feeds.gawker.com/gizmodo/1603208434
p733
stRp734
ag1
(g2
g3
(dp735
S'summary_detail'
p736
g1
(g2
g3
(dp737
g52
Vhttp://feeds.gawker.com/gizmodo/full
p738
sg27
g54
sg13
Nsg55
V<p class="has-media media-640"><img alt="The First Core i3-Powered Chromebook Is Ready for Preorder" class="transform-ku-xlarge" height="288" src="http://i.kinja-img.com/gawker-media/image/upload/s--zvJC69NN--/c_fit,fl_progressive,q_80,w_636/btviq6r5bthlbs86l9ul.jpg" width="636" /></p> <p class="first-text">We've been expecting <a href="http://gizmodo.com/this-new-generation-of-chromebooks-packs-celeron-proces-1572224028">a new batch of Intel-powered chromebooks</a>  since May, and the first one is here: meet the <a href="http://us.acer.com/ac/en/US/content/model/NX.SHEAA.018" target="_blank">Acer C720</a>, the first to pack a full-on Core i3 processor in addition to up to 4GB of RAM, and 32GB of storage. Pretty muscular for a browser-based device.</p><p><a href="http://gizmodo.com/acer-brings-the-first-core-i3-powered-chromebook-out-fo-1603212908">Read more...</a></p><img border="0" height="1" src="http://gizmodo.feedsportal.com/c/34976/f/647164/s/3c610a43/sc/28/mf.gif" width="1" /><br clear="all" /><br /><br /><a href="http://da.feedsportal.com/r/199107907438/u/94/f/647164/c/34976/s/3c610a43/sc/28/rc/1/rc.htm" rel="nofollow"><img border="0" src="http://da.feedsportal.com/r/199107907438/u/94/f/647164/c/34976/s/3c610a43/sc/28/rc/1/rc.img" /></a><br /><a href="http://da.feedsportal.com/r/199107907438/u/94/f/647164/c/34976/s/3c610a43/sc/28/rc/2/rc.htm" rel="nofollow"><img border="0" src="http://da.feedsportal.com/r/199107907438/u/94/f/647164/c/34976/s/3c610a43/sc/28/rc/2/rc.img" /></a><br /><a href="http://da.feedsportal.com/r/199107907438/u/94/f/647164/c/34976/s/3c610a43/sc/28/rc/3/rc.htm" rel="nofollow"><img border="0" src="http://da.feedsportal.com/r/199107907438/u/94/f/647164/c/34976/s/3c610a43/sc/28/rc/3/rc.img" /></a><br /><br /><a href="http://da.feedsportal.com/r/199107907438/u/94/f/647164/c/34976/s/3c610a43/sc/28/a2.htm"><img border="0" src="http://da.feedsportal.com/r/199107907438/u/94/f/647164/c/34976/s/3c610a43/sc/28/a2.img" /></a><img border="0" height="1" src="http://pi.feedsportal.com/r/199107907438/u/94/f/647164/c/34976/s/3c610a43/sc/28/a2t.img" width="1" /><img height="1" src="http://feeds.feedburner.com/~r/gizmodo/full/~4/CuyfC0_af1Y" width="1" />
p739
stRp740
sg22
(lp741
g1
(g2
g3
(dp742
g25
Vhttp://feeds.gawker.com/~r/gizmodo/full/~3/CuyfC0_af1Y/acer-brings-the-first-core-i3-powered-chromebook-out-fo-1603212908
p743
sg27
g28
sg29
g30
stRp744
asg15
g16
((I2014
I7
I10
I21
I29
I0
I3
I191
I0
t(dtRp745
sg18
VThe First Core i3-Powered Chromebook Is Ready for Preorder
p746
sS'feedburner_origlink'
p747
Vhttp://gizmodo.com/acer-brings-the-first-core-i3-powered-chromebook-out-fo-1603212908
p748
sg127
(lp749
g1
(g2
g3
(dp750
g130
Vchromebooks
p751
sg132
Nsg133
NstRp752
ag1
(g2
g3
(dp753
g130
Vacer c720
p754
sg132
Nsg133
NstRp755
ag1
(g2
g3
(dp756
g130
Vpixel
p757
sg132
Nsg133
NstRp758
ag1
(g2
g3
(dp759
g130
Vchromebook
p760
sg132
Nsg133
NstRp761
ag1
(g2
g3
(dp762
g130
Vchromebook pixel
p763
sg132
Nsg133
NstRp764
ag1
(g2
g3
(dp765
g130
Vacer
p766
sg132
Nsg133
NstRp767
asg141
g739
sg142
I00
sS'title_detail'
p768
g1
(g2
g3
(dp769
g52
Vhttp://feeds.gawker.com/gizmodo/full
p770
sg27
g60
sg13
Nsg55
g746
stRp771
sg67
g743
sg147
VRobert Sorokanich
p772
sg20
VThu, 10 Jul 2014 21:29:00 GMT
p773
sg150
(lp774
g1
(g2
g3
(dtRp775
asS'author_detail'
p776
g1
(g2
g3
(dp777
g155
g772
stRp778
sg157
Vhttp://feeds.gawker.com/gizmodo/1603212908
p779
stRp780
ag1
(g2
g3
(dp781
S'summary_detail'
p782
g1
(g2
g3
(dp783
g52
Vhttp://feeds.gawker.com/gizmodo/full
p784
sg27
g54
sg13
Nsg55
V<p class="has-media media-640"><img alt="Watch a Young Terry Gilliam Explain How He Makes Monty Python Animations" class="transform-ku-xlarge" height="298" src="http://i.kinja-img.com/gawker-media/image/upload/s--w3d_dljs--/c_fit,fl_progressive,q_80,w_636/z5qu1yu97o3kxyatkxu0.gif" width="636" /></p> <p class="first-text">There's a lot to love about vintage Monty Python\u2014dead parrots, silly walks, lumberjacks, killer rabbits\u2014but Terry Gilliam's magic touch with his signature cut-out animations really gave the group a goofball creative edge. In this clip from the early 1970s, a fresh-faced Gilliam (with an incredible 'do) describes his no-tech approach to the process. </p><p><a href="http://gizmodo.com/watch-a-young-terry-gilliam-explain-how-he-makes-monty-1603146449">Read more...</a></p><img border="0" height="1" src="http://gizmodo.feedsportal.com/c/34976/f/647164/s/3c610a45/sc/38/mf.gif" width="1" /><br clear="all" /><br /><br /><a href="http://da.feedsportal.com/r/199107907437/u/94/f/647164/c/34976/s/3c610a45/sc/38/rc/1/rc.htm" rel="nofollow"><img border="0" src="http://da.feedsportal.com/r/199107907437/u/94/f/647164/c/34976/s/3c610a45/sc/38/rc/1/rc.img" /></a><br /><a href="http://da.feedsportal.com/r/199107907437/u/94/f/647164/c/34976/s/3c610a45/sc/38/rc/2/rc.htm" rel="nofollow"><img border="0" src="http://da.feedsportal.com/r/199107907437/u/94/f/647164/c/34976/s/3c610a45/sc/38/rc/2/rc.img" /></a><br /><a href="http://da.feedsportal.com/r/199107907437/u/94/f/647164/c/34976/s/3c610a45/sc/38/rc/3/rc.htm" rel="nofollow"><img border="0" src="http://da.feedsportal.com/r/199107907437/u/94/f/647164/c/34976/s/3c610a45/sc/38/rc/3/rc.img" /></a><br /><br /><a href="http://da.feedsportal.com/r/199107907437/u/94/f/647164/c/34976/s/3c610a45/sc/38/a2.htm"><img border="0" src="http://da.feedsportal.com/r/199107907437/u/94/f/647164/c/34976/s/3c610a45/sc/38/a2.img" /></a><img border="0" height="1" src="http://pi.feedsportal.com/r/199107907437/u/94/f/647164/c/34976/s/3c610a45/sc/38/a2t.img" width="1" /><img height="1" src="http://feeds.feedburner.com/~r/gizmodo/full/~4/mCEGE8GO5m0" width="1" />
p785
stRp786
sg22
(lp787
g1
(g2
g3
(dp788
g25
Vhttp://feeds.gawker.com/~r/gizmodo/full/~3/mCEGE8GO5m0/watch-a-young-terry-gilliam-explain-how-he-makes-monty-1603146449
p789
sg27
g28
sg29
g30
stRp790
asg15
g16
((I2014
I7
I10
I21
I20
I0
I3
I191
I0
t(dtRp791
sg18
VWatch a Young Terry Gilliam Explain How He Makes Monty Python Animations
p792
sS'feedburner_origlink'
p793
Vhttp://gizmodo.com/watch-a-young-terry-gilliam-explain-how-he-makes-monty-1603146449
p794
sg127
(lp795
g1
(g2
g3
(dp796
g130
Vanimation
p797
sg132
Nsg133
NstRp798
ag1
(g2
g3
(dp799
g130
Vterry gilliam
p800
sg132
Nsg133
NstRp801
ag1
(g2
g3
(dp802
g130
Vmonty python
p803
sg132
Nsg133
NstRp804
asg141
g785
sg142
I00
sS'title_detail'
p805
g1
(g2
g3
(dp806
g52
Vhttp://feeds.gawker.com/gizmodo/full
p807
sg27
g60
sg13
Nsg55
g792
stRp808
sg67
g789
sg147
VJordan Kushins
p809
sg20
VThu, 10 Jul 2014 21:20:00 GMT
p810
sg150
(lp811
g1
(g2
g3
(dtRp812
asS'author_detail'
p813
g1
(g2
g3
(dp814
g155
g809
stRp815
sg157
Vhttp://feeds.gawker.com/gizmodo/1603146449
p816
stRp817
ag1
(g2
g3
(dp818
S'summary_detail'
p819
g1
(g2
g3
(dp820
g52
Vhttp://feeds.gawker.com/gizmodo/full
p821
sg27
g54
sg13
Nsg55
V<p class="has-media media-640"><img alt="Columbia Designed This Camo To Make Anglers Invisible To Fish" class="transform-ku-xlarge" height="288" src="http://i.kinja-img.com/gawker-media/image/upload/s--pbXAARSv--/c_fit,fl_progressive,q_80,w_636/dvcf5fnyzpsxnxkhq8b0.gif" width="636" /></p> <p class="first-text">Hunters wear camouflage clothing from head to toe to blend in with their surroundings and sneak up on their prey. But fisherman never do, so Columbia has designed color-changing shirt with what it's calling a <a href="http://gearjunkie.com/columbia-sportswear-jackets-2015" target="_blank">'Solar Camo' pattern</a> that only appears in the warmth of sunlight, helping anglers avoid being spotted and scaring the fish they're after.</p><p><a href="http://gizmodo.com/columbia-designed-this-camo-to-make-anglers-invisible-t-1602923582">Read more...</a></p><img border="0" height="1" src="http://gizmodo.feedsportal.com/c/34976/f/647164/s/3c6107fd/sc/10/mf.gif" width="1" /><br clear="all" /><br /><br /><a href="http://da.feedsportal.com/r/199107907213/u/94/f/647164/c/34976/s/3c6107fd/sc/10/rc/1/rc.htm" rel="nofollow"><img border="0" src="http://da.feedsportal.com/r/199107907213/u/94/f/647164/c/34976/s/3c6107fd/sc/10/rc/1/rc.img" /></a><br /><a href="http://da.feedsportal.com/r/199107907213/u/94/f/647164/c/34976/s/3c6107fd/sc/10/rc/2/rc.htm" rel="nofollow"><img border="0" src="http://da.feedsportal.com/r/199107907213/u/94/f/647164/c/34976/s/3c6107fd/sc/10/rc/2/rc.img" /></a><br /><a href="http://da.feedsportal.com/r/199107907213/u/94/f/647164/c/34976/s/3c6107fd/sc/10/rc/3/rc.htm" rel="nofollow"><img border="0" src="http://da.feedsportal.com/r/199107907213/u/94/f/647164/c/34976/s/3c6107fd/sc/10/rc/3/rc.img" /></a><br /><br /><a href="http://da.feedsportal.com/r/199107907213/u/94/f/647164/c/34976/s/3c6107fd/sc/10/a2.htm"><img border="0" src="http://da.feedsportal.com/r/199107907213/u/94/f/647164/c/34976/s/3c6107fd/sc/10/a2.img" /></a><img border="0" height="1" src="http://pi.feedsportal.com/r/199107907213/u/94/f/647164/c/34976/s/3c6107fd/sc/10/a2t.img" width="1" /><img height="1" src="http://feeds.feedburner.com/~r/gizmodo/full/~4/IzHYszwDkRw" width="1" />
p822
stRp823
sg22
(lp824
g1
(g2
g3
(dp825
g25
Vhttp://feeds.gawker.com/~r/gizmodo/full/~3/IzHYszwDkRw/columbia-designed-this-camo-to-make-anglers-invisible-t-1602923582
p826
sg27
g28
sg29
g30
stRp827
asg15
g16
((I2014
I7
I10
I21
I0
I0
I3
I191
I0
t(dtRp828
sg18
VColumbia Designed This Camo To Make Anglers Invisible To Fish
p829
sS'feedburner_origlink'
p830
Vhttp://gizmodo.com/columbia-designed-this-camo-to-make-anglers-invisible-t-1602923582
p831
sg127
(lp832
g1
(g2
g3
(dp833
g130
Vdaily desired
p834
sg132
Nsg133
NstRp835
ag1
(g2
g3
(dp836
g130
Vcamping
p837
sg132
Nsg133
NstRp838
ag1
(g2
g3
(dp839
g130
Vclothing
p840
sg132
Nsg133
NstRp841
ag1
(g2
g3
(dp842
g130
Vfishing
p843
sg132
Nsg133
NstRp844
ag1
(g2
g3
(dp845
g130
Vcamouflage
p846
sg132
Nsg133
NstRp847
asg141
g822
sg142
I00
sS'title_detail'
p848
g1
(g2
g3
(dp849
g52
Vhttp://feeds.gawker.com/gizmodo/full
p850
sg27
g60
sg13
Nsg55
g829
stRp851
sg67
g826
sg147
VAndrew Liszewski
p852
sg20
VThu, 10 Jul 2014 21:00:00 GMT
p853
sg150
(lp854
g1
(g2
g3
(dtRp855
asS'author_detail'
p856
g1
(g2
g3
(dp857
g155
g852
stRp858
sg157
Vhttp://feeds.gawker.com/gizmodo/1602923582
p859
stRp860
ag1
(g2
g3
(dp861
S'summary_detail'
p862
g1
(g2
g3
(dp863
g52
Vhttp://feeds.gawker.com/gizmodo/full
p864
sg27
g54
sg13
Nsg55
V<p class="has-media media-640"><img alt="The Rotating Building Where the Offices of the Future Will Be Tested" class="transform-ku-xlarge" height="288" src="http://i.kinja-img.com/gawker-media/image/upload/s--EBIDbgh---/c_fit,fl_progressive,q_80,w_636/pni20ussforzmc7st5nl.jpg" width="636" /></p> <p class="first-text">High up in the hills of Lawrence Berkeley National Laboratory sit four square, blue buildings you'd be forgiven for finding nondescript. Inside, they're decorated with drab gray carpet familiar to any cubicle worker. But it's the buildings' electronic guts that make them unique in the whole world. These labs\u2014including one that rotates 270 degrees\u2014are where office buildings of the future will be tested. </p><p><a href="http://gizmodo.com/the-rotating-building-where-the-offices-of-the-future-w-1602471614">Read more...</a></p><img border="0" height="1" src="http://gizmodo.feedsportal.com/c/34976/f/647164/s/3c601d73/sc/10/mf.gif" width="1" /><br clear="all" /><br /><br /><a href="http://da.feedsportal.com/r/199120597461/u/94/f/647164/c/34976/s/3c601d73/sc/10/rc/1/rc.htm" rel="nofollow"><img border="0" src="http://da.feedsportal.com/r/199120597461/u/94/f/647164/c/34976/s/3c601d73/sc/10/rc/1/rc.img" /></a><br /><a href="http://da.feedsportal.com/r/199120597461/u/94/f/647164/c/34976/s/3c601d73/sc/10/rc/2/rc.htm" rel="nofollow"><img border="0" src="http://da.feedsportal.com/r/199120597461/u/94/f/647164/c/34976/s/3c601d73/sc/10/rc/2/rc.img" /></a><br /><a href="http://da.feedsportal.com/r/199120597461/u/94/f/647164/c/34976/s/3c601d73/sc/10/rc/3/rc.htm" rel="nofollow"><img border="0" src="http://da.feedsportal.com/r/199120597461/u/94/f/647164/c/34976/s/3c601d73/sc/10/rc/3/rc.img" /></a><br /><br /><a href="http://da.feedsportal.com/r/199120597461/u/94/f/647164/c/34976/s/3c601d73/sc/10/a2.htm"><img border="0" src="http://da.feedsportal.com/r/199120597461/u/94/f/647164/c/34976/s/3c601d73/sc/10/a2.img" /></a><img border="0" height="1" src="http://pi.feedsportal.com/r/199120597461/u/94/f/647164/c/34976/s/3c601d73/sc/10/a2t.img" width="1" /><img height="1" src="http://feeds.feedburner.com/~r/gizmodo/full/~4/L7KnHP4NQ9Y" width="1" />
p865
stRp866
sg22
(lp867
g1
(g2
g3
(dp868
g25
Vhttp://feeds.gawker.com/~r/gizmodo/full/~3/L7KnHP4NQ9Y/the-rotating-building-where-the-offices-of-the-future-w-1602471614
p869
sg27
g28
sg29
g30
stRp870
asg15
g16
((I2014
I7
I10
I20
I41
I0
I3
I191
I0
t(dtRp871
sg18
VThe Rotating Building Where the Offices of the Future Will Be Tested
p872
sS'feedburner_origlink'
p873
Vhttp://gizmodo.com/the-rotating-building-where-the-offices-of-the-future-w-1602471614
p874
sg127
(lp875
g1
(g2
g3
(dp876
g130
Venergy
p877
sg132
Nsg133
NstRp878
ag1
(g2
g3
(dp879
g130
Vbuildings
p880
sg132
Nsg133
NstRp881
ag1
(g2
g3
(dp882
g130
Varchitecture
p883
sg132
Nsg133
NstRp884
asg141
g865
sg142
I00
sS'title_detail'
p885
g1
(g2
g3
(dp886
g52
Vhttp://feeds.gawker.com/gizmodo/full
p887
sg27
g60
sg13
Nsg55
g872
stRp888
sg67
g869
sg147
VSarah Zhang
p889
sg20
VThu, 10 Jul 2014 20:41:00 GMT
p890
sg150
(lp891
g1
(g2
g3
(dtRp892
asS'author_detail'
p893
g1
(g2
g3
(dp894
g155
g889
stRp895
sg157
Vhttp://feeds.gawker.com/gizmodo/1602471614
p896
stRp897
ag1
(g2
g3
(dp898
S'summary_detail'
p899
g1
(g2
g3
(dp900
g52
Vhttp://feeds.gawker.com/gizmodo/full
p901
sg27
g54
sg13
Nsg55
V<p class="has-media media-640"><img alt="The World's Largest LED Hydroponic Farm Used to Be a Sony Factory" class="transform-ku-xlarge" height="318" src="http://i.kinja-img.com/gawker-media/image/upload/s--qPV8yznX--/c_fit,fl_progressive,q_80,w_636/hs3ivcudleydonvqd9ga.jpg" width="636" /></p> <p class="first-text">As climate change begins posing new challenges to conventional outdoor food production methods, hydroponic farming has made quick gains in popularity thanks to its space- and energy-saving design. This enormous indoor lettuce farm for example\u2014the largest of its kind in the world\u2014produces 10,000 heads a day in less space than a single American football field and could signal a sea change in how we get our greens.</p><p><a href="http://gizmodo.com/the-worlds-largest-led-hydroponic-farm-used-to-be-a-son-1603082545">Read more...</a></p><img border="0" height="1" src="http://gizmodo.feedsportal.com/c/34976/f/647164/s/3c60ad40/sc/10/mf.gif" width="1" /><br clear="all" /><br /><br /><a href="http://da.feedsportal.com/r/199109383683/u/94/f/647164/c/34976/s/3c60ad40/sc/10/rc/1/rc.htm" rel="nofollow"><img border="0" src="http://da.feedsportal.com/r/199109383683/u/94/f/647164/c/34976/s/3c60ad40/sc/10/rc/1/rc.img" /></a><br /><a href="http://da.feedsportal.com/r/199109383683/u/94/f/647164/c/34976/s/3c60ad40/sc/10/rc/2/rc.htm" rel="nofollow"><img border="0" src="http://da.feedsportal.com/r/199109383683/u/94/f/647164/c/34976/s/3c60ad40/sc/10/rc/2/rc.img" /></a><br /><a href="http://da.feedsportal.com/r/199109383683/u/94/f/647164/c/34976/s/3c60ad40/sc/10/rc/3/rc.htm" rel="nofollow"><img border="0" src="http://da.feedsportal.com/r/199109383683/u/94/f/647164/c/34976/s/3c60ad40/sc/10/rc/3/rc.img" /></a><br /><br /><a href="http://da.feedsportal.com/r/199109383683/u/94/f/647164/c/34976/s/3c60ad40/sc/10/a2.htm"><img border="0" src="http://da.feedsportal.com/r/199109383683/u/94/f/647164/c/34976/s/3c60ad40/sc/10/a2.img" /></a><img border="0" height="1" src="http://pi.feedsportal.com/r/199109383683/u/94/f/647164/c/34976/s/3c60ad40/sc/10/a2t.img" width="1" /><img height="1" src="http://feeds.feedburner.com/~r/gizmodo/full/~4/d6X0idSNDU8" width="1" />
p902
stRp903
sg22
(lp904
g1
(g2
g3
(dp905
g25
Vhttp://feeds.gawker.com/~r/gizmodo/full/~3/d6X0idSNDU8/the-worlds-largest-led-hydroponic-farm-used-to-be-a-son-1603082545
p906
sg27
g28
sg29
g30
stRp907
asg15
g16
((I2014
I7
I10
I20
I20
I0
I3
I191
I0
t(dtRp908
sg18
VThe World's Largest LED Hydroponic Farm Used to Be a Sony Factory
p909
sS'feedburner_origlink'
p910
Vhttp://gizmodo.com/the-worlds-largest-led-hydroponic-farm-used-to-be-a-son-1603082545
p911
sg127
(lp912
g1
(g2
g3
(dp913
g130
Vge
p914
sg132
Nsg133
NstRp915
ag1
(g2
g3
(dp916
g130
Vjapan
p917
sg132
Nsg133
NstRp918
ag1
(g2
g3
(dp919
g130
Vlighting
p920
sg132
Nsg133
NstRp921
ag1
(g2
g3
(dp922
g130
Vmirai
p923
sg132
Nsg133
NstRp924
ag1
(g2
g3
(dp925
g130
Vagriculture
p926
sg132
Nsg133
NstRp927
asg141
g902
sg142
I00
sS'title_detail'
p928
g1
(g2
g3
(dp929
g52
Vhttp://feeds.gawker.com/gizmodo/full
p930
sg27
g60
sg13
Nsg55
g909
stRp931
sg67
g906
sg147
VAndrew Tarantola
p932
sg20
VThu, 10 Jul 2014 20:20:00 GMT
p933
sg150
(lp934
g1
(g2
g3
(dtRp935
asS'author_detail'
p936
g1
(g2
g3
(dp937
g155
g932
stRp938
sg157
Vhttp://feeds.gawker.com/gizmodo/1603082545
p939
stRp940
ag1
(g2
g3
(dp941
S'summary_detail'
p942
g1
(g2
g3
(dp943
g52
Vhttp://feeds.gawker.com/gizmodo/full
p944
sg27
g54
sg13
Nsg55
V<p class="has-media media-640"><img alt="Rotimatic Hands-On: Yep, The Roti-a-Minute Magic Machine Is Awesome" class="transform-original" height="318" src="http://i.kinja-img.com/gawker-media/image/upload/s--ERxoBF8Z--/805723156265163694.gif" width="636" /></p> <p class="first-text"> For about a billion people across the world, nothing is more fundamental to food than fresh, delicious roti. So it's unfortunate that a batch of five can take half an hour or more to make. But all that's about to be a thing of the past, thanks to the Rotimatic:<a href="http://gizmodo.com/forget-a-bread-maker-this-machine-churns-out-fresh-rot-1452183402"> The first fully-automated appliance that can churn out one roti every minute</a> \u2014and Gizmodo recently got to see it in action. </p><p><a href="http://gizmodo.com/hands-on-with-the-magic-machine-that-churns-out-roti-by-1602669092">Read more...</a></p><img border="0" height="1" src="http://gizmodo.feedsportal.com/c/34976/f/647164/s/3c606a62/sc/10/mf.gif" width="1" /><br clear="all" /><br /><br /><a href="http://da.feedsportal.com/r/199120259883/u/94/f/647164/c/34976/s/3c606a62/sc/10/rc/1/rc.htm" rel="nofollow"><img border="0" src="http://da.feedsportal.com/r/199120259883/u/94/f/647164/c/34976/s/3c606a62/sc/10/rc/1/rc.img" /></a><br /><a href="http://da.feedsportal.com/r/199120259883/u/94/f/647164/c/34976/s/3c606a62/sc/10/rc/2/rc.htm" rel="nofollow"><img border="0" src="http://da.feedsportal.com/r/199120259883/u/94/f/647164/c/34976/s/3c606a62/sc/10/rc/2/rc.img" /></a><br /><a href="http://da.feedsportal.com/r/199120259883/u/94/f/647164/c/34976/s/3c606a62/sc/10/rc/3/rc.htm" rel="nofollow"><img border="0" src="http://da.feedsportal.com/r/199120259883/u/94/f/647164/c/34976/s/3c606a62/sc/10/rc/3/rc.img" /></a><br /><br /><a href="http://da.feedsportal.com/r/199120259883/u/94/f/647164/c/34976/s/3c606a62/sc/10/a2.htm"><img border="0" src="http://da.feedsportal.com/r/199120259883/u/94/f/647164/c/34976/s/3c606a62/sc/10/a2.img" /></a><img border="0" height="1" src="http://pi.feedsportal.com/r/199120259883/u/94/f/647164/c/34976/s/3c606a62/sc/10/a2t.img" width="1" /><img height="1" src="http://feeds.feedburner.com/~r/gizmodo/full/~4/__iSsSiqUVQ" width="1" />
p945
stRp946
sg22
(lp947
g1
(g2
g3
(dp948
g25
Vhttp://feeds.gawker.com/~r/gizmodo/full/~3/__iSsSiqUVQ/hands-on-with-the-magic-machine-that-churns-out-roti-by-1602669092
p949
sg27
g28
sg29
g30
stRp950
asg15
g16
((I2014
I7
I10
I20
I0
I0
I3
I191
I0
t(dtRp951
sg18
VRotimatic Hands-On: Yep, The Roti-a-Minute Magic Machine Is Awesome
p952
sS'feedburner_origlink'
p953
Vhttp://gizmodo.com/hands-on-with-the-magic-machine-that-churns-out-roti-by-1602669092
p954
sg127
(lp955
g1
(g2
g3
(dp956
g130
Vrotimatic
p957
sg132
Nsg133
NstRp958
ag1
(g2
g3
(dp959
g130
Vroti
p960
sg132
Nsg133
NstRp961
ag1
(g2
g3
(dp962
g130
Vappliances
p963
sg132
Nsg133
NstRp964
asg141
g945
sg142
I00
sS'title_detail'
p965
g1
(g2
g3
(dp966
g52
Vhttp://feeds.gawker.com/gizmodo/full
p967
sg27
g60
sg13
Nsg55
g952
stRp968
sg67
g949
sg147
VAshley Feinberg
p969
sg20
VThu, 10 Jul 2014 20:00:00 GMT
p970
sg150
(lp971
g1
(g2
g3
(dtRp972
asS'author_detail'
p973
g1
(g2
g3
(dp974
g155
g969
stRp975
sg157
Vhttp://feeds.gawker.com/gizmodo/1602669092
p976
stRp977
ag1
(g2
g3
(dp978
S'summary_detail'
p979
g1
(g2
g3
(dp980
g52
Vhttp://feeds.gawker.com/gizmodo/full
p981
sg27
g54
sg13
Nsg55
V<p class="has-media media-640"><img alt="171 reasons why the Matrix Reloaded was crap" class="transform-original" height="236" src="http://i.kinja-img.com/gawker-media/image/upload/s--x6R7SJyC--/s2hoqg0ljaj4okfcmryl.gif" width="636" /></p> <p class="first-text">After the first <em>Matrix</em>\u2014<a href="http://gizmodo.com/everything-wrong-with-the-matrix-just-kidding-the-matr-1563553018">a movie not without fault </a> but at least entertaining and unique in its aesthetic\u2014the entire franchise went to hell. Matrix Reloaded was particularly offensive, even with Monica Bellucci.</p><p><a href="http://gizmodo.com/after-the-first-em-matrix-em-a-movie-not-without-fau-1603148142">Read more...</a></p><img border="0" height="1" src="http://gizmodo.feedsportal.com/c/34976/f/647164/s/3c61afe9/sc/19/mf.gif" width="1" /><br clear="all" /><img height="1" src="http://feeds.feedburner.com/~r/gizmodo/full/~4/oQrMu6BaTJk" width="1" />
p982
stRp983
sg22
(lp984
g1
(g2
g3
(dp985
g25
Vhttp://feeds.gawker.com/~r/gizmodo/full/~3/oQrMu6BaTJk/after-the-first-em-matrix-em-a-movie-not-without-fau-1603148142
p986
sg27
g28
sg29
g30
stRp987
asg15
g16
((I2014
I7
I10
I19
I53
I0
I3
I191
I0
t(dtRp988
sg18
V171 reasons why the Matrix Reloaded was crap
p989
sS'feedburner_origlink'
p990
Vhttp://gizmodo.com/after-the-first-em-matrix-em-a-movie-not-without-fau-1603148142
p991
sg127
(lp992
g1
(g2
g3
(dp993
g130
Vcrap
p994
sg132
Nsg133
NstRp995
ag1
(g2
g3
(dp996
g130
Vfun
p997
sg132
Nsg133
NstRp998
ag1
(g2
g3
(dp999
g130
Vmatrix reloaded
p1000
sg132
Nsg133
NstRp1001
asg141
g982
sg142
I00
sS'title_detail'
p1002
g1
(g2
g3
(dp1003
g52
Vhttp://feeds.gawker.com/gizmodo/full
p1004
sg27
g60
sg13
Nsg55
g989
stRp1005
sg67
g986
sg147
VJesus Diaz
p1006
sg20
VThu, 10 Jul 2014 19:53:00 GMT
p1007
sg150
(lp1008
g1
(g2
g3
(dtRp1009
asS'author_detail'
p1010
g1
(g2
g3
(dp1011
g155
g1006
stRp1012
sg157
Vhttp://feeds.gawker.com/gizmodo/1603148142
p1013
stRp1014
ag1
(g2
g3
(dp1015
S'summary_detail'
p1016
g1
(g2
g3
(dp1017
g52
Vhttp://feeds.gawker.com/gizmodo/full
p1018
sg27
g54
sg13
Nsg55
V<p class="has-media media-640"><img alt="After Two Years, Baby " class="transform-original" height="357" src="http://i.kinja-img.com/gawker-media/image/upload/s--_NqHf2vl--/805746195927332241.jpg" width="636" /></p> <p class="first-text">The "Mississippi Baby,"<a href="http://gizmodo.com/5988205/report-baby-cured-of-hiv"> born with HIV</a>  and treated with antiretroviral drugs immediately after birth, showed no evidence of HIV after two years without treatment. Now the child <a href="http://www.niaid.nih.gov/news/newsreleases/2014/Pages/MississippiBabyHIV.aspx" target="_blank">has detectable levels of the virus once again</a>. It's a sad conclusion to what seemed like an extremely promising new way to treat this vicious disease.</p><p><a href="http://gizmodo.com/after-two-years-baby-cured-of-hiv-is-showing-detecta-1603137602">Read more...</a></p><img border="0" height="1" src="http://gizmodo.feedsportal.com/c/34976/f/647164/s/3c602b2d/sc/38/mf.gif" width="1" /><br clear="all" /><br /><br /><a href="http://da.feedsportal.com/r/199120599111/u/94/f/647164/c/34976/s/3c602b2d/sc/38/rc/1/rc.htm" rel="nofollow"><img border="0" src="http://da.feedsportal.com/r/199120599111/u/94/f/647164/c/34976/s/3c602b2d/sc/38/rc/1/rc.img" /></a><br /><a href="http://da.feedsportal.com/r/199120599111/u/94/f/647164/c/34976/s/3c602b2d/sc/38/rc/2/rc.htm" rel="nofollow"><img border="0" src="http://da.feedsportal.com/r/199120599111/u/94/f/647164/c/34976/s/3c602b2d/sc/38/rc/2/rc.img" /></a><br /><a href="http://da.feedsportal.com/r/199120599111/u/94/f/647164/c/34976/s/3c602b2d/sc/38/rc/3/rc.htm" rel="nofollow"><img border="0" src="http://da.feedsportal.com/r/199120599111/u/94/f/647164/c/34976/s/3c602b2d/sc/38/rc/3/rc.img" /></a><br /><br /><a href="http://da.feedsportal.com/r/199120599111/u/94/f/647164/c/34976/s/3c602b2d/sc/38/a2.htm"><img border="0" src="http://da.feedsportal.com/r/199120599111/u/94/f/647164/c/34976/s/3c602b2d/sc/38/a2.img" /></a><img border="0" height="1" src="http://pi.feedsportal.com/r/199120599111/u/94/f/647164/c/34976/s/3c602b2d/sc/38/a2t.img" width="1" /><img height="1" src="http://feeds.feedburner.com/~r/gizmodo/full/~4/FtCcfHBwbmk" width="1" />
p1019
stRp1020
sg22
(lp1021
g1
(g2
g3
(dp1022
g25
Vhttp://feeds.gawker.com/~r/gizmodo/full/~3/FtCcfHBwbmk/after-two-years-baby-cured-of-hiv-is-showing-detecta-1603137602
p1023
sg27
g28
sg29
g30
stRp1024
asg15
g16
((I2014
I7
I10
I19
I36
I0
I3
I191
I0
t(dtRp1025
sg18
VAfter Two Years, Baby "Cured" of HIV Is Showing Detectable Virus Levels
p1026
sS'feedburner_origlink'
p1027
Vhttp://gizmodo.com/after-two-years-baby-cured-of-hiv-is-showing-detecta-1603137602
p1028
sg127
(lp1029
g1
(g2
g3
(dp1030
g130
Vhiv
p1031
sg132
Nsg133
NstRp1032
ag1
(g2
g3
(dp1033
g130
Vaids
p1034
sg132
Nsg133
NstRp1035
ag1
(g2
g3
(dp1036
g130
Vmississippi baby
p1037
sg132
Nsg133
NstRp1038
asg141
g1019
sg142
I00
sS'title_detail'
p1039
g1
(g2
g3
(dp1040
g52
Vhttp://feeds.gawker.com/gizmodo/full
p1041
sg27
g60
sg13
Nsg55
g1026
stRp1042
sg67
g1023
sg147
VRobert Sorokanich
p1043
sg20
VThu, 10 Jul 2014 19:36:00 GMT
p1044
sg150
(lp1045
g1
(g2
g3
(dtRp1046
asS'author_detail'
p1047
g1
(g2
g3
(dp1048
g155
g1043
stRp1049
sg157
Vhttp://feeds.gawker.com/gizmodo/1603137602
p1050
stRp1051
ag1
(g2
g3
(dp1052
S'summary_detail'
p1053
g1
(g2
g3
(dp1054
g52
Vhttp://feeds.gawker.com/gizmodo/full
p1055
sg27
g54
sg13
Nsg55
V<p class="has-media media-640"><img alt="15 Dead Simple IFTTT Recipes That Will Make Your Life Way Easier" class="transform-ku-xlarge" height="288" src="http://i.kinja-img.com/gawker-media/image/upload/s--RBwNo92D--/c_fit,fl_progressive,q_80,w_636/plr2edlm0gj62kcaddqm.jpg" width="636" /></p> <p class="first-text"><a href="http://ifttt.com/" target="_blank">IFTTT</a>\u2014If This Then That\u2014is an automator that links different internet connected services (think: Gmail) and devices (think: your smartphone). After turning on each service, or channel, you can use it as a trigger for another service, or vice versa. It may sound complicated, but it's actually a nice, intuitive way to simplify your life. Here's where to get started.</p><p><a href="http://gizmodo.com/15-dead-simple-ifttt-recipes-that-will-make-your-life-w-1602936347">Read more...</a></p><img border="0" height="1" src="http://gizmodo.feedsportal.com/c/34976/f/647164/s/3c607fb8/sc/46/mf.gif" width="1" /><br clear="all" /><br /><br /><a href="http://da.feedsportal.com/r/199107905074/u/94/f/647164/c/34976/s/3c607fb8/sc/46/rc/1/rc.htm" rel="nofollow"><img border="0" src="http://da.feedsportal.com/r/199107905074/u/94/f/647164/c/34976/s/3c607fb8/sc/46/rc/1/rc.img" /></a><br /><a href="http://da.feedsportal.com/r/199107905074/u/94/f/647164/c/34976/s/3c607fb8/sc/46/rc/2/rc.htm" rel="nofollow"><img border="0" src="http://da.feedsportal.com/r/199107905074/u/94/f/647164/c/34976/s/3c607fb8/sc/46/rc/2/rc.img" /></a><br /><a href="http://da.feedsportal.com/r/199107905074/u/94/f/647164/c/34976/s/3c607fb8/sc/46/rc/3/rc.htm" rel="nofollow"><img border="0" src="http://da.feedsportal.com/r/199107905074/u/94/f/647164/c/34976/s/3c607fb8/sc/46/rc/3/rc.img" /></a><br /><br /><a href="http://da.feedsportal.com/r/199107905074/u/94/f/647164/c/34976/s/3c607fb8/sc/46/a2.htm"><img border="0" src="http://da.feedsportal.com/r/199107905074/u/94/f/647164/c/34976/s/3c607fb8/sc/46/a2.img" /></a><img border="0" height="1" src="http://pi.feedsportal.com/r/199107905074/u/94/f/647164/c/34976/s/3c607fb8/sc/46/a2t.img" width="1" /><img height="1" src="http://feeds.feedburner.com/~r/gizmodo/full/~4/xhZN8U5IUE4" width="1" />
p1056
stRp1057
sg22
(lp1058
g1
(g2
g3
(dp1059
g25
Vhttp://feeds.gawker.com/~r/gizmodo/full/~3/xhZN8U5IUE4/15-dead-simple-ifttt-recipes-that-will-make-your-life-w-1602936347
p1060
sg27
g28
sg29
g30
stRp1061
asg15
g16
((I2014
I7
I10
I19
I20
I0
I3
I191
I0
t(dtRp1062
sg18
V15 Dead Simple IFTTT Recipes That Will Make Your Life Way Easier
p1063
sS'feedburner_origlink'
p1064
Vhttp://gizmodo.com/15-dead-simple-ifttt-recipes-that-will-make-your-life-w-1602936347
p1065
sg127
(lp1066
g1
(g2
g3
(dp1067
g130
Vifttt
p1068
sg132
Nsg133
NstRp1069
ag1
(g2
g3
(dp1070
g130
Vhow to
p1071
sg132
Nsg133
NstRp1072
ag1
(g2
g3
(dp1073
g130
Vweather
p1074
sg132
Nsg133
NstRp1075
ag1
(g2
g3
(dp1076
g130
Vtips
p1077
sg132
Nsg133
NstRp1078
asg141
g1056
sg142
I00
sS'title_detail'
p1079
g1
(g2
g3
(dp1080
g52
Vhttp://feeds.gawker.com/gizmodo/full
p1081
sg27
g60
sg13
Nsg55
g1063
stRp1082
sg67
g1060
sg147
VMario Aguilar
p1083
sg20
VThu, 10 Jul 2014 19:20:00 GMT
p1084
sg150
(lp1085
g1
(g2
g3
(dtRp1086
asS'author_detail'
p1087
g1
(g2
g3
(dp1088
g155
g1083
stRp1089
sg157
Vhttp://feeds.gawker.com/gizmodo/1602936347
p1090
stRp1091
ag1
(g2
g3
(dp1092
S'summary_detail'
p1093
g1
(g2
g3
(dp1094
g52
Vhttp://feeds.gawker.com/gizmodo/full
p1095
sg27
g54
sg13
Nsg55
V<p class="has-media media-640"><img alt="Each of These Images Is Smaller Than the Width of a Human Hair" class="transform-ku-xlarge" height="371" src="http://i.kinja-img.com/gawker-media/image/upload/s--tK5KVOCk--/c_fit,fl_progressive,q_80,w_636/wkdyqqhhim4a51mq0uli.jpg" width="636" /></p> <p class="first-text">Oxford scientists<a href="http://www.ox.ac.uk/news/2014-07-10-nano-pixels-promise-thin-flexible-high-res-displays" target="_blank"> just revealed a new kind of display technology</a> that can render images smaller than the width of a human hair. The detailed images you see above were rendered on these flexible, nano-pixel displays. Would you believe that each one is smaller than the width of a human hair? And that's only the beginning.</p><p><a href="http://gizmodo.com/each-of-these-images-is-smaller-than-the-width-of-a-hum-1603028407">Read more...</a></p><img border="0" height="1" src="http://gizmodo.feedsportal.com/c/34976/f/647164/s/3c5fe011/sc/4/mf.gif" width="1" /><br clear="all" /><br /><br /><a href="http://da.feedsportal.com/r/199107904769/u/94/f/647164/c/34976/s/3c5fe011/sc/4/rc/1/rc.htm" rel="nofollow"><img border="0" src="http://da.feedsportal.com/r/199107904769/u/94/f/647164/c/34976/s/3c5fe011/sc/4/rc/1/rc.img" /></a><br /><a href="http://da.feedsportal.com/r/199107904769/u/94/f/647164/c/34976/s/3c5fe011/sc/4/rc/2/rc.htm" rel="nofollow"><img border="0" src="http://da.feedsportal.com/r/199107904769/u/94/f/647164/c/34976/s/3c5fe011/sc/4/rc/2/rc.img" /></a><br /><a href="http://da.feedsportal.com/r/199107904769/u/94/f/647164/c/34976/s/3c5fe011/sc/4/rc/3/rc.htm" rel="nofollow"><img border="0" src="http://da.feedsportal.com/r/199107904769/u/94/f/647164/c/34976/s/3c5fe011/sc/4/rc/3/rc.img" /></a><br /><br /><a href="http://da.feedsportal.com/r/199107904769/u/94/f/647164/c/34976/s/3c5fe011/sc/4/a2.htm"><img border="0" src="http://da.feedsportal.com/r/199107904769/u/94/f/647164/c/34976/s/3c5fe011/sc/4/a2.img" /></a><img border="0" height="1" src="http://pi.feedsportal.com/r/199107904769/u/94/f/647164/c/34976/s/3c5fe011/sc/4/a2t.img" width="1" /><img height="1" src="http://feeds.feedburner.com/~r/gizmodo/full/~4/wGnAtL_MOic" width="1" />
p1096
stRp1097
sg22
(lp1098
g1
(g2
g3
(dp1099
g25
Vhttp://feeds.gawker.com/~r/gizmodo/full/~3/wGnAtL_MOic/each-of-these-images-is-smaller-than-the-width-of-a-hum-1603028407
p1100
sg27
g28
sg29
g30
stRp1101
asg15
g16
((I2014
I7
I10
I19
I0
I0
I3
I191
I0
t(dtRp1102
sg18
VEach of These Images Is Smaller Than the Width of a Human Hair
p1103
sS'feedburner_origlink'
p1104
Vhttp://gizmodo.com/each-of-these-images-is-smaller-than-the-width-of-a-hum-1603028407
p1105
sg127
(lp1106
g1
(g2
g3
(dp1107
g130
Vresearch
p1108
sg132
Nsg133
NstRp1109
ag1
(g2
g3
(dp1110
g130
Voxford
p1111
sg132
Nsg133
NstRp1112
ag1
(g2
g3
(dp1113
g130
Vdisplays
p1114
sg132
Nsg133
NstRp1115
ag1
(g2
g3
(dp1116
g130
Vscience
p1117
sg132
Nsg133
NstRp1118
asg141
g1096
sg142
I00
sS'title_detail'
p1119
g1
(g2
g3
(dp1120
g52
Vhttp://feeds.gawker.com/gizmodo/full
p1121
sg27
g60
sg13
Nsg55
g1103
stRp1122
sg67
g1100
sg147
VAdam Clark Estes
p1123
sg20
VThu, 10 Jul 2014 19:00:00 GMT
p1124
sg150
(lp1125
g1
(g2
g3
(dtRp1126
asS'author_detail'
p1127
g1
(g2
g3
(dp1128
g155
g1123
stRp1129
sg157
Vhttp://feeds.gawker.com/gizmodo/1603028407
p1130
stRp1131
asS'namespaces'
p1132
(dp1133
S''
Vhttp://www.w3.org/2005/Atom
p1134
sS'taxo'
p1135
Vhttp://purl.org/rss/1.0/modules/taxonomy/
p1136
sS'dc'
p1137
Vhttp://purl.org/dc/elements/1.1/
p1138
sS'itunes'
p1139
Vhttp://www.itunes.com/dtds/podcast-1.0.dtd
p1140
sS'rdf'
p1141
Vhttp://www.w3.org/1999/02/22-rdf-syntax-ns#
p1142
sS'feedburner'
p1143
Vhttp://rssnamespace.org/feedburner/ext/1.0
p1144
sstRp1145
.