ccopy_reg
_reconstructor
p1
(cfeedparser
FeedParserDict
p2
c__builtin__
dict
p3
(dp4
S'feed'
p5
g1
(g2
g3
(dp6
S'title_detail'
p7
g1
(g2
g3
(dp8
S'base'
p9
Vhttp://www.reddit.com/r/hearthstone.rss
p10
sS'type'
p11
Vtext/plain
p12
sS'language'
p13
NsS'value'
p14
VHearthstone: Heroes of Warcraft
p15
stRp16
sS'subtitle'
p17
VA subreddit dedicated to Blizzard's newest title - HearthStone: Heroes of Warcraft.
p18
sS'links'
p19
(lp20
g1
(g2
g3
(dp21
S'href'
p22
Vhttp://www.reddit.com/r/hearthstone/
p23
sg11
Vtext/html
p24
sS'rel'
p25
Valternate
p26
stRp27
ag1
(g2
g3
(dp28
S'href'
p29
Vhttp://www.reddit.com/r/hearthstone.rss
p30
sS'type'
p31
Vapplication/rss+xml
p32
sS'rel'
p33
Vself
p34
stRp35
asS'title'
p36
g15
sS'link'
p37
g23
sS'image'
p38
g1
(g2
g3
(dp39
S'title_detail'
p40
g1
(g2
g3
(dp41
g9
Vhttp://www.reddit.com/r/hearthstone.rss
p42
sg11
g12
sg13
Nsg14
VHearthstone: Heroes of Warcraft
p43
stRp44
sg22
Vhttp://e.thumbs.redditmedia.com/5PaTxrxtp-_8j_Bp.png
p45
sg37
Vhttp://www.reddit.com/r/hearthstone/
p46
sg19
(lp47
g1
(g2
g3
(dp48
g22
g46
sg11
g24
sg25
g26
stRp49
asg36
g43
stRp50
sS'subtitle_detail'
p51
g1
(g2
g3
(dp52
g9
Vhttp://www.reddit.com/r/hearthstone.rss
p53
sg11
Vtext/html
p54
sg13
Nsg14
g18
stRp55
stRp56
sS'status'
p57
I200
sS'encoding'
p58
VUTF-8
p59
sS'bozo'
p60
I0
sS'headers'
p61
(dp62
S'content-length'
p63
S'7434'
p64
sS'x-xss-protection'
p65
S'1; mode=block'
p66
sS'x-content-type-options'
p67
S'nosniff'
p68
sS'content-encoding'
p69
S'gzip'
p70
sS'vary'
p71
S'accept-encoding'
p72
sS'server'
p73
S"'; DROP TABLE servertypes; --"
p74
sS'connection'
p75
S'close'
p76
sS'date'
p77
S'Fri, 11 Jul 2014 00:21:36 GMT'
p78
sS'x-frame-options'
p79
S'SAMEORIGIN'
p80
sS'content-type'
p81
S'text/xml; charset=UTF-8'
p82
ssS'version'
p83
Vrss20
p84
sg22
Vhttp://www.reddit.com/r/hearthstone.rss
p85
sS'namespaces'
p86
(dp87
S''
Vhttp://www.w3.org/2005/Atom
p88
sS'media'
p89
Vhttp://search.yahoo.com/mrss/
p90
sS'dc'
p91
Vhttp://purl.org/dc/elements/1.1/
p92
ssS'entries'
p93
(lp94
g1
(g2
g3
(dp95
S'summary_detail'
p96
g1
(g2
g3
(dp97
g9
Vhttp://www.reddit.com/r/hearthstone.rss
p98
sg11
g54
sg13
Nsg14
V<!-- SC_OFF --><div class="md"><p>Hello members of the <a href="http://www.reddit.com/r/hearthstone">/r/hearthstone</a> community, </p> <p>This is a weekly thread designed for more advanced discussion regarding the intricacies of Hearthstone. Questions and answers should be focused on high level theory crafting, such as card synergy, efficient mana drafts, and the viability of cards in certain situations. </p> <p>Please keep it clean and try to add more than just a one or two word response. As the goal of this post is to increase the community's knowledge, the thought process matters as much as the answer! There is also a Newbie Tuesday weekly post, for those who wish to discuss the basics. </p> <p>Note: I am a bot. Questions or feedback regarding this thread? <a href="http://www.reddit.com/message/compose?to=%2Fr%2Fhearthstone">Message the moderators.</a> </p> </div><!-- SC_ON --> submitted by <a href="http://www.reddit.com/user/AutoModerator"> AutoModerator </a> <br /> <a href="http://www.reddit.com/r/hearthstone/comments/2aacmo/theorycrafting_thursdays_weekly_discussion/">[link]</a> <a href="http://www.reddit.com/r/hearthstone/comments/2aacmo/theorycrafting_thursdays_weekly_discussion/">[126 comments]</a>
p99
stRp100
sg19
(lp101
g1
(g2
g3
(dp102
g22
Vhttp://www.reddit.com/r/hearthstone/comments/2aacmo/theorycrafting_thursdays_weekly_discussion/
p103
sg11
g24
sg25
g26
stRp104
asS'published_parsed'
p105
ctime
struct_time
p106
((I2014
I7
I10
I0
I2
I9
I3
I191
I0
t(dtRp107
sg36
VTheorycrafting Thursdays Weekly Discussion
p108
sS'summary'
p109
g99
sS'guidislink'
p110
I00
sS'title_detail'
p111
g1
(g2
g3
(dp112
g9
Vhttp://www.reddit.com/r/hearthstone.rss
p113
sg11
g12
sg13
Nsg14
g108
stRp114
sg37
g103
sS'published'
p115
VThu, 10 Jul 2014 00:02:09 +0000
p116
sS'id'
p117
Vhttp://www.reddit.com/r/hearthstone/comments/2aacmo/theorycrafting_thursdays_weekly_discussion/
p118
stRp119
ag1
(g2
g3
(dp120
S'summary_detail'
p121
g1
(g2
g3
(dp122
g9
Vhttp://www.reddit.com/r/hearthstone.rss
p123
sg11
g54
sg13
Nsg14
V<table> <tr><td> <a href="http://www.reddit.com/r/hearthstone/comments/2ackdh/amaz_this_is_why_12_in_hearthstone/"><img alt="Amaz: This is why 1=2 in Hearthstone" src="http://b.thumbs.redditmedia.com/w1yu-3h0wWYCSpWU.jpg" title="Amaz: This is why 1=2 in Hearthstone" /></a> </td><td> submitted by <a href="http://www.reddit.com/user/acurioustale"> acurioustale </a> <br /> <a href="https://www.youtube.com/watch?v=XCr76XA-sRc">[link]</a> <a href="http://www.reddit.com/r/hearthstone/comments/2ackdh/amaz_this_is_why_12_in_hearthstone/">[147 comments]</a> </td></tr></table>
p124
stRp125
sg19
(lp126
g1
(g2
g3
(dp127
g22
Vhttp://www.reddit.com/r/hearthstone/comments/2ackdh/amaz_this_is_why_12_in_hearthstone/
p128
sg11
g24
sg25
g26
stRp129
asg105
g106
((I2014
I7
I10
I17
I31
I42
I3
I191
I0
t(dtRp130
sg36
VAmaz: This is why 1=2 in Hearthstone
p131
sS'media_thumbnail'
p132
(lp133
(dp134
S'url'
p135
Vhttp://b.thumbs.redditmedia.com/w1yu-3h0wWYCSpWU.jpg
p136
sasg109
g124
sg110
I00
sS'title_detail'
p137
g1
(g2
g3
(dp138
g9
Vhttp://www.reddit.com/r/hearthstone.rss
p139
sg11
g12
sg13
Nsg14
g131
stRp140
sg22
V
sg37
g128
sg115
VThu, 10 Jul 2014 17:31:42 +0000
p141
sg117
Vhttp://www.reddit.com/r/hearthstone/comments/2ackdh/amaz_this_is_why_12_in_hearthstone/
p142
stRp143
ag1
(g2
g3
(dp144
S'summary_detail'
p145
g1
(g2
g3
(dp146
g9
Vhttp://www.reddit.com/r/hearthstone.rss
p147
sg11
g54
sg13
Nsg14
V<!-- SC_OFF --><div class="md"><p><a href="http://i.imgur.com/5NzJ443.jpg">http://i.imgur.com/5NzJ443.jpg</a></p> </div><!-- SC_ON --> submitted by <a href="http://www.reddit.com/user/jusezz"> jusezz </a> <br /> <a href="http://www.reddit.com/r/hearthstone/comments/2adclf/interesting_lich_king_card_back_concept/">[link]</a> <a href="http://www.reddit.com/r/hearthstone/comments/2adclf/interesting_lich_king_card_back_concept/">[44 comments]</a>
p148
stRp149
sg19
(lp150
g1
(g2
g3
(dp151
g22
Vhttp://www.reddit.com/r/hearthstone/comments/2adclf/interesting_lich_king_card_back_concept/
p152
sg11
g24
sg25
g26
stRp153
asg105
g106
((I2014
I7
I10
I21
I53
I3
I3
I191
I0
t(dtRp154
sg36
VInteresting "Lich King" card back concept.
p155
sg109
g148
sg110
I00
sS'title_detail'
p156
g1
(g2
g3
(dp157
g9
Vhttp://www.reddit.com/r/hearthstone.rss
p158
sg11
g12
sg13
Nsg14
g155
stRp159
sg37
g152
sg115
VThu, 10 Jul 2014 21:53:03 +0000
p160
sg117
Vhttp://www.reddit.com/r/hearthstone/comments/2adclf/interesting_lich_king_card_back_concept/
p161
stRp162
ag1
(g2
g3
(dp163
S'summary_detail'
p164
g1
(g2
g3
(dp165
g9
Vhttp://www.reddit.com/r/hearthstone.rss
p166
sg11
g54
sg13
Nsg14
V<!-- SC_OFF --><div class="md"><p>So my Gurubashi Berserker was a 10-2 and I had 2 stormwind beside him. The warrior used a faceless manipulator that made an 8-0 that instantly died. Needless to say he conceded. </p> </div><!-- SC_ON --> submitted by <a href="http://www.reddit.com/user/mayonnaise350"> mayonnaise350 </a> <br /> <a href="http://www.reddit.com/r/hearthstone/comments/2ad3i8/having_2_stormwind_champions_caused_this_messed/">[link]</a> <a href="http://www.reddit.com/r/hearthstone/comments/2ad3i8/having_2_stormwind_champions_caused_this_messed/">[97 comments]</a>
p167
stRp168
sg19
(lp169
g1
(g2
g3
(dp170
g22
Vhttp://www.reddit.com/r/hearthstone/comments/2ad3i8/having_2_stormwind_champions_caused_this_messed/
p171
sg11
g24
sg25
g26
stRp172
asg105
g106
((I2014
I7
I10
I20
I26
I58
I3
I191
I0
t(dtRp173
sg36
VHaving 2 Stormwind Champions caused this messed up situation.
p174
sg109
g167
sg110
I00
sS'title_detail'
p175
g1
(g2
g3
(dp176
g9
Vhttp://www.reddit.com/r/hearthstone.rss
p177
sg11
g12
sg13
Nsg14
g174
stRp178
sg37
g171
sg115
VThu, 10 Jul 2014 20:26:58 +0000
p179
sg117
Vhttp://www.reddit.com/r/hearthstone/comments/2ad3i8/having_2_stormwind_champions_caused_this_messed/
p180
stRp181
ag1
(g2
g3
(dp182
S'summary_detail'
p183
g1
(g2
g3
(dp184
g9
Vhttp://www.reddit.com/r/hearthstone.rss
p185
sg11
g54
sg13
Nsg14
V<table> <tr><td> <a href="http://www.reddit.com/r/hearthstone/comments/2acr58/ben_brode_confirms_naxx_not_today_but_still_on/"><img alt="Ben Brode confirms Naxx not today but still on track for July." src="http://a.thumbs.redditmedia.com/60_NQ5TDZw4DEj9F.jpg" title="Ben Brode confirms Naxx not today but still on track for July." /></a> </td><td> submitted by <a href="http://www.reddit.com/user/Langlock"> Langlock </a> <br /> <a href="https://twitter.com/bdbrode/status/487300577831821312">[link]</a> <a href="http://www.reddit.com/r/hearthstone/comments/2acr58/ben_brode_confirms_naxx_not_today_but_still_on/">[107 comments]</a> </td></tr></table>
p186
stRp187
sg19
(lp188
g1
(g2
g3
(dp189
g22
Vhttp://www.reddit.com/r/hearthstone/comments/2acr58/ben_brode_confirms_naxx_not_today_but_still_on/
p190
sg11
g24
sg25
g26
stRp191
asg105
g106
((I2014
I7
I10
I18
I34
I15
I3
I191
I0
t(dtRp192
sg36
VBen Brode confirms Naxx not today but still on track for July.
p193
sg132
(lp194
(dp195
S'url'
p196
Vhttp://a.thumbs.redditmedia.com/60_NQ5TDZw4DEj9F.jpg
p197
sasg109
g186
sg110
I00
sS'title_detail'
p198
g1
(g2
g3
(dp199
g9
Vhttp://www.reddit.com/r/hearthstone.rss
p200
sg11
g12
sg13
Nsg14
g193
stRp201
sg22
V
sg37
g190
sg115
VThu, 10 Jul 2014 18:34:15 +0000
p202
sg117
Vhttp://www.reddit.com/r/hearthstone/comments/2acr58/ben_brode_confirms_naxx_not_today_but_still_on/
p203
stRp204
ag1
(g2
g3
(dp205
S'summary_detail'
p206
g1
(g2
g3
(dp207
g9
Vhttp://www.reddit.com/r/hearthstone.rss
p208
sg11
g54
sg13
Nsg14
V<table> <tr><td> <a href="http://www.reddit.com/r/hearthstone/comments/2aczmy/just_a_confirmation_from_ben_brode_that_priests/"><img alt="Just a confirmation from Ben Brode that Priests can steal boss cards" src="http://a.thumbs.redditmedia.com/4AgUTm8BYIvMOS1D.jpg" title="Just a confirmation from Ben Brode that Priests can steal boss cards" /></a> </td><td> submitted by <a href="http://www.reddit.com/user/Kijon"> Kijon </a> <br /> <a href="https://twitter.com/bdbrode/status/487299942264758273">[link]</a> <a href="http://www.reddit.com/r/hearthstone/comments/2aczmy/just_a_confirmation_from_ben_brode_that_priests/">[37 comments]</a> </td></tr></table>
p209
stRp210
sg19
(lp211
g1
(g2
g3
(dp212
g22
Vhttp://www.reddit.com/r/hearthstone/comments/2aczmy/just_a_confirmation_from_ben_brode_that_priests/
p213
sg11
g24
sg25
g26
stRp214
asg105
g106
((I2014
I7
I10
I19
I51
I25
I3
I191
I0
t(dtRp215
sg36
VJust a confirmation from Ben Brode that Priests can steal boss cards
p216
sg132
(lp217
(dp218
S'url'
p219
Vhttp://a.thumbs.redditmedia.com/4AgUTm8BYIvMOS1D.jpg
p220
sasg109
g209
sg110
I00
sS'title_detail'
p221
g1
(g2
g3
(dp222
g9
Vhttp://www.reddit.com/r/hearthstone.rss
p223
sg11
g12
sg13
Nsg14
g216
stRp224
sg22
V
sg37
g213
sg115
VThu, 10 Jul 2014 19:51:25 +0000
p225
sg117
Vhttp://www.reddit.com/r/hearthstone/comments/2aczmy/just_a_confirmation_from_ben_brode_that_priests/
p226
stRp227
ag1
(g2
g3
(dp228
S'summary_detail'
p229
g1
(g2
g3
(dp230
g9
Vhttp://www.reddit.com/r/hearthstone.rss
p231
sg11
g54
sg13
Nsg14
V<!-- SC_OFF --><div class="md"><p>Play cho on turn two and then shadow form on turn 3, if the ai is dumb, they will use it and lose their OP hero powers. I hope this doesn't happen but if it does it would be really funny.</p> </div><!-- SC_ON --> submitted by <a href="http://www.reddit.com/user/ultimatemanan97"> ultimatemanan97 </a> <br /> <a href="http://www.reddit.com/r/hearthstone/comments/2ad5vf/how_to_nullify_hero_powers_of_naxxramas_bosses/">[link]</a> <a href="http://www.reddit.com/r/hearthstone/comments/2ad5vf/how_to_nullify_hero_powers_of_naxxramas_bosses/">[50 comments]</a>
p232
stRp233
sg19
(lp234
g1
(g2
g3
(dp235
g22
Vhttp://www.reddit.com/r/hearthstone/comments/2ad5vf/how_to_nullify_hero_powers_of_naxxramas_bosses/
p236
sg11
g24
sg25
g26
stRp237
asg105
g106
((I2014
I7
I10
I20
I48
I18
I3
I191
I0
t(dtRp238
sg36
VHow to nullify hero powers of naxxramas bosses.
p239
sg109
g232
sg110
I00
sS'title_detail'
p240
g1
(g2
g3
(dp241
g9
Vhttp://www.reddit.com/r/hearthstone.rss
p242
sg11
g12
sg13
Nsg14
g239
stRp243
sg37
g236
sg115
VThu, 10 Jul 2014 20:48:18 +0000
p244
sg117
Vhttp://www.reddit.com/r/hearthstone/comments/2ad5vf/how_to_nullify_hero_powers_of_naxxramas_bosses/
p245
stRp246
ag1
(g2
g3
(dp247
S'summary_detail'
p248
g1
(g2
g3
(dp249
g9
Vhttp://www.reddit.com/r/hearthstone.rss
p250
sg11
g54
sg13
Nsg14
V<table> <tr><td> <a href="http://www.reddit.com/r/hearthstone/comments/2ab9ea/my_dream_has_been_realized_turn_1_the_beast/"><img alt="My dream has been realized. Turn 1 &gt; THE BEAST" src="http://a.thumbs.redditmedia.com/iB9l2RcQQlsHkR6P.jpg" title="My dream has been realized. Turn 1 &gt; THE BEAST" /></a> </td><td> submitted by <a href="http://www.reddit.com/user/CptnFabulous"> CptnFabulous </a> <br /> <a href="https://www.youtube.com/watch?v=dTDEMymgWjk">[link]</a> <a href="http://www.reddit.com/r/hearthstone/comments/2ab9ea/my_dream_has_been_realized_turn_1_the_beast/">[213 comments]</a> </td></tr></table>
p251
stRp252
sg19
(lp253
g1
(g2
g3
(dp254
g22
Vhttp://www.reddit.com/r/hearthstone/comments/2ab9ea/my_dream_has_been_realized_turn_1_the_beast/
p255
sg11
g24
sg25
g26
stRp256
asg105
g106
((I2014
I7
I10
I6
I26
I2
I3
I191
I0
t(dtRp257
sg36
VMy dream has been realized. Turn 1 > THE BEAST
p258
sg132
(lp259
(dp260
S'url'
p261
Vhttp://a.thumbs.redditmedia.com/iB9l2RcQQlsHkR6P.jpg
p262
sasg109
g251
sg110
I00
sS'title_detail'
p263
g1
(g2
g3
(dp264
g9
Vhttp://www.reddit.com/r/hearthstone.rss
p265
sg11
g12
sg13
Nsg14
g258
stRp266
sg22
V
sg37
g255
sg115
VThu, 10 Jul 2014 06:26:02 +0000
p267
sg117
Vhttp://www.reddit.com/r/hearthstone/comments/2ab9ea/my_dream_has_been_realized_turn_1_the_beast/
p268
stRp269
ag1
(g2
g3
(dp270
S'summary_detail'
p271
g1
(g2
g3
(dp272
g9
Vhttp://www.reddit.com/r/hearthstone.rss
p273
sg11
g54
sg13
Nsg14
V<!-- SC_OFF --><div class="md"><p>I transferred all currently logged arena runs from reddit.com<a href="http://www.reddit.com/r/12winArenaLog">/r/12winArenaLog</a> to excel and analyzed them. I put my focus on non-legendary neutral cards and counted the number of appearance for each card. This is the resulting tier list</p> <p>Commons: </p> <ol> <li>Chillwind Yeti (110)</li> <li>Harvest Golem (103)</li> <li>Boulderfist Ogre (97)</li> <li>Shattered Sun Cleric (88)</li> <li>Scarlet Crusader (83)</li> <li>Dark Iron Dwarf (83)</li> <li>Earthen Ring Farseer (81)</li> <li>Fearie Dragon (79)</li> <li>Acidic Swamp Ooze (77)</li> <li>Amani Berserker (75)</li> <li>Gnomish Inventor (75)</li> </ol> <p>Rares: </p> <ol> <li>Azure Drake (77)</li> <li>Argent Commander (73)</li> <li>Knife Juggler (73)</li> <li>Defender of Argus (61)</li> <li>Sunwalker (61)</li> <li>Stampeding Kodo (52)</li> <li>Imp Master (36)</li> <li>Violet Teacher (32)</li> <li>Injured Blade Master (31)</li> <li>Mind Control Tech (30)</li> </ol> <p>Epics </p> <ol> <li>Sea Giant (34)</li> <li>Big Game Hunter (25)</li> <li>Blood Knight (25)</li> <li>Facless Manipulator (22)</li> <li>Molten Giant (10)</li> </ol> <p>It is worth noting that Trump predicted this extremely well with his tier list, that can be found here <a href="http://www.liquidhearth.com/forum/arena-strategy/457523-trumps-arena-tier-list-neutral-commons">http://www.liquidhearth.com/forum/arena-strategy/457523-trumps-arena-tier-list-neutral-commons</a>. </p> <p>However there are some noteworthy deviations, such as the Fearie Dragon (underestimated) or the Amani Berserker (understimated) as well as Venture Co. (overestimated). </p> <p>You can find my tier list shared here <a href="https://docs.google.com/spreadsheets/d/1yg9ORWtYFYvtn98P3GeRQC9bG-2ZyKfaWBtPbmK5lFs/pubhtml">https://docs.google.com/spreadsheets/d/1yg9ORWtYFYvtn98P3GeRQC9bG-2ZyKfaWBtPbmK5lFs/pubhtml</a></p> </div><!-- SC_ON --> submitted by <a href="http://www.reddit.com/user/Radinic"> Radinic </a> <br /> <a href="http://www.reddit.com/r/hearthstone/comments/2adkim/i_analyzed_over_200_12winarenas_this_is_my_tier/">[link]</a> <a href="http://www.reddit.com/r/hearthstone/comments/2adkim/i_analyzed_over_200_12winarenas_this_is_my_tier/">[16 comments]</a>
p274
stRp275
sg19
(lp276
g1
(g2
g3
(dp277
g22
Vhttp://www.reddit.com/r/hearthstone/comments/2adkim/i_analyzed_over_200_12winarenas_this_is_my_tier/
p278
sg11
g24
sg25
g26
stRp279
asg105
g106
((I2014
I7
I10
I23
I12
I24
I3
I191
I0
t(dtRp280
sg36
VI analyzed over 200 12-win-arenas. This is my tier list.
p281
sg109
g274
sg110
I00
sS'title_detail'
p282
g1
(g2
g3
(dp283
g9
Vhttp://www.reddit.com/r/hearthstone.rss
p284
sg11
g12
sg13
Nsg14
g281
stRp285
sg37
g278
sg115
VThu, 10 Jul 2014 23:12:24 +0000
p286
sg117
Vhttp://www.reddit.com/r/hearthstone/comments/2adkim/i_analyzed_over_200_12winarenas_this_is_my_tier/
p287
stRp288
ag1
(g2
g3
(dp289
S'summary_detail'
p290
g1
(g2
g3
(dp291
g9
Vhttp://www.reddit.com/r/hearthstone.rss
p292
sg11
g54
sg13
Nsg14
V<!-- SC_OFF --><div class="md"><p><a href="http://imgur.com/vAfz237">http://imgur.com/vAfz237</a></p> </div><!-- SC_ON --> submitted by <a href="http://www.reddit.com/user/jawshuat"> jawshuat </a> <br /> <a href="http://www.reddit.com/r/hearthstone/comments/2ad6mg/where_is_a_polymerization_when_you_need_it/">[link]</a> <a href="http://www.reddit.com/r/hearthstone/comments/2ad6mg/where_is_a_polymerization_when_you_need_it/">[18 comments]</a>
p293
stRp294
sg19
(lp295
g1
(g2
g3
(dp296
g22
Vhttp://www.reddit.com/r/hearthstone/comments/2ad6mg/where_is_a_polymerization_when_you_need_it/
p297
sg11
g24
sg25
g26
stRp298
asg105
g106
((I2014
I7
I10
I20
I55
I14
I3
I191
I0
t(dtRp299
sg36
VWhere is a Polymerization when you need it?
p300
sg109
g293
sg110
I00
sS'title_detail'
p301
g1
(g2
g3
(dp302
g9
Vhttp://www.reddit.com/r/hearthstone.rss
p303
sg11
g12
sg13
Nsg14
g300
stRp304
sg37
g297
sg115
VThu, 10 Jul 2014 20:55:14 +0000
p305
sg117
Vhttp://www.reddit.com/r/hearthstone/comments/2ad6mg/where_is_a_polymerization_when_you_need_it/
p306
stRp307
ag1
(g2
g3
(dp308
S'summary_detail'
p309
g1
(g2
g3
(dp310
g9
Vhttp://www.reddit.com/r/hearthstone.rss
p311
sg11
g54
sg13
Nsg14
V<!-- SC_OFF --><div class="md"><p><em>Ever wonder exactly how much luck is involved in the legendary climb? Need an excuse as to why you're still grinding while your (obviously less skilled, and also worse smelling) friend has his shiny orange hexagon already? Look no further!</em></p> <p>First, some definitions:</p> <p>We describe &quot;skill&quot; as &quot;expected win rate&quot; -e.g. A coin flip has an expected win rate of exactly 50%</p> <p>Which we contrast with &quot;observed win rate&quot; -e.g. If you get 4 heads out of 10 flips, your observed win rate is 40%</p> <p>Then, using a computer <a href="http://en.wikipedia.org/wiki/Markov_chain">Markov chain</a> model of the 25 steps from rank 5 to legend to calculate the probability of reaching legend after N iterations (games played), we get the following distributions:</p> <p>If your <strong>expected win rate</strong> is <strong>55%</strong> R5-Legend will likely (90% <a href="http://en.wikipedia.org/wiki/Confidence_interval">CI</a>) take <strong>84 - 454 games</strong> with a median of 190</p> <p>If your <strong>expected win rate</strong> is <strong>60%</strong> R5-Legend will likely (90% CI) take <strong>60 - 216 games</strong> with a median of 112</p> <p>If your <strong>expected win rate</strong> is <strong>65%</strong> R5-Legend will likely (90% CI) take <strong>48 - 136 games</strong> with a median of 80</p> <p>Interestingly, one could conceivably reach legend purely via <a href="http://en.wikipedia.org/wiki/Random_walk">random walk</a>:</p> <p>If your <strong>expected win rate</strong> is <strong>50%</strong> R5-Legend will likely (90% CI) take <strong>144 - 1912 games</strong> with a median of 552</p> <p>So there you have it. May the cards be ever in your favor!</p> </div><!-- SC_ON --> submitted by <a href="http://www.reddit.com/user/Psychosynth"> Psychosynth </a> <br /> <a href="http://www.reddit.com/r/hearthstone/comments/2abqd3/rank_5_to_legendary_probability_using_actual_math/">[link]</a> <a href="http://www.reddit.com/r/hearthstone/comments/2abqd3/rank_5_to_legendary_probability_using_actual_math/">[110 comments]</a>
p312
stRp313
sg19
(lp314
g1
(g2
g3
(dp315
g22
Vhttp://www.reddit.com/r/hearthstone/comments/2abqd3/rank_5_to_legendary_probability_using_actual_math/
p316
sg11
g24
sg25
g26
stRp317
asg105
g106
((I2014
I7
I10
I11
I56
I50
I3
I191
I0
t(dtRp318
sg36
VRank 5 to Legendary probability (using actual math!)
p319
sg109
g312
sg110
I00
sS'title_detail'
p320
g1
(g2
g3
(dp321
g9
Vhttp://www.reddit.com/r/hearthstone.rss
p322
sg11
g12
sg13
Nsg14
g319
stRp323
sg37
g316
sg115
VThu, 10 Jul 2014 11:56:50 +0000
p324
sg117
Vhttp://www.reddit.com/r/hearthstone/comments/2abqd3/rank_5_to_legendary_probability_using_actual_math/
p325
stRp326
ag1
(g2
g3
(dp327
S'summary_detail'
p328
g1
(g2
g3
(dp329
g9
Vhttp://www.reddit.com/r/hearthstone.rss
p330
sg11
g54
sg13
Nsg14
V<!-- SC_OFF --><div class="md"><p>title</p> </div><!-- SC_ON --> submitted by <a href="http://www.reddit.com/user/Bakyra"> Bakyra </a> <br /> <a href="http://www.reddit.com/r/hearthstone/comments/2abzhe/would_the_demolisher_see_more_play_if_it_was_at/">[link]</a> <a href="http://www.reddit.com/r/hearthstone/comments/2abzhe/would_the_demolisher_see_more_play_if_it_was_at/">[154 comments]</a>
p331
stRp332
sg19
(lp333
g1
(g2
g3
(dp334
g22
Vhttp://www.reddit.com/r/hearthstone/comments/2abzhe/would_the_demolisher_see_more_play_if_it_was_at/
p335
sg11
g24
sg25
g26
stRp336
asg105
g106
((I2014
I7
I10
I14
I1
I31
I3
I191
I0
t(dtRp337
sg36
VWould the Demolisher see more play if it was "at the end of your turn" a la rag?
p338
sg109
g331
sg110
I00
sS'title_detail'
p339
g1
(g2
g3
(dp340
g9
Vhttp://www.reddit.com/r/hearthstone.rss
p341
sg11
g12
sg13
Nsg14
g338
stRp342
sg37
g335
sg115
VThu, 10 Jul 2014 07:01:31 -0700
p343
sg117
Vhttp://www.reddit.com/r/hearthstone/comments/2abzhe/would_the_demolisher_see_more_play_if_it_was_at/
p344
stRp345
ag1
(g2
g3
(dp346
S'summary_detail'
p347
g1
(g2
g3
(dp348
g9
Vhttp://www.reddit.com/r/hearthstone.rss
p349
sg11
g54
sg13
Nsg14
V<!-- SC_OFF --><div class="md"><p>Little did he know I was biding my time letting him flood the board, after he played the second Northshire I was so giddy.</p> <p><a href="http://i.imgur.com/WFyQVg8.jpg">http://i.imgur.com/WFyQVg8.jpg</a></p> <p>After I played the combo my game crashed, not sure if it was from the over drawing. Still got the win!</p> </div><!-- SC_ON --> submitted by <a href="http://www.reddit.com/user/simon2105"> simon2105 </a> <br /> <a href="http://www.reddit.com/r/hearthstone/comments/2abyo9/this_guy_thought_he_had_me_beat/">[link]</a> <a href="http://www.reddit.com/r/hearthstone/comments/2abyo9/this_guy_thought_he_had_me_beat/">[67 comments]</a>
p350
stRp351
sg19
(lp352
g1
(g2
g3
(dp353
g22
Vhttp://www.reddit.com/r/hearthstone/comments/2abyo9/this_guy_thought_he_had_me_beat/
p354
sg11
g24
sg25
g26
stRp355
asg105
g106
((I2014
I7
I10
I13
I52
I34
I3
I191
I0
t(dtRp356
sg36
VThis guy thought he had me beat
p357
sg109
g350
sg110
I00
sS'title_detail'
p358
g1
(g2
g3
(dp359
g9
Vhttp://www.reddit.com/r/hearthstone.rss
p360
sg11
g12
sg13
Nsg14
g357
stRp361
sg37
g354
sg115
VThu, 10 Jul 2014 13:52:34 +0000
p362
sg117
Vhttp://www.reddit.com/r/hearthstone/comments/2abyo9/this_guy_thought_he_had_me_beat/
p363
stRp364
ag1
(g2
g3
(dp365
S'summary_detail'
p366
g1
(g2
g3
(dp367
g9
Vhttp://www.reddit.com/r/hearthstone.rss
p368
sg11
g54
sg13
Nsg14
V<!-- SC_OFF --><div class="md"><p>News at 11</p> </div><!-- SC_ON --> submitted by <a href="http://www.reddit.com/user/Ivanthecow"> Ivanthecow </a> <br /> <a href="http://www.reddit.com/r/hearthstone/comments/2acy3z/in_game_shop_closed_following_maintenance/">[link]</a> <a href="http://www.reddit.com/r/hearthstone/comments/2acy3z/in_game_shop_closed_following_maintenance/">[31 comments]</a>
p369
stRp370
sg19
(lp371
g1
(g2
g3
(dp372
g22
Vhttp://www.reddit.com/r/hearthstone/comments/2acy3z/in_game_shop_closed_following_maintenance/
p373
sg11
g24
sg25
g26
stRp374
asg105
g106
((I2014
I7
I10
I19
I36
I55
I3
I191
I0
t(dtRp375
sg36
VIn game shop Closed following maintenance
p376
sg109
g369
sg110
I00
sS'title_detail'
p377
g1
(g2
g3
(dp378
g9
Vhttp://www.reddit.com/r/hearthstone.rss
p379
sg11
g12
sg13
Nsg14
g376
stRp380
sg37
g373
sg115
VThu, 10 Jul 2014 19:36:55 +0000
p381
sg117
Vhttp://www.reddit.com/r/hearthstone/comments/2acy3z/in_game_shop_closed_following_maintenance/
p382
stRp383
ag1
(g2
g3
(dp384
S'summary_detail'
p385
g1
(g2
g3
(dp386
g9
Vhttp://www.reddit.com/r/hearthstone.rss
p387
sg11
g54
sg13
Nsg14
V<!-- SC_OFF --><div class="md"><p>'Are you Nozdormu? Cause I'd only last 15 seconds.'</p> <p>Post yours =P</p> </div><!-- SC_ON --> submitted by <a href="http://www.reddit.com/user/ThatsAdmirable"> ThatsAdmirable </a> <br /> <a href="http://www.reddit.com/r/hearthstone/comments/2abbjk/hearthstone_pickup_lines/">[link]</a> <a href="http://www.reddit.com/r/hearthstone/comments/2abbjk/hearthstone_pickup_lines/">[284 comments]</a>
p388
stRp389
sg19
(lp390
g1
(g2
g3
(dp391
g22
Vhttp://www.reddit.com/r/hearthstone/comments/2abbjk/hearthstone_pickup_lines/
p392
sg11
g24
sg25
g26
stRp393
asg105
g106
((I2014
I7
I10
I7
I2
I21
I3
I191
I0
t(dtRp394
sg36
VHearthstone Pickup Lines
p395
sg109
g388
sg110
I00
sS'title_detail'
p396
g1
(g2
g3
(dp397
g9
Vhttp://www.reddit.com/r/hearthstone.rss
p398
sg11
g12
sg13
Nsg14
g395
stRp399
sg37
g392
sg115
VThu, 10 Jul 2014 00:02:21 -0700
p400
sg117
Vhttp://www.reddit.com/r/hearthstone/comments/2abbjk/hearthstone_pickup_lines/
p401
stRp402
ag1
(g2
g3
(dp403
S'summary_detail'
p404
g1
(g2
g3
(dp405
g9
Vhttp://www.reddit.com/r/hearthstone.rss
p406
sg11
g54
sg13
Nsg14
V<!-- SC_OFF --><div class="md"><p>I thought it was one of the most entertaining nights in streaming history</p> <p>It ended kinda tragic but all in all was a good show</p> <p>what are your thoughts?</p> <p>edit: for those who missed it estafan7 had the best account of <a href="http://www.reddit.com/r/hearthstone/comments/2abmpb/who_all_tuned_in_for_days_of_our_tides_last_night/citytx6">what happened</a></p> </div><!-- SC_ON --> submitted by <a href="http://www.reddit.com/user/losisnojoke"> losisnojoke </a> <br /> <a href="http://www.reddit.com/r/hearthstone/comments/2abmpb/who_all_tuned_in_for_days_of_our_tides_last_night/">[link]</a> <a href="http://www.reddit.com/r/hearthstone/comments/2abmpb/who_all_tuned_in_for_days_of_our_tides_last_night/">[110 comments]</a>
p407
stRp408
sg19
(lp409
g1
(g2
g3
(dp410
g22
Vhttp://www.reddit.com/r/hearthstone/comments/2abmpb/who_all_tuned_in_for_days_of_our_tides_last_night/
p411
sg11
g24
sg25
g26
stRp412
asg105
g106
((I2014
I7
I10
I10
I48
I7
I3
I191
I0
t(dtRp413
sg36
VWho all tuned in for "days of our Tides" last night?
p414
sg109
g407
sg110
I00
sS'title_detail'
p415
g1
(g2
g3
(dp416
g9
Vhttp://www.reddit.com/r/hearthstone.rss
p417
sg11
g12
sg13
Nsg14
g414
stRp418
sg37
g411
sg115
VThu, 10 Jul 2014 10:48:07 +0000
p419
sg117
Vhttp://www.reddit.com/r/hearthstone/comments/2abmpb/who_all_tuned_in_for_days_of_our_tides_last_night/
p420
stRp421
ag1
(g2
g3
(dp422
S'summary_detail'
p423
g1
(g2
g3
(dp424
g9
Vhttp://www.reddit.com/r/hearthstone.rss
p425
sg11
g54
sg13
Nsg14
V<!-- SC_OFF --><div class="md"><p>Miracle rogue that uses Questing and Wisps. 44 legend, congrats, freegold!</p> </div><!-- SC_ON --> submitted by <a href="http://www.reddit.com/user/Benasaz"> Benasaz </a> <br /> <a href="http://www.reddit.com/r/hearthstone/comments/2adg91/freegold_just_hit_legend_with_wisp_deck/">[link]</a> <a href="http://www.reddit.com/r/hearthstone/comments/2adg91/freegold_just_hit_legend_with_wisp_deck/">[10 comments]</a>
p426
stRp427
sg19
(lp428
g1
(g2
g3
(dp429
g22
Vhttp://www.reddit.com/r/hearthstone/comments/2adg91/freegold_just_hit_legend_with_wisp_deck/
p430
sg11
g24
sg25
g26
stRp431
asg105
g106
((I2014
I7
I10
I22
I29
I17
I3
I191
I0
t(dtRp432
sg36
VFreegold just hit legend with wisp deck
p433
sg109
g426
sg110
I00
sS'title_detail'
p434
g1
(g2
g3
(dp435
g9
Vhttp://www.reddit.com/r/hearthstone.rss
p436
sg11
g12
sg13
Nsg14
g433
stRp437
sg37
g430
sg115
VThu, 10 Jul 2014 22:29:17 +0000
p438
sg117
Vhttp://www.reddit.com/r/hearthstone/comments/2adg91/freegold_just_hit_legend_with_wisp_deck/
p439
stRp440
ag1
(g2
g3
(dp441
S'summary_detail'
p442
g1
(g2
g3
(dp443
g9
Vhttp://www.reddit.com/r/hearthstone.rss
p444
sg11
g54
sg13
Nsg14
V<table> <tr><td> <a href="http://www.reddit.com/r/hearthstone/comments/2ab1lz/funny_and_lucky_moments_hearthstone_ep_53/"><img alt="Funny and Lucky Moments - Hearthstone - Ep. 53" src="http://b.thumbs.redditmedia.com/O0O2EfydiUoREfOq.jpg" title="Funny and Lucky Moments - Hearthstone - Ep. 53" /></a> </td><td> submitted by <a href="http://www.reddit.com/user/Antka"> Antka </a> <br /> <a href="https://www.youtube.com/watch?v=nc9XQU_udsw">[link]</a> <a href="http://www.reddit.com/r/hearthstone/comments/2ab1lz/funny_and_lucky_moments_hearthstone_ep_53/">[54 comments]</a> </td></tr></table>
p445
stRp446
sg19
(lp447
g1
(g2
g3
(dp448
g22
Vhttp://www.reddit.com/r/hearthstone/comments/2ab1lz/funny_and_lucky_moments_hearthstone_ep_53/
p449
sg11
g24
sg25
g26
stRp450
asg105
g106
((I2014
I7
I10
I4
I37
I13
I3
I191
I0
t(dtRp451
sg36
VFunny and Lucky Moments - Hearthstone - Ep. 53
p452
sg132
(lp453
(dp454
S'url'
p455
Vhttp://b.thumbs.redditmedia.com/O0O2EfydiUoREfOq.jpg
p456
sasg109
g445
sg110
I00
sS'title_detail'
p457
g1
(g2
g3
(dp458
g9
Vhttp://www.reddit.com/r/hearthstone.rss
p459
sg11
g12
sg13
Nsg14
g452
stRp460
sg22
V
sg37
g449
sg115
VWed, 09 Jul 2014 21:37:13 -0700
p461
sg117
Vhttp://www.reddit.com/r/hearthstone/comments/2ab1lz/funny_and_lucky_moments_hearthstone_ep_53/
p462
stRp463
ag1
(g2
g3
(dp464
S'summary_detail'
p465
g1
(g2
g3
(dp466
g9
Vhttp://www.reddit.com/r/hearthstone.rss
p467
sg11
g54
sg13
Nsg14
V<table> <tr><td> <a href="http://www.reddit.com/r/hearthstone/comments/2aahwi/ben_brode_the_order_in_which_deathrattles_trigger/"><img alt="Ben Brode: &quot;the order in which [deathrattles] trigger&quot; will change when Naxx releases" src="http://b.thumbs.redditmedia.com/ZEcQ4HVpnkVbIP_G.jpg" title="Ben Brode: &quot;the order in which [deathrattles] trigger&quot; will change when Naxx releases" /></a> </td><td> submitted by <a href="http://www.reddit.com/user/Aphoristic"> Aphoristic </a> <br /> <a href="https://twitter.com/bdbrode/status/487033020432392192">[link]</a> <a href="http://www.reddit.com/r/hearthstone/comments/2aahwi/ben_brode_the_order_in_which_deathrattles_trigger/">[214 comments]</a> </td></tr></table>
p468
stRp469
sg19
(lp470
g1
(g2
g3
(dp471
g22
Vhttp://www.reddit.com/r/hearthstone/comments/2aahwi/ben_brode_the_order_in_which_deathrattles_trigger/
p472
sg11
g24
sg25
g26
stRp473
asg105
g106
((I2014
I7
I10
I0
I59
I22
I3
I191
I0
t(dtRp474
sg36
VBen Brode: "the order in which [deathrattles] trigger" will change when Naxx releases
p475
sg132
(lp476
(dp477
S'url'
p478
Vhttp://b.thumbs.redditmedia.com/ZEcQ4HVpnkVbIP_G.jpg
p479
sasg109
g468
sg110
I00
sS'title_detail'
p480
g1
(g2
g3
(dp481
g9
Vhttp://www.reddit.com/r/hearthstone.rss
p482
sg11
g12
sg13
Nsg14
g475
stRp483
sg22
V
sg37
g472
sg115
VWed, 09 Jul 2014 17:59:22 -0700
p484
sg117
Vhttp://www.reddit.com/r/hearthstone/comments/2aahwi/ben_brode_the_order_in_which_deathrattles_trigger/
p485
stRp486
ag1
(g2
g3
(dp487
S'summary_detail'
p488
g1
(g2
g3
(dp489
g9
Vhttp://www.reddit.com/r/hearthstone.rss
p490
sg11
g54
sg13
Nsg14
V<!-- SC_OFF --><div class="md"><p><a href="http://i.imgur.com/nBTRqZ4.png">http://i.imgur.com/nBTRqZ4.png</a></p> </div><!-- SC_ON --> submitted by <a href="http://www.reddit.com/user/clownmother"> clownmother </a> <br /> <a href="http://www.reddit.com/r/hearthstone/comments/2adlv7/artosiss_facebook_post_about_naxx_pricing_got/">[link]</a> <a href="http://www.reddit.com/r/hearthstone/comments/2adlv7/artosiss_facebook_post_about_naxx_pricing_got/">[16 comments]</a>
p491
stRp492
sg19
(lp493
g1
(g2
g3
(dp494
g22
Vhttp://www.reddit.com/r/hearthstone/comments/2adlv7/artosiss_facebook_post_about_naxx_pricing_got/
p495
sg11
g24
sg25
g26
stRp496
asg105
g106
((I2014
I7
I10
I23
I26
I8
I3
I191
I0
t(dtRp497
sg36
VArtosis's Facebook post about Naxx pricing got pretty weird.
p498
sg109
g491
sg110
I00
sS'title_detail'
p499
g1
(g2
g3
(dp500
g9
Vhttp://www.reddit.com/r/hearthstone.rss
p501
sg11
g12
sg13
Nsg14
g498
stRp502
sg37
g495
sg115
VThu, 10 Jul 2014 23:26:08 +0000
p503
sg117
Vhttp://www.reddit.com/r/hearthstone/comments/2adlv7/artosiss_facebook_post_about_naxx_pricing_got/
p504
stRp505
ag1
(g2
g3
(dp506
S'summary_detail'
p507
g1
(g2
g3
(dp508
g9
Vhttp://www.reddit.com/r/hearthstone.rss
p509
sg11
g54
sg13
Nsg14
V<!-- SC_OFF --><div class="md"><p>(Arena)<br /> <strong>Me:</strong> 7 health<br /> <strong>Them:</strong> Azure Drake &gt; Soulfire to my face &gt; Discards another Soulfire<br /> <strong>Me:</strong> 2 Health, trade minions, play Rag on empty board<br /> <strong>Them:</strong> Mad Bomber, 1 on my face, 2 on Rag<br /> <strong>Me:</strong> Dirty<sup>dirty</sup> topdeck<br /> <a href="http://i.imgur.com/5pqISkS.jpg">http://i.imgur.com/5pqISkS.jpg</a> </p> </div><!-- SC_ON --> submitted by <a href="http://www.reddit.com/user/TranscendLoL"> TranscendLoL </a> <br /> <a href="http://www.reddit.com/r/hearthstone/comments/2accip/rngesus_tested_me_today/">[link]</a> <a href="http://www.reddit.com/r/hearthstone/comments/2accip/rngesus_tested_me_today/">[19 comments]</a>
p510
stRp511
sg19
(lp512
g1
(g2
g3
(dp513
g22
Vhttp://www.reddit.com/r/hearthstone/comments/2accip/rngesus_tested_me_today/
p514
sg11
g24
sg25
g26
stRp515
asg105
g106
((I2014
I7
I10
I16
I16
I38
I3
I191
I0
t(dtRp516
sg36
VRNGesus tested me today
p517
sg109
g510
sg110
I00
sS'title_detail'
p518
g1
(g2
g3
(dp519
g9
Vhttp://www.reddit.com/r/hearthstone.rss
p520
sg11
g12
sg13
Nsg14
g517
stRp521
sg37
g514
sg115
VThu, 10 Jul 2014 16:16:38 +0000
p522
sg117
Vhttp://www.reddit.com/r/hearthstone/comments/2accip/rngesus_tested_me_today/
p523
stRp524
ag1
(g2
g3
(dp525
S'summary_detail'
p526
g1
(g2
g3
(dp527
g9
Vhttp://www.reddit.com/r/hearthstone.rss
p528
sg11
g54
sg13
Nsg14
V<!-- SC_OFF --><div class="md"><p>I've tried googling and didn't really find anything conclusive. Something about a certain winrate in Arena? What do you get?</p> <p>Edit: Got it. Makes perfect sense now. Thanks!</p> </div><!-- SC_ON --> submitted by <a href="http://www.reddit.com/user/arkofcovenant"> arkofcovenant </a> <br /> <a href="http://www.reddit.com/r/hearthstone/comments/2acm26/noob_question_what_is_infinite_arena/">[link]</a> <a href="http://www.reddit.com/r/hearthstone/comments/2acm26/noob_question_what_is_infinite_arena/">[56 comments]</a>
p529
stRp530
sg19
(lp531
g1
(g2
g3
(dp532
g22
Vhttp://www.reddit.com/r/hearthstone/comments/2acm26/noob_question_what_is_infinite_arena/
p533
sg11
g24
sg25
g26
stRp534
asg105
g106
((I2014
I7
I10
I17
I47
I21
I3
I191
I0
t(dtRp535
sg36
VNoob question: What is "infinite arena"?
p536
sg109
g529
sg110
I00
sS'title_detail'
p537
g1
(g2
g3
(dp538
g9
Vhttp://www.reddit.com/r/hearthstone.rss
p539
sg11
g12
sg13
Nsg14
g536
stRp540
sg37
g533
sg115
VThu, 10 Jul 2014 17:47:21 +0000
p541
sg117
Vhttp://www.reddit.com/r/hearthstone/comments/2acm26/noob_question_what_is_infinite_arena/
p542
stRp543
ag1
(g2
g3
(dp544
S'summary_detail'
p545
g1
(g2
g3
(dp546
g9
Vhttp://www.reddit.com/r/hearthstone.rss
p547
sg11
g54
sg13
Nsg14
V<!-- SC_OFF --><div class="md"><p><strong>Challenger:</strong></p> <p>[MyM]Ignite! He will be playing for a $450 prize pool. He will be playing [DKMR]DTwo in a bo5 and if he wins then he will move on to the current champion [DKMR]Brad. [DKMR]Brad is currently 4-0 (16-1) only losing one game to [vVv]Wampie.</p> <p><strong>Live Stream:</strong> 9pm EST @ <strong>twitch.tv/2p_entertainment</strong></p> <p><strong>The Format:</strong></p> <p>The invited player (Ignite) faces off against the winner of a DKMR inhouse tournament (Dtwo), and the winner of that match faces off against the current king of the DKMR Invitational (Brad)</p> <p><strong>Live Casted:</strong> The event will be cast live utilizing twitch.tv; the event will be shoutcasted by Kobayshi Maru (a Hearthstone Shoutcaster, writer and host of his own show, Master Class.) and a guest host (sometimes the guest will be another DKMR member). </p> </div><!-- SC_ON --> submitted by <a href="http://www.reddit.com/user/Kisstafer1"> Kisstafer1 </a> <br /> <a href="http://www.reddit.com/r/hearthstone/comments/2adqe8/dkmr_invitational_mymignite_vs_dkmrdtwo_winner/">[link]</a> <a href="http://www.reddit.com/r/hearthstone/comments/2adqe8/dkmr_invitational_mymignite_vs_dkmrdtwo_winner/">[comment]</a>
p548
stRp549
sg19
(lp550
g1
(g2
g3
(dp551
g22
Vhttp://www.reddit.com/r/hearthstone/comments/2adqe8/dkmr_invitational_mymignite_vs_dkmrdtwo_winner/
p552
sg11
g24
sg25
g26
stRp553
asg105
g106
((I2014
I7
I11
I0
I12
I26
I4
I192
I0
t(dtRp554
sg36
VDKMR Invitational [MyM]Ignite vs [DKMR]Dtwo & winner plays [DKMR]Brad starting at 9PM EST
p555
sg109
g548
sg110
I00
sS'title_detail'
p556
g1
(g2
g3
(dp557
g9
Vhttp://www.reddit.com/r/hearthstone.rss
p558
sg11
g12
sg13
Nsg14
g555
stRp559
sg37
g552
sg115
VFri, 11 Jul 2014 00:12:26 +0000
p560
sg117
Vhttp://www.reddit.com/r/hearthstone/comments/2adqe8/dkmr_invitational_mymignite_vs_dkmrdtwo_winner/
p561
stRp562
ag1
(g2
g3
(dp563
S'summary_detail'
p564
g1
(g2
g3
(dp565
g9
Vhttp://www.reddit.com/r/hearthstone.rss
p566
sg11
g54
sg13
Nsg14
V<!-- SC_OFF --><div class="md"><p>It just occurred to me that limiting the chat to canned phrases removes all language barriers from the game. I could be playing against someone who speaks any language, and the experience is exactly the same as if I was playing someone who speaks my own language.</p> <p>It's a subtle distinction, but it's pretty damn cool from a design perspective.</p> </div><!-- SC_ON --> submitted by <a href="http://www.reddit.com/user/GrammerSnob"> GrammerSnob </a> <br /> <a href="http://www.reddit.com/r/hearthstone/comments/2acidm/the_brilliant_design_decision_behind_canned_chat/">[link]</a> <a href="http://www.reddit.com/r/hearthstone/comments/2acidm/the_brilliant_design_decision_behind_canned_chat/">[22 comments]</a>
p567
stRp568
sg19
(lp569
g1
(g2
g3
(dp570
g22
Vhttp://www.reddit.com/r/hearthstone/comments/2acidm/the_brilliant_design_decision_behind_canned_chat/
p571
sg11
g24
sg25
g26
stRp572
asg105
g106
((I2014
I7
I10
I17
I13
I12
I3
I191
I0
t(dtRp573
sg36
VThe brilliant design decision behind canned chat...
p574
sg109
g567
sg110
I00
sS'title_detail'
p575
g1
(g2
g3
(dp576
g9
Vhttp://www.reddit.com/r/hearthstone.rss
p577
sg11
g12
sg13
Nsg14
g574
stRp578
sg37
g571
sg115
VThu, 10 Jul 2014 17:13:12 +0000
p579
sg117
Vhttp://www.reddit.com/r/hearthstone/comments/2acidm/the_brilliant_design_decision_behind_canned_chat/
p580
stRp581
ag1
(g2
g3
(dp582
S'summary_detail'
p583
g1
(g2
g3
(dp584
g9
Vhttp://www.reddit.com/r/hearthstone.rss
p585
sg11
g54
sg13
Nsg14
V<table> <tr><td> <a href="http://www.reddit.com/r/hearthstone/comments/2aah3k/amaz_operation_advanced_tactics/"><img alt="Amaz: Operation Advanced Tactics" src="http://a.thumbs.redditmedia.com/ExvPzredvJub9g92.jpg" title="Amaz: Operation Advanced Tactics" /></a> </td><td> submitted by <a href="http://www.reddit.com/user/CorporateHobbyist"> CorporateHobbyist </a> <br /> <a href="https://www.youtube.com/watch?v=T-E1d5_fKnI">[link]</a> <a href="http://www.reddit.com/r/hearthstone/comments/2aah3k/amaz_operation_advanced_tactics/">[87 comments]</a> </td></tr></table>
p586
stRp587
sg19
(lp588
g1
(g2
g3
(dp589
g22
Vhttp://www.reddit.com/r/hearthstone/comments/2aah3k/amaz_operation_advanced_tactics/
p590
sg11
g24
sg25
g26
stRp591
asg105
g106
((I2014
I7
I10
I0
I50
I41
I3
I191
I0
t(dtRp592
sg36
VAmaz: Operation Advanced Tactics
p593
sg132
(lp594
(dp595
S'url'
p596
Vhttp://a.thumbs.redditmedia.com/ExvPzredvJub9g92.jpg
p597
sasg109
g586
sg110
I00
sS'title_detail'
p598
g1
(g2
g3
(dp599
g9
Vhttp://www.reddit.com/r/hearthstone.rss
p600
sg11
g12
sg13
Nsg14
g593
stRp601
sg22
V
sg37
g590
sg115
VThu, 10 Jul 2014 00:50:41 +0000
p602
sg117
Vhttp://www.reddit.com/r/hearthstone/comments/2aah3k/amaz_operation_advanced_tactics/
p603
stRp604
ag1
(g2
g3
(dp605
S'summary_detail'
p606
g1
(g2
g3
(dp607
g9
Vhttp://www.reddit.com/r/hearthstone.rss
p608
sg11
g54
sg13
Nsg14
V<!-- SC_OFF --><div class="md"><p>Even though Naxxramas hasn't been released yet, I'm already hoping for a Karazhan adventure: <a href="http://imgur.com/a/tZPw0">http://imgur.com/a/tZPw0</a></p> </div><!-- SC_ON --> submitted by <a href="http://www.reddit.com/user/warmshadows"> warmshadows </a> <br /> <a href="http://www.reddit.com/r/hearthstone/comments/2abej9/karazhan_cards/">[link]</a> <a href="http://www.reddit.com/r/hearthstone/comments/2abej9/karazhan_cards/">[114 comments]</a>
p609
stRp610
sg19
(lp611
g1
(g2
g3
(dp612
g22
Vhttp://www.reddit.com/r/hearthstone/comments/2abej9/karazhan_cards/
p613
sg11
g24
sg25
g26
stRp614
asg105
g106
((I2014
I7
I10
I7
I57
I37
I3
I191
I0
t(dtRp615
sg36
VKarazhan Cards
p616
sg109
g609
sg110
I00
sS'title_detail'
p617
g1
(g2
g3
(dp618
g9
Vhttp://www.reddit.com/r/hearthstone.rss
p619
sg11
g12
sg13
Nsg14
g616
stRp620
sg37
g613
sg115
VThu, 10 Jul 2014 07:57:37 +0000
p621
sg117
Vhttp://www.reddit.com/r/hearthstone/comments/2abej9/karazhan_cards/
p622
stRp623
astRp624
.