ccopy_reg
_reconstructor
p1
(cfeedparser
FeedParserDict
p2
c__builtin__
dict
p3
(dp4
S'feed'
p5
g1
(g2
g3
(dp6
S'title_detail'
p7
g1
(g2
g3
(dp8
S'base'
p9
Vhttp://www.phoronix.com/rss.php
p10
sS'type'
p11
Vtext/plain
p12
sS'language'
p13
NsS'value'
p14
VPhoronix
p15
stRp16
sS'subtitle'
p17
VGNU/Linux & Solaris Hardware Reviews
p18
sS'links'
p19
(lp20
g1
(g2
g3
(dp21
S'href'
p22
Vhttp://www.phoronix.com/
p23
sg11
Vtext/html
p24
sS'rel'
p25
Valternate
p26
stRp27
asg13
Ven-us
p28
sS'title'
p29
g15
sS'link'
p30
g23
sS'subtitle_detail'
p31
g1
(g2
g3
(dp32
g9
Vhttp://www.phoronix.com/rss.php
p33
sg11
Vtext/html
p34
sg13
Nsg14
g18
stRp35
stRp36
sS'status'
p37
I200
sS'encoding'
p38
Vutf-8
p39
sS'bozo'
p40
I0
sS'headers'
p41
(dp42
S'content-length'
p43
S'4859'
p44
sS'x-powered-by'
p45
S'PHP/5.3.26'
p46
sS'content-encoding'
p47
S'gzip'
p48
sS'vary'
p49
S'User-Agent,Accept-Encoding'
p50
sS'server'
p51
S'Apache'
p52
sS'connection'
p53
S'close'
p54
sS'date'
p55
S'Fri, 11 Jul 2014 10:17:08 GMT'
p56
sS'content-type'
p57
S'text/xml; charset=utf-8'
p58
ssS'version'
p59
Vrss20
p60
sg22
Vhttp://www.phoronix.com/rss.php
p61
sS'namespaces'
p62
(dp63
sS'entries'
p64
(lp65
g1
(g2
g3
(dp66
S'summary_detail'
p67
g1
(g2
g3
(dp68
g9
Vhttp://www.phoronix.com/rss.php
p69
sg11
g34
sg13
Nsg14
VOne of the biggest challenges with the Nouveau open-source graphics driver for NVIDIA graphics hardware in recent times has been with regard to GPU / video memory re-clocking. As a minor step forward, NVIDIA has contributed re-clocking patches for the GK20A graphics processor...
p70
stRp71
sg19
(lp72
g1
(g2
g3
(dp73
g22
Vhttp://www.phoronix.com/vr.php?view=MTczOTg
p74
sg11
g24
sg25
g26
stRp75
asS'published_parsed'
p76
ctime
struct_time
p77
((I2014
I7
I11
I4
I48
I54
I4
I192
I0
t(dtRp78
sg29
VNVIDIA Contributes Re-Clocking Code To Nouveau For The GK20A
p79
sS'summary'
p80
g70
sS'guidislink'
p81
I00
sS'title_detail'
p82
g1
(g2
g3
(dp83
g9
Vhttp://www.phoronix.com/rss.php
p84
sg11
g12
sg13
Nsg14
g79
stRp85
sg30
g74
sS'published'
p86
VFri, 11 Jul 2014 00:48:54 EDT
p87
sS'id'
p88
Vhttp://www.phoronix.com/vr.php?view=MTczOTg
p89
stRp90
ag1
(g2
g3
(dp91
S'summary_detail'
p92
g1
(g2
g3
(dp93
g9
Vhttp://www.phoronix.com/rss.php
p94
sg11
g34
sg13
Nsg14
VThe first beta of KDE with new releases for the applications and development platform is now available for the 4.14 release cycle...
p95
stRp96
sg19
(lp97
g1
(g2
g3
(dp98
g22
Vhttp://www.phoronix.com/vr.php?view=MTczOTc
p99
sg11
g24
sg25
g26
stRp100
asg76
g77
((I2014
I7
I11
I4
I12
I5
I4
I192
I0
t(dtRp101
sg29
VKDE 4.14  Applications & Development Platform Beta Released
p102
sg80
g95
sg81
I00
sS'title_detail'
p103
g1
(g2
g3
(dp104
g9
Vhttp://www.phoronix.com/rss.php
p105
sg11
g12
sg13
Nsg14
g102
stRp106
sg30
g99
sg86
VFri, 11 Jul 2014 00:12:05 EDT
p107
sg88
Vhttp://www.phoronix.com/vr.php?view=MTczOTc
p108
stRp109
ag1
(g2
g3
(dp110
S'summary_detail'
p111
g1
(g2
g3
(dp112
g9
Vhttp://www.phoronix.com/rss.php
p113
sg11
g34
sg13
Nsg14
VAMD has just published a massive patch-set for the Linux kernel that finally implements a HSA (Heterogeneous System Architecture) in open-source. The set of 83 patches implement a Linux HSA driver for Radeon family GPUs and serves too as a sample driver for other HSA-compatible devices. This big driver in part is what well known Phoronix contributor John Bridgman has been working on at AMD...
p114
stRp115
sg19
(lp116
g1
(g2
g3
(dp117
g22
Vhttp://www.phoronix.com/vr.php?view=MTczOTY
p118
sg11
g24
sg25
g26
stRp119
asg76
g77
((I2014
I7
I10
I22
I23
I53
I3
I191
I0
t(dtRp120
sg29
VAMD Publishes Open-Source Linux HSA Kernel Driver
p121
sg80
g114
sg81
I00
sS'title_detail'
p122
g1
(g2
g3
(dp123
g9
Vhttp://www.phoronix.com/rss.php
p124
sg11
g12
sg13
Nsg14
g121
stRp125
sg30
g118
sg86
VThu, 10 Jul 2014 18:23:53 EDT
p126
sg88
Vhttp://www.phoronix.com/vr.php?view=MTczOTY
p127
stRp128
ag1
(g2
g3
(dp129
S'summary_detail'
p130
g1
(g2
g3
(dp131
g9
Vhttp://www.phoronix.com/rss.php
p132
sg11
g34
sg13
Nsg14
VFor those still out there running a GeForce 6 or 7 series graphics card, NVIDIA has updated its legacy proprietary 304.xx Unix graphics driver for Linux, FreeBSD, and Solaris systems...
p133
stRp134
sg19
(lp135
g1
(g2
g3
(dp136
g22
Vhttp://www.phoronix.com/vr.php?view=MTczOTU
p137
sg11
g24
sg25
g26
stRp138
asg76
g77
((I2014
I7
I10
I17
I18
I3
I3
I191
I0
t(dtRp139
sg29
VNVIDIA Updates Its Linux Legacy Driver For GeForce 6/7 GPUs
p140
sg80
g133
sg81
I00
sS'title_detail'
p141
g1
(g2
g3
(dp142
g9
Vhttp://www.phoronix.com/rss.php
p143
sg11
g12
sg13
Nsg14
g140
stRp144
sg30
g137
sg86
VThu, 10 Jul 2014 13:18:03 EDT
p145
sg88
Vhttp://www.phoronix.com/vr.php?view=MTczOTU
p146
stRp147
ag1
(g2
g3
(dp148
S'summary_detail'
p149
g1
(g2
g3
(dp150
g9
Vhttp://www.phoronix.com/rss.php
p151
sg11
g34
sg13
Nsg14
VThe latest stable release of CodeWeavers' CrossOver software is now available and it's now more liberal about package installation...
p152
stRp153
sg19
(lp154
g1
(g2
g3
(dp155
g22
Vhttp://www.phoronix.com/vr.php?view=MTczOTQ
p156
sg11
g24
sg25
g26
stRp157
asg76
g77
((I2014
I7
I10
I16
I6
I27
I3
I191
I0
t(dtRp158
sg29
VCrossOver 13.2.0 Allows Easier Package Installation On Linux
p159
sg80
g152
sg81
I00
sS'title_detail'
p160
g1
(g2
g3
(dp161
g9
Vhttp://www.phoronix.com/rss.php
p162
sg11
g12
sg13
Nsg14
g159
stRp163
sg30
g156
sg86
VThu, 10 Jul 2014 12:06:27 EDT
p164
sg88
Vhttp://www.phoronix.com/vr.php?view=MTczOTQ
p165
stRp166
ag1
(g2
g3
(dp167
S'summary_detail'
p168
g1
(g2
g3
(dp169
g9
Vhttp://www.phoronix.com/rss.php
p170
sg11
g34
sg13
Nsg14
VCentOS 7.0 was released this week and that came just days after the first alpha of Scientific Linux 7, both of which are based upon last month's release of Red Hat Enterprise Linux 7. With these new community-based EL7 releases coming about, it's time for some fresh Enterprise Linux benchmarking and performance monitoring on Phoronix.
p171
stRp172
sg19
(lp173
g1
(g2
g3
(dp174
g22
Vhttp://www.phoronix.com/vr.php?view=20681
p175
sg11
g24
sg25
g26
stRp176
asg76
g77
((I2014
I7
I10
I14
I23
I7
I3
I191
I0
t(dtRp177
sg29
VPreview: Benchmarking CentOS 7.0 & Scientific Linux 7.0
p178
sg80
g171
sg81
I00
sS'title_detail'
p179
g1
(g2
g3
(dp180
g9
Vhttp://www.phoronix.com/rss.php
p181
sg11
g12
sg13
Nsg14
g178
stRp182
sg30
g175
sg86
VThu, 10 Jul 2014 10:23:07 EDT
p183
sg88
Vhttp://www.phoronix.com/vr.php?view=20681
p184
stRp185
ag1
(g2
g3
(dp186
S'summary_detail'
p187
g1
(g2
g3
(dp188
g9
Vhttp://www.phoronix.com/rss.php
p189
sg11
g34
sg13
Nsg14
VMore code by Emil Velikov was merged yesterday to push along the Gallium3D Mega Drivers model...
p190
stRp191
sg19
(lp192
g1
(g2
g3
(dp193
g22
Vhttp://www.phoronix.com/vr.php?view=MTczOTM
p194
sg11
g24
sg25
g26
stRp195
asg76
g77
((I2014
I7
I10
I13
I20
I56
I3
I191
I0
t(dtRp196
sg29
VMore "Mega Driver" Work Merged For Mesa
p197
sg80
g190
sg81
I00
sS'title_detail'
p198
g1
(g2
g3
(dp199
g9
Vhttp://www.phoronix.com/rss.php
p200
sg11
g12
sg13
Nsg14
g197
stRp201
sg30
g194
sg86
VThu, 10 Jul 2014 09:20:56 EDT
p202
sg88
Vhttp://www.phoronix.com/vr.php?view=MTczOTM
p203
stRp204
ag1
(g2
g3
(dp205
S'summary_detail'
p206
g1
(g2
g3
(dp207
g9
Vhttp://www.phoronix.com/rss.php
p208
sg11
g34
sg13
Nsg14
VFor those still dependent upon Red Hat Enterprise Linux 5, the beta to the 5.11 point release is now out, which serves as the last planned revision to RHEL5...
p209
stRp210
sg19
(lp211
g1
(g2
g3
(dp212
g22
Vhttp://www.phoronix.com/vr.php?view=MTczOTI
p213
sg11
g24
sg25
g26
stRp214
asg76
g77
((I2014
I7
I10
I4
I37
I35
I3
I191
I0
t(dtRp215
sg29
VThe Beta To The Final Minor Release Of RHEL5 Is Out
p216
sg80
g209
sg81
I00
sS'title_detail'
p217
g1
(g2
g3
(dp218
g9
Vhttp://www.phoronix.com/rss.php
p219
sg11
g12
sg13
Nsg14
g216
stRp220
sg30
g213
sg86
VThu, 10 Jul 2014 00:37:35 EDT
p221
sg88
Vhttp://www.phoronix.com/vr.php?view=MTczOTI
p222
stRp223
ag1
(g2
g3
(dp224
S'summary_detail'
p225
g1
(g2
g3
(dp226
g9
Vhttp://www.phoronix.com/rss.php
p227
sg11
g34
sg13
Nsg14
VBack in May The Witcher 2 was released for Linux but the quality of this Linux game port was extremely bad and problematic for many Linux gamers due to slow performance and other issues. Fortunately, it looks like some of the problems at least may be addressed as a new open beta is beginning for the Linux version of The Witcher 2...
p228
stRp229
sg19
(lp230
g1
(g2
g3
(dp231
g22
Vhttp://www.phoronix.com/vr.php?view=MTczOTE
p232
sg11
g24
sg25
g26
stRp233
asg76
g77
((I2014
I7
I10
I4
I6
I12
I3
I191
I0
t(dtRp234
sg29
VThe Witcher 2 Works On Beta Improvements
p235
sg80
g228
sg81
I00
sS'title_detail'
p236
g1
(g2
g3
(dp237
g9
Vhttp://www.phoronix.com/rss.php
p238
sg11
g12
sg13
Nsg14
g235
stRp239
sg30
g232
sg86
VThu, 10 Jul 2014 00:06:12 EDT
p240
sg88
Vhttp://www.phoronix.com/vr.php?view=MTczOTE
p241
stRp242
ag1
(g2
g3
(dp243
S'summary_detail'
p244
g1
(g2
g3
(dp245
g9
Vhttp://www.phoronix.com/rss.php
p246
sg11
g34
sg13
Nsg14
VThe latest Fedora Copr repository established provides a "kernel playground" whereby currently out-of-tree and/or experimental kernel features are enabled for developers and enthusiasts to try out...
p247
stRp248
sg19
(lp249
g1
(g2
g3
(dp250
g22
Vhttp://www.phoronix.com/vr.php?view=MTczOTA
p251
sg11
g24
sg25
g26
stRp252
asg76
g77
((I2014
I7
I9
I19
I26
I48
I2
I190
I0
t(dtRp253
sg29
VFedora Gets A Kernel Playground Repository
p254
sg80
g247
sg81
I00
sS'title_detail'
p255
g1
(g2
g3
(dp256
g9
Vhttp://www.phoronix.com/rss.php
p257
sg11
g12
sg13
Nsg14
g254
stRp258
sg30
g251
sg86
VWed, 09 Jul 2014 15:26:48 EDT
p259
sg88
Vhttp://www.phoronix.com/vr.php?view=MTczOTA
p260
stRp261
ag1
(g2
g3
(dp262
S'summary_detail'
p263
g1
(g2
g3
(dp264
g9
Vhttp://www.phoronix.com/rss.php
p265
sg11
g34
sg13
Nsg14
VFor KDE desktop users unhappy with the level of integration with Mozilla's Firefox web browser, the situation might finally be changing...
p266
stRp267
sg19
(lp268
g1
(g2
g3
(dp269
g22
Vhttp://www.phoronix.com/vr.php?view=MTczODk
p270
sg11
g24
sg25
g26
stRp271
asg76
g77
((I2014
I7
I9
I15
I28
I20
I2
I190
I0
t(dtRp272
sg29
VFirefox Might Finally Be Moving Closer To Better KDE Integration
p273
sg80
g266
sg81
I00
sS'title_detail'
p274
g1
(g2
g3
(dp275
g9
Vhttp://www.phoronix.com/rss.php
p276
sg11
g12
sg13
Nsg14
g273
stRp277
sg30
g270
sg86
VWed, 09 Jul 2014 11:28:20 EDT
p278
sg88
Vhttp://www.phoronix.com/vr.php?view=MTczODk
p279
stRp280
ag1
(g2
g3
(dp281
S'summary_detail'
p282
g1
(g2
g3
(dp283
g9
Vhttp://www.phoronix.com/rss.php
p284
sg11
g34
sg13
Nsg14
VFor nearly one year we've known about RealVNC being interested in Wayland support for their commercial VNC products and last year they proposed a remote access protocol for Wayland. Today, RealVNC has put out a developer preview of its VNC software for Wayland...
p285
stRp286
sg19
(lp287
g1
(g2
g3
(dp288
g22
Vhttp://www.phoronix.com/vr.php?view=MTczODg
p289
sg11
g24
sg25
g26
stRp290
asg76
g77
((I2014
I7
I9
I14
I0
I0
I2
I190
I0
t(dtRp291
sg29
VRealVNC Introduces VNC Wayland Developer Preview
p292
sg80
g285
sg81
I00
sS'title_detail'
p293
g1
(g2
g3
(dp294
g9
Vhttp://www.phoronix.com/rss.php
p295
sg11
g12
sg13
Nsg14
g292
stRp296
sg30
g289
sg86
VWed, 09 Jul 2014 10:00:00 EDT
p297
sg88
Vhttp://www.phoronix.com/vr.php?view=MTczODg
p298
stRp299
ag1
(g2
g3
(dp300
S'summary_detail'
p301
g1
(g2
g3
(dp302
g9
Vhttp://www.phoronix.com/rss.php
p303
sg11
g34
sg13
Nsg14
VWhile KDE Frameworks 5 was just released this week, there's already new features and functionality sought after for future revisions of this modularized set of next-gen KDE libraries...
p304
stRp305
sg19
(lp306
g1
(g2
g3
(dp307
g22
Vhttp://www.phoronix.com/vr.php?view=MTczODc
p308
sg11
g24
sg25
g26
stRp309
asg76
g77
((I2014
I7
I9
I13
I46
I1
I2
I190
I0
t(dtRp310
sg29
VLooking Forward To The Future Of KDE Frameworks 5
p311
sg80
g304
sg81
I00
sS'title_detail'
p312
g1
(g2
g3
(dp313
g9
Vhttp://www.phoronix.com/rss.php
p314
sg11
g12
sg13
Nsg14
g311
stRp315
sg30
g308
sg86
VWed, 09 Jul 2014 09:46:01 EDT
p316
sg88
Vhttp://www.phoronix.com/vr.php?view=MTczODc
p317
stRp318
ag1
(g2
g3
(dp319
S'summary_detail'
p320
g1
(g2
g3
(dp321
g9
Vhttp://www.phoronix.com/rss.php
p322
sg11
g34
sg13
Nsg14
VThe latest programming language that can leverage using LLVM and its plethora of back-ends is Pascal-86, a language most Phoronix readers have probably never even heard of...
p323
stRp324
sg19
(lp325
g1
(g2
g3
(dp326
g22
Vhttp://www.phoronix.com/vr.php?view=MTczODY
p327
sg11
g24
sg25
g26
stRp328
asg76
g77
((I2014
I7
I9
I13
I34
I52
I2
I190
I0
t(dtRp329
sg29
VThere's Now Even LLVM Support For Pascal-86
p330
sg80
g323
sg81
I00
sS'title_detail'
p331
g1
(g2
g3
(dp332
g9
Vhttp://www.phoronix.com/rss.php
p333
sg11
g12
sg13
Nsg14
g330
stRp334
sg30
g327
sg86
VWed, 09 Jul 2014 09:34:52 EDT
p335
sg88
Vhttp://www.phoronix.com/vr.php?view=MTczODY
p336
stRp337
ag1
(g2
g3
(dp338
S'summary_detail'
p339
g1
(g2
g3
(dp340
g9
Vhttp://www.phoronix.com/rss.php
p341
sg11
g34
sg13
Nsg14
VThe first alpha release of the upcoming Mageia 5 has been released...
p342
stRp343
sg19
(lp344
g1
(g2
g3
(dp345
g22
Vhttp://www.phoronix.com/vr.php?view=MTczODU
p346
sg11
g24
sg25
g26
stRp347
asg76
g77
((I2014
I7
I9
I5
I57
I2
I2
I190
I0
t(dtRp348
sg29
VMageia 5 Alpha Updates A Lot Of Software
p349
sg80
g342
sg81
I00
sS'title_detail'
p350
g1
(g2
g3
(dp351
g9
Vhttp://www.phoronix.com/rss.php
p352
sg11
g12
sg13
Nsg14
g349
stRp353
sg30
g346
sg86
VWed, 09 Jul 2014 01:57:02 EDT
p354
sg88
Vhttp://www.phoronix.com/vr.php?view=MTczODU
p355
stRp356
ag1
(g2
g3
(dp357
S'summary_detail'
p358
g1
(g2
g3
(dp359
g9
Vhttp://www.phoronix.com/rss.php
p360
sg11
g34
sg13
Nsg14
VKDE 4.14 code is getting ready while being worked on for a December debut is a mix of KDE4 and KF5 application code...
p361
stRp362
sg19
(lp363
g1
(g2
g3
(dp364
g22
Vhttp://www.phoronix.com/vr.php?view=MTczODQ
p365
sg11
g24
sg25
g26
stRp366
asg76
g77
((I2014
I7
I9
I4
I47
I44
I2
I190
I0
t(dtRp367
sg29
VKDE 4.14 Branched, Mix-Release Planned For December
p368
sg80
g361
sg81
I00
sS'title_detail'
p369
g1
(g2
g3
(dp370
g9
Vhttp://www.phoronix.com/rss.php
p371
sg11
g12
sg13
Nsg14
g368
stRp372
sg30
g365
sg86
VWed, 09 Jul 2014 00:47:44 EDT
p373
sg88
Vhttp://www.phoronix.com/vr.php?view=MTczODQ
p374
stRp375
ag1
(g2
g3
(dp376
S'summary_detail'
p377
g1
(g2
g3
(dp378
g9
Vhttp://www.phoronix.com/rss.php
p379
sg11
g34
sg13
Nsg14
VThe first release candidate to the upcoming QEMU 2.1 was released on Tuesday...
p380
stRp381
sg19
(lp382
g1
(g2
g3
(dp383
g22
Vhttp://www.phoronix.com/vr.php?view=MTczODM
p384
sg11
g24
sg25
g26
stRp385
asg76
g77
((I2014
I7
I9
I4
I4
I0
I2
I190
I0
t(dtRp386
sg29
VThe Exciting QEMU 2.1 Is Up To Its Release Candidate Phase
p387
sg80
g380
sg81
I00
sS'title_detail'
p388
g1
(g2
g3
(dp389
g9
Vhttp://www.phoronix.com/rss.php
p390
sg11
g12
sg13
Nsg14
g387
stRp391
sg30
g384
sg86
VWed, 09 Jul 2014 00:04:00 EDT
p392
sg88
Vhttp://www.phoronix.com/vr.php?view=MTczODM
p393
stRp394
ag1
(g2
g3
(dp395
S'summary_detail'
p396
g1
(g2
g3
(dp397
g9
Vhttp://www.phoronix.com/rss.php
p398
sg11
g34
sg13
Nsg14
VIt seems all of the Manjaro Linux developers might have parted way with the distribution's development except for the project leader...
p399
stRp400
sg19
(lp401
g1
(g2
g3
(dp402
g22
Vhttp://www.phoronix.com/vr.php?view=MTczODI
p403
sg11
g24
sg25
g26
stRp404
asg76
g77
((I2014
I7
I8
I22
I56
I7
I1
I189
I0
t(dtRp405
sg29
VManjaro Linux Developers Experience A Mass Exodus [Updated]
p406
sg80
g399
sg81
I00
sS'title_detail'
p407
g1
(g2
g3
(dp408
g9
Vhttp://www.phoronix.com/rss.php
p409
sg11
g12
sg13
Nsg14
g406
stRp410
sg30
g403
sg86
VTue, 08 Jul 2014 18:56:07 EDT
p411
sg88
Vhttp://www.phoronix.com/vr.php?view=MTczODI
p412
stRp413
ag1
(g2
g3
(dp414
S'summary_detail'
p415
g1
(g2
g3
(dp416
g9
Vhttp://www.phoronix.com/rss.php
p417
sg11
g34
sg13
Nsg14
VEcma International has approved Google's Dart web programming language as the latest ECMA standard...
p418
stRp419
sg19
(lp420
g1
(g2
g3
(dp421
g22
Vhttp://www.phoronix.com/vr.php?view=MTczODA
p422
sg11
g24
sg25
g26
stRp423
asg76
g77
((I2014
I7
I8
I18
I22
I39
I1
I189
I0
t(dtRp424
sg29
VGoogle's Dart Language Approved By The ECMA
p425
sg80
g418
sg81
I00
sS'title_detail'
p426
g1
(g2
g3
(dp427
g9
Vhttp://www.phoronix.com/rss.php
p428
sg11
g12
sg13
Nsg14
g425
stRp429
sg30
g422
sg86
VTue, 08 Jul 2014 14:22:39 EDT
p430
sg88
Vhttp://www.phoronix.com/vr.php?view=MTczODA
p431
stRp432
ag1
(g2
g3
(dp433
S'summary_detail'
p434
g1
(g2
g3
(dp435
g9
Vhttp://www.phoronix.com/rss.php
p436
sg11
g34
sg13
Nsg14
VIn complementing the earlier Linux 3.16 file-system tests on an SSD (and the later Btrfs testing), here are benchmarks of EXT4, XFS, and Btrfs from the Linux 3.15 and 3.16 kernels being compared from a traditional rotating hard drive.
p437
stRp438
sg19
(lp439
g1
(g2
g3
(dp440
g22
Vhttp://www.phoronix.com/vr.php?view=20679
p441
sg11
g24
sg25
g26
stRp442
asg76
g77
((I2014
I7
I8
I16
I7
I2
I1
I189
I0
t(dtRp443
sg29
VLinux 3.16 File-System Tests On A Hard Drive
p444
sg80
g437
sg81
I00
sS'title_detail'
p445
g1
(g2
g3
(dp446
g9
Vhttp://www.phoronix.com/rss.php
p447
sg11
g12
sg13
Nsg14
g444
stRp448
sg30
g441
sg86
VTue, 08 Jul 2014 12:07:02 EDT
p449
sg88
Vhttp://www.phoronix.com/vr.php?view=20679
p450
stRp451
ag1
(g2
g3
(dp452
S'summary_detail'
p453
g1
(g2
g3
(dp454
g9
Vhttp://www.phoronix.com/rss.php
p455
sg11
g34
sg13
Nsg14
VJust shy of one month since releasing Red Hat Enterprise Linux 7.0 (and one day past CentOS 7), Red Hat has announced today their latest major software launch: Red Hat Enterprise Linux OpenStack Platform 5...
p456
stRp457
sg19
(lp458
g1
(g2
g3
(dp459
g22
Vhttp://www.phoronix.com/vr.php?view=MTczNzk
p460
sg11
g24
sg25
g26
stRp461
asg76
g77
((I2014
I7
I8
I15
I14
I2
I1
I189
I0
t(dtRp462
sg29
VRed Hat Enterprise Linux OpenStack Platform 5 Released
p463
sg80
g456
sg81
I00
sS'title_detail'
p464
g1
(g2
g3
(dp465
g9
Vhttp://www.phoronix.com/rss.php
p466
sg11
g12
sg13
Nsg14
g463
stRp467
sg30
g460
sg86
VTue, 08 Jul 2014 11:14:02 EDT
p468
sg88
Vhttp://www.phoronix.com/vr.php?view=MTczNzk
p469
stRp470
ag1
(g2
g3
(dp471
S'summary_detail'
p472
g1
(g2
g3
(dp473
g9
Vhttp://www.phoronix.com/rss.php
p474
sg11
g34
sg13
Nsg14
VThe Linux 3.16 kernel is set to debut with a fair amount of new ARM hardware / SoC enablement, which in turn will soon benefit Fedora ARM users seeing as they are likely to lock onto this new version for the Fedora 21 release...
p475
stRp476
sg19
(lp477
g1
(g2
g3
(dp478
g22
Vhttp://www.phoronix.com/vr.php?view=MTczNzc
p479
sg11
g24
sg25
g26
stRp480
asg76
g77
((I2014
I7
I8
I14
I7
I49
I1
I189
I0
t(dtRp481
sg29
VLinux 3.16 Is Looking Good For ARM Hardware Support
p482
sg80
g475
sg81
I00
sS'title_detail'
p483
g1
(g2
g3
(dp484
g9
Vhttp://www.phoronix.com/rss.php
p485
sg11
g12
sg13
Nsg14
g482
stRp486
sg30
g479
sg86
VTue, 08 Jul 2014 10:07:49 EDT
p487
sg88
Vhttp://www.phoronix.com/vr.php?view=MTczNzc
p488
stRp489
ag1
(g2
g3
(dp490
S'summary_detail'
p491
g1
(g2
g3
(dp492
g9
Vhttp://www.phoronix.com/rss.php
p493
sg11
g34
sg13
Nsg14
VDigia has happily put out the first beta today of Qt Creator 3.2...
p494
stRp495
sg19
(lp496
g1
(g2
g3
(dp497
g22
Vhttp://www.phoronix.com/vr.php?view=MTczNzg
p498
sg11
g24
sg25
g26
stRp499
asg76
g77
((I2014
I7
I8
I12
I25
I50
I1
I189
I0
t(dtRp500
sg29
VQt Creator 3.2 In Beta With Greater Stability & Improvements
p501
sg80
g494
sg81
I00
sS'title_detail'
p502
g1
(g2
g3
(dp503
g9
Vhttp://www.phoronix.com/rss.php
p504
sg11
g12
sg13
Nsg14
g501
stRp505
sg30
g498
sg86
VTue, 08 Jul 2014 08:25:50 EDT
p506
sg88
Vhttp://www.phoronix.com/vr.php?view=MTczNzg
p507
stRp508
ag1
(g2
g3
(dp509
S'summary_detail'
p510
g1
(g2
g3
(dp511
g9
Vhttp://www.phoronix.com/rss.php
p512
sg11
g34
sg13
Nsg14
VSucceeding last month's NVIDIA 340.17 Linux driver beta is now the first official release in the 340.xx driver series for Linux / Solaris / BSD. The NVIDIA 340.24 driver was released this morning with new features but is heavier on the fixing side...
p513
stRp514
sg19
(lp515
g1
(g2
g3
(dp516
g22
Vhttp://www.phoronix.com/vr.php?view=MTczNzY
p517
sg11
g24
sg25
g26
stRp518
asg76
g77
((I2014
I7
I8
I12
I0
I0
I1
I189
I0
t(dtRp519
sg29
VNVIDIA 340.24 Linux Driver Has G-SYNC Support, FXAA Control
p520
sg80
g513
sg81
I00
sS'title_detail'
p521
g1
(g2
g3
(dp522
g9
Vhttp://www.phoronix.com/rss.php
p523
sg11
g12
sg13
Nsg14
g520
stRp524
sg30
g517
sg86
VTue, 08 Jul 2014 08:00:00 EDT
p525
sg88
Vhttp://www.phoronix.com/vr.php?view=MTczNzY
p526
stRp527
ag1
(g2
g3
(dp528
S'summary_detail'
p529
g1
(g2
g3
(dp530
g9
Vhttp://www.phoronix.com/rss.php
p531
sg11
g34
sg13
Nsg14
VIt's time for another monthly development update to the Unvanquished open-source, cross-platform first person shooter...
p532
stRp533
sg19
(lp534
g1
(g2
g3
(dp535
g22
Vhttp://www.phoronix.com/vr.php?view=MTczNzU
p536
sg11
g24
sg25
g26
stRp537
asg76
g77
((I2014
I7
I8
I11
I31
I10
I1
I189
I0
t(dtRp538
sg29
VUnvanquished Alpha 29 Makes Use Of libRocket
p539
sg80
g532
sg81
I00
sS'title_detail'
p540
g1
(g2
g3
(dp541
g9
Vhttp://www.phoronix.com/rss.php
p542
sg11
g12
sg13
Nsg14
g539
stRp543
sg30
g536
sg86
VTue, 08 Jul 2014 07:31:10 EDT
p544
sg88
Vhttp://www.phoronix.com/vr.php?view=MTczNzU
p545
stRp546
ag1
(g2
g3
(dp547
S'summary_detail'
p548
g1
(g2
g3
(dp549
g9
Vhttp://www.phoronix.com/rss.php
p550
sg11
g34
sg13
Nsg14
VWhile LLVM's Clang compiler is predominantly used on Linux, OS X, and BSD systems, the Microsoft Windows support has been a focus over the past several months and is reaching an improved state for building native Windows programs with Visual C++ compatibility...
p551
stRp552
sg19
(lp553
g1
(g2
g3
(dp554
g22
Vhttp://www.phoronix.com/vr.php?view=MTczNzQ
p555
sg11
g24
sg25
g26
stRp556
asg76
g77
((I2014
I7
I8
I11
I15
I47
I1
I189
I0
t(dtRp557
sg29
VLLVM's Clang Is Working Better For Building Windows Programs
p558
sg80
g551
sg81
I00
sS'title_detail'
p559
g1
(g2
g3
(dp560
g9
Vhttp://www.phoronix.com/rss.php
p561
sg11
g12
sg13
Nsg14
g558
stRp562
sg30
g555
sg86
VTue, 08 Jul 2014 07:15:47 EDT
p563
sg88
Vhttp://www.phoronix.com/vr.php?view=MTczNzQ
p564
stRp565
ag1
(g2
g3
(dp566
S'summary_detail'
p567
g1
(g2
g3
(dp568
g9
Vhttp://www.phoronix.com/rss.php
p569
sg11
g34
sg13
Nsg14
VThe DisplayPort MST support code that's been in the works for several months is starting to land with the Linux 3.17 kernel that will be officially entering development stages next month...
p570
stRp571
sg19
(lp572
g1
(g2
g3
(dp573
g22
Vhttp://www.phoronix.com/vr.php?view=MTczNzM
p574
sg11
g24
sg25
g26
stRp575
asg76
g77
((I2014
I7
I8
I6
I16
I20
I1
I189
I0
t(dtRp576
sg29
VDisplayPort MST Code Starts Lining Up For Linux 3.17, Other DRM Changes
p577
sg80
g570
sg81
I00
sS'title_detail'
p578
g1
(g2
g3
(dp579
g9
Vhttp://www.phoronix.com/rss.php
p580
sg11
g12
sg13
Nsg14
g577
stRp581
sg30
g574
sg86
VTue, 08 Jul 2014 02:16:20 EDT
p582
sg88
Vhttp://www.phoronix.com/vr.php?view=MTczNzM
p583
stRp584
ag1
(g2
g3
(dp585
S'summary_detail'
p586
g1
(g2
g3
(dp587
g9
Vhttp://www.phoronix.com/rss.php
p588
sg11
g34
sg13
Nsg14
VX.Org Server 1.16 has been delayed. However, it's not been delayed like in some of the more notorious past releases due to outstanding bugs, etc, but over letting in a late feature to this latest revision of the X11 server...
p589
stRp590
sg19
(lp591
g1
(g2
g3
(dp592
g22
Vhttp://www.phoronix.com/vr.php?view=MTczNzI
p593
sg11
g24
sg25
g26
stRp594
asg76
g77
((I2014
I7
I8
I4
I8
I26
I1
I189
I0
t(dtRp595
sg29
VX.Org Server 1.16 Delayed To Let In Non-PCI Graphics Support
p596
sg80
g589
sg81
I00
sS'title_detail'
p597
g1
(g2
g3
(dp598
g9
Vhttp://www.phoronix.com/rss.php
p599
sg11
g12
sg13
Nsg14
g596
stRp600
sg30
g593
sg86
VTue, 08 Jul 2014 00:08:26 EDT
p601
sg88
Vhttp://www.phoronix.com/vr.php?view=MTczNzI
p602
stRp603
ag1
(g2
g3
(dp604
S'summary_detail'
p605
g1
(g2
g3
(dp606
g9
Vhttp://www.phoronix.com/rss.php
p607
sg11
g34
sg13
Nsg14
VAs a follow-up to the story from earlier about KDE Frameworks 5 being due out, the official release of KF5 ended up taking place this afternoon...
p608
stRp609
sg19
(lp610
g1
(g2
g3
(dp611
g22
Vhttp://www.phoronix.com/vr.php?view=MTczNzE
p612
sg11
g24
sg25
g26
stRp613
asg76
g77
((I2014
I7
I7
I23
I5
I48
I0
I188
I0
t(dtRp614
sg29
VKDE Frameworks 5 Has Been Officially Released
p615
sg80
g608
sg81
I00
sS'title_detail'
p616
g1
(g2
g3
(dp617
g9
Vhttp://www.phoronix.com/rss.php
p618
sg11
g12
sg13
Nsg14
g615
stRp619
sg30
g612
sg86
VMon, 07 Jul 2014 19:05:48 EDT
p620
sg88
Vhttp://www.phoronix.com/vr.php?view=MTczNzE
p621
stRp622
ag1
(g2
g3
(dp623
S'summary_detail'
p624
g1
(g2
g3
(dp625
g9
Vhttp://www.phoronix.com/rss.php
p626
sg11
g34
sg13
Nsg14
VAs a follow-up to the story about a Qualcomm DMCA notice taking down 100+ repositories of open-source code on GitHub, Qualcomm has changed course...
p627
stRp628
sg19
(lp629
g1
(g2
g3
(dp630
g22
Vhttp://www.phoronix.com/vr.php?view=MTczNzA
p631
sg11
g24
sg25
g26
stRp632
asg76
g77
((I2014
I7
I7
I20
I39
I31
I0
I188
I0
t(dtRp633
sg29
VQualcomm Retracts Its Massive DMCA Takedown Of Git Repositories
p634
sg80
g627
sg81
I00
sS'title_detail'
p635
g1
(g2
g3
(dp636
g9
Vhttp://www.phoronix.com/rss.php
p637
sg11
g12
sg13
Nsg14
g634
stRp638
sg30
g631
sg86
VMon, 07 Jul 2014 16:39:31 EDT
p639
sg88
Vhttp://www.phoronix.com/vr.php?view=MTczNzA
p640
stRp641
ag1
(g2
g3
(dp642
S'summary_detail'
p643
g1
(g2
g3
(dp644
g9
Vhttp://www.phoronix.com/rss.php
p645
sg11
g34
sg13
Nsg14
VAfter being under public QA since last month, CentOS 7 has been released as the popular community-based re-spin of Red Hat Enterprise Linux 7...
p646
stRp647
sg19
(lp648
g1
(g2
g3
(dp649
g22
Vhttp://www.phoronix.com/vr.php?view=MTczNjk
p650
sg11
g24
sg25
g26
stRp651
asg76
g77
((I2014
I7
I7
I20
I28
I26
I0
I188
I0
t(dtRp652
sg29
VCentOS 7 Release Relives RHEL7 As A Community Project
p653
sg80
g646
sg81
I00
sS'title_detail'
p654
g1
(g2
g3
(dp655
g9
Vhttp://www.phoronix.com/rss.php
p656
sg11
g12
sg13
Nsg14
g653
stRp657
sg30
g650
sg86
VMon, 07 Jul 2014 16:28:26 EDT
p658
sg88
Vhttp://www.phoronix.com/vr.php?view=MTczNjk
p659
stRp660
ag1
(g2
g3
(dp661
S'summary_detail'
p662
g1
(g2
g3
(dp663
g9
Vhttp://www.phoronix.com/rss.php
p664
sg11
g34
sg13
Nsg14
VCanonical's Mir display server for Ubuntu Linux has cleared Mir 0.4.0 for Ubuntu 14.10 "Utopic" while Mir 0.5 is immediately under development...
p665
stRp666
sg19
(lp667
g1
(g2
g3
(dp668
g22
Vhttp://www.phoronix.com/vr.php?view=MTczNjg
p669
sg11
g24
sg25
g26
stRp670
asg76
g77
((I2014
I7
I7
I17
I47
I16
I0
I188
I0
t(dtRp671
sg29
VMir 0.4 Released, Mir 0.5 Under Development
p672
sg80
g665
sg81
I00
sS'title_detail'
p673
g1
(g2
g3
(dp674
g9
Vhttp://www.phoronix.com/rss.php
p675
sg11
g12
sg13
Nsg14
g672
stRp676
sg30
g669
sg86
VMon, 07 Jul 2014 13:47:16 EDT
p677
sg88
Vhttp://www.phoronix.com/vr.php?view=MTczNjg
p678
stRp679
ag1
(g2
g3
(dp680
S'summary_detail'
p681
g1
(g2
g3
(dp682
g9
Vhttp://www.phoronix.com/rss.php
p683
sg11
g34
sg13
Nsg14
VKDE Frameworks 5 is due out tomorrow on 8 July...
p684
stRp685
sg19
(lp686
g1
(g2
g3
(dp687
g22
Vhttp://www.phoronix.com/vr.php?view=MTczNjc
p688
sg11
g24
sg25
g26
stRp689
asg76
g77
((I2014
I7
I7
I16
I39
I10
I0
I188
I0
t(dtRp690
sg29
VKDE Frameworks 5 Is Due Out Tomorrow
p691
sg80
g684
sg81
I00
sS'title_detail'
p692
g1
(g2
g3
(dp693
g9
Vhttp://www.phoronix.com/rss.php
p694
sg11
g12
sg13
Nsg14
g691
stRp695
sg30
g688
sg86
VMon, 07 Jul 2014 12:39:10 EDT
p696
sg88
Vhttp://www.phoronix.com/vr.php?view=MTczNjc
p697
stRp698
ag1
(g2
g3
(dp699
S'summary_detail'
p700
g1
(g2
g3
(dp701
g9
Vhttp://www.phoronix.com/rss.php
p702
sg11
g34
sg13
Nsg14
VLinux developers and fans of Unreal Engine 4 have started offering compiled builds of several UE4 tech demos and some simple games for 64-bit Linux...
p703
stRp704
sg19
(lp705
g1
(g2
g3
(dp706
g22
Vhttp://www.phoronix.com/vr.php?view=MTczNjY
p707
sg11
g24
sg25
g26
stRp708
asg76
g77
((I2014
I7
I7
I15
I17
I47
I0
I188
I0
t(dtRp709
sg29
VA Variety Of Unreal Engine 4 Linux Demos Are Now Available
p710
sg80
g703
sg81
I00
sS'title_detail'
p711
g1
(g2
g3
(dp712
g9
Vhttp://www.phoronix.com/rss.php
p713
sg11
g12
sg13
Nsg14
g710
stRp714
sg30
g707
sg86
VMon, 07 Jul 2014 11:17:47 EDT
p715
sg88
Vhttp://www.phoronix.com/vr.php?view=MTczNjY
p716
stRp717
ag1
(g2
g3
(dp718
S'summary_detail'
p719
g1
(g2
g3
(dp720
g9
Vhttp://www.phoronix.com/rss.php
p721
sg11
g34
sg13
Nsg14
VAt the same time as announcing Oculus Connect, a new developer conference for the popular virtual reality gaming device, Oculus has shared they have acquired RakNet and open-sourced the software...
p722
stRp723
sg19
(lp724
g1
(g2
g3
(dp725
g22
Vhttp://www.phoronix.com/vr.php?view=MTczNjU
p726
sg11
g24
sg25
g26
stRp727
asg76
g77
((I2014
I7
I7
I15
I0
I27
I0
I188
I0
t(dtRp728
sg29
VOculus Acquires RakNet Middleware & Open-Sources It
p729
sg80
g722
sg81
I00
sS'title_detail'
p730
g1
(g2
g3
(dp731
g9
Vhttp://www.phoronix.com/rss.php
p732
sg11
g12
sg13
Nsg14
g729
stRp733
sg30
g726
sg86
VMon, 07 Jul 2014 11:00:27 EDT
p734
sg88
Vhttp://www.phoronix.com/vr.php?view=MTczNjU
p735
stRp736
ag1
(g2
g3
(dp737
S'summary_detail'
p738
g1
(g2
g3
(dp739
g9
Vhttp://www.phoronix.com/rss.php
p740
sg11
g34
sg13
Nsg14
VThis weekend marked the release of Deepin 2014 as a Chinese derivative of Ubuntu 14.04 LTS featuring the new DDE 2.0 desktop. Here's some benchmarks of running some OpenGL Linux games on Deepin 2014 compared to Ubuntu 14.04 LTS when testing a few different desktop environments.
p741
stRp742
sg19
(lp743
g1
(g2
g3
(dp744
g22
Vhttp://www.phoronix.com/vr.php?view=20672
p745
sg11
g24
sg25
g26
stRp746
asg76
g77
((I2014
I7
I7
I14
I0
I0
I0
I188
I0
t(dtRp747
sg29
VBenchmarking Deepin 2014 With DDE 2.0 Using Linux Games
p748
sg80
g741
sg81
I00
sS'title_detail'
p749
g1
(g2
g3
(dp750
g9
Vhttp://www.phoronix.com/rss.php
p751
sg11
g12
sg13
Nsg14
g748
stRp752
sg30
g745
sg86
VMon, 07 Jul 2014 10:00:00 EDT
p753
sg88
Vhttp://www.phoronix.com/vr.php?view=20672
p754
stRp755
astRp756
.