ccopy_reg
_reconstructor
p1
(cfeedparser
FeedParserDict
p2
c__builtin__
dict
p3
(dp4
S'feed'
p5
g1
(g2
g3
(dp6
S'updated'
p7
VFri, 11 Jul 2014 10:10:18 +0000
p8
sS'subtitle'
p9
VFACEIT.LT - kar\u0161\u010diausios IT Naujienos, mokslo ir technologij\u0173 pasiekimai, hardware ap\u017evalgos ir testai.
p10
sS'updated_parsed'
p11
ctime
struct_time
p12
((I2014
I7
I11
I10
I10
I18
I4
I192
I0
t(dtRp13
sS'links'
p14
(lp15
g1
(g2
g3
(dp16
S'href'
p17
Vhttp://faceit.lt
p18
sS'type'
p19
Vtext/html
p20
sS'rel'
p21
Valternate
p22
stRp23
ag1
(g2
g3
(dp24
S'href'
p25
Vhttp://feeds.feedburner.com/faceit_lt
p26
sS'type'
p27
Vapplication/rss+xml
p28
sS'rel'
p29
Vself
p30
stRp31
ag1
(g2
g3
(dp32
S'href'
p33
Vhttp://pubsubhubbub.appspot.com/
p34
sg19
g20
sS'rel'
p35
Vhub
p36
stRp37
asS'feedburner_emailserviceid'
p38
Vfaceit_lt
p39
sS'generator_detail'
p40
g1
(g2
g3
(dp41
S'name'
p42
Vhttp://wordpress.org/?v=3.9.1
p43
stRp44
sS'feedburner_info'
p45
(dp46
S'uri'
p47
Vfaceit_lt
p48
ssS'link'
p49
g18
sS'feedburner_feedflare'
p50
(dp51
S'src'
p52
Vhttp://www.dailyrotation.com/rss-dr2.gif
p53
sS'href'
p54
Vhttp://www.dailyrotation.com/index.php?feed=http%3A%2F%2Ffeeds.feedburner.com%2Ffaceit_lt
p55
ssS'feedburner_feedburnerhostname'
p56
Vhttp://feedburner.google.com
p57
sS'language'
p58
Vlt-LT
p59
sS'generator'
p60
g43
sS'title'
p61
VFACEIT.LT | IT naujienos
p62
sS'subtitle_detail'
p63
g1
(g2
g3
(dp64
S'base'
p65
Vhttp://feeds.feedburner.com/faceit_lt
p66
sg19
Vtext/html
p67
sg58
NsS'value'
p68
g10
stRp69
sS'title_detail'
p70
g1
(g2
g3
(dp71
g65
Vhttp://feeds.feedburner.com/faceit_lt
p72
sg19
Vtext/plain
p73
sg58
Nsg68
g62
stRp74
sS'sy_updateperiod'
p75
Vhourly
p76
sS'sy_updatefrequency'
p77
V1
stRp78
sS'status'
p79
I200
sg7
S'Fri, 11 Jul 2014 10:11:41 GMT'
p80
sg11
g12
((I2014
I7
I11
I10
I11
I41
I4
I192
I0
t(dtRp81
sS'encoding'
p82
VUTF-8
p83
sS'bozo'
p84
I0
sS'headers'
p85
(dp86
S'alternate-protocol'
p87
S'80:quic'
p88
sS'x-xss-protection'
p89
S'1; mode=block'
p90
sS'x-content-type-options'
p91
S'nosniff'
p92
sS'content-encoding'
p93
S'gzip'
p94
sS'transfer-encoding'
p95
S'chunked'
p96
sS'expires'
p97
S'Fri, 11 Jul 2014 10:17:16 GMT'
p98
sS'server'
p99
S'GSE'
p100
sS'last-modified'
p101
g80
sS'connection'
p102
S'close'
p103
sS'etag'
p104
S'cFJUXArA0YiLxWG3hubYdgpXRbM'
p105
sS'cache-control'
p106
S'private, max-age=0'
p107
sS'date'
p108
S'Fri, 11 Jul 2014 10:17:16 GMT'
p109
sS'content-type'
p110
S'text/xml; charset=UTF-8'
p111
ssS'etag'
p112
VcFJUXArA0YiLxWG3hubYdgpXRbM
p113
sg17
Vhttp://feeds.feedburner.com/faceit_lt
p114
sS'version'
p115
Vrss20
p116
sS'entries'
p117
(lp118
g1
(g2
g3
(dp119
S'summary_detail'
p120
g1
(g2
g3
(dp121
g65
Vhttp://feeds.feedburner.com/faceit_lt
p122
sg19
g67
sg58
Nsg68
V<p><img alt="google-logo-200" class="attachment-post-thumbnail wp-post-image" height="150" src="http://faceit.lt/wp-content/uploads/2014/01/google-logo-200.jpg" width="200" /></p>Korporacija \u201eGoogle\u201c suk\u016br\u0117 rizikos kapitalo fond\u0105, kuris investuos \u012f pradedan\u010dias perspektyvias Europos technologij\u0173 kompanijas. Fonde yra 100 mln. USD. Pasak Villo Maris, \u201eGoogle Ventures\u201c vadovaujan\u010diojo partnerio, fondas \u201einvestuos \u012f geriausias [&hellip;]<div class="feedflare">\u000a<a href="http://feeds.feedburner.com/~ff/faceit_lt?a=58zu-3bNbg8:zjZtn-uGBnc:yIl2AUoC8zA"><img border="0" src="http://feeds.feedburner.com/~ff/faceit_lt?d=yIl2AUoC8zA" /></a> <a href="http://feeds.feedburner.com/~ff/faceit_lt?a=58zu-3bNbg8:zjZtn-uGBnc:qj6IDK7rITs"><img border="0" src="http://feeds.feedburner.com/~ff/faceit_lt?d=qj6IDK7rITs" /></a>\u000a</div><img height="1" src="http://feeds.feedburner.com/~r/faceit_lt/~4/58zu-3bNbg8" width="1" />
p123
stRp124
sg14
(lp125
g1
(g2
g3
(dp126
g17
Vhttp://feedproxy.google.com/~r/faceit_lt/~3/58zu-3bNbg8/
p127
sg19
g20
sg21
g22
stRp128
asS'tags'
p129
(lp130
g1
(g2
g3
(dp131
S'term'
p132
VIT VERSLAS
p133
sS'scheme'
p134
NsS'label'
p135
NstRp136
ag1
(g2
g3
(dp137
g132
Vgoogle
p138
sg134
Nsg135
NstRp139
ag1
(g2
g3
(dp140
g132
VGoogle Ventures
p141
sg134
Nsg135
NstRp142
asS'feedburner_origlink'
p143
Vhttp://faceit.lt/2014/07/google-investuos-i-europos-technologiju-startuolius/
p144
sg49
g127
sS'authors'
p145
(lp146
g1
(g2
g3
(dtRp147
asS'id'
p148
Vhttp://faceit.lt/?p=59757
p149
sS'author_detail'
p150
g1
(g2
g3
(dp151
g42
VFACEIT Team
p152
stRp153
sS'wfw_commentrss'
p154
Vhttp://faceit.lt/2014/07/google-investuos-i-europos-technologiju-startuolius/feed/
p155
sS'slash_comments'
p156
V0
sS'published_parsed'
p157
g12
((I2014
I7
I11
I9
I50
I22
I4
I192
I0
t(dtRp158
sg61
VGoogle investuos \u012f Europos technologij\u0173 startuolius
p159
sS'author'
p160
g152
sS'comments'
p161
Vhttp://faceit.lt/2014/07/google-investuos-i-europos-technologiju-startuolius/#comments
p162
sS'summary'
p163
g123
sS'guidislink'
p164
I00
sS'title_detail'
p165
g1
(g2
g3
(dp166
g65
Vhttp://feeds.feedburner.com/faceit_lt
p167
sg19
g73
sg58
Nsg68
g159
stRp168
sS'published'
p169
VFri, 11 Jul 2014 09:50:22 +0000
p170
stRp171
ag1
(g2
g3
(dp172
S'summary_detail'
p173
g1
(g2
g3
(dp174
g65
Vhttp://feeds.feedburner.com/faceit_lt
p175
sg19
g67
sg58
Nsg68
V<p><img alt="moto_g_200" class="attachment-post-thumbnail wp-post-image" height="150" src="http://faceit.lt/wp-content/uploads/2013/12/moto_g_200.jpg" width="200" /></p>Motorola Mobility, kuri\u0105 Google pardav\u0117 kin\u0173 kompanijai Lenovo, pralaim\u0117jo teismin\u012f proces\u0105 prie\u0161 vokie\u010di\u0173 kompanij\u0105 \u201eLPKF Laser &amp; Electronics AG\u201c, prane\u0161a puslapis Techno Buffalo. Vokie\u010diai apkaltino Motorola patento pa\u017eeidimu, kuris apra\u0161o [&hellip;]<div class="feedflare">\u000a<a href="http://feeds.feedburner.com/~ff/faceit_lt?a=76z7yuqMdDY:iDAA_Qk3Asc:yIl2AUoC8zA"><img border="0" src="http://feeds.feedburner.com/~ff/faceit_lt?d=yIl2AUoC8zA" /></a> <a href="http://feeds.feedburner.com/~ff/faceit_lt?a=76z7yuqMdDY:iDAA_Qk3Asc:qj6IDK7rITs"><img border="0" src="http://feeds.feedburner.com/~ff/faceit_lt?d=qj6IDK7rITs" /></a>\u000a</div><img height="1" src="http://feeds.feedburner.com/~r/faceit_lt/~4/76z7yuqMdDY" width="1" />
p176
stRp177
sg14
(lp178
g1
(g2
g3
(dp179
g17
Vhttp://feedproxy.google.com/~r/faceit_lt/~3/76z7yuqMdDY/
p180
sg19
g20
sg21
g22
stRp181
asg129
(lp182
g1
(g2
g3
(dp183
g132
VIT VERSLAS
p184
sg134
Nsg135
NstRp185
ag1
(g2
g3
(dp186
g132
Vmotorola
p187
sg134
Nsg135
NstRp188
ag1
(g2
g3
(dp189
g132
Vteismai
p190
sg134
Nsg135
NstRp191
ag1
(g2
g3
(dp192
g132
VVokietija
p193
sg134
Nsg135
NstRp194
asS'feedburner_origlink'
p195
Vhttp://faceit.lt/2014/07/vokietijoje-uzdrausta-prekiauti-motorola-telefonais-moto-x-ir-moto-g/
p196
sg49
g180
sg145
(lp197
g1
(g2
g3
(dtRp198
asg148
Vhttp://faceit.lt/?p=59751
p199
sS'author_detail'
p200
g1
(g2
g3
(dp201
g42
VFACEIT Team
p202
stRp203
sS'wfw_commentrss'
p204
Vhttp://faceit.lt/2014/07/vokietijoje-uzdrausta-prekiauti-motorola-telefonais-moto-x-ir-moto-g/feed/
p205
sS'slash_comments'
p206
V0
sg157
g12
((I2014
I7
I11
I9
I30
I25
I4
I192
I0
t(dtRp207
sg61
VVokietijoje u\u017edrausta prekiauti Motorola telefonais Moto X ir Moto G
p208
sg160
g202
sS'comments'
p209
Vhttp://faceit.lt/2014/07/vokietijoje-uzdrausta-prekiauti-motorola-telefonais-moto-x-ir-moto-g/#comments
p210
sg163
g176
sg164
I00
sS'title_detail'
p211
g1
(g2
g3
(dp212
g65
Vhttp://feeds.feedburner.com/faceit_lt
p213
sg19
g73
sg58
Nsg68
g208
stRp214
sg169
VFri, 11 Jul 2014 09:30:25 +0000
p215
stRp216
ag1
(g2
g3
(dp217
S'summary_detail'
p218
g1
(g2
g3
(dp219
g65
Vhttp://feeds.feedburner.com/faceit_lt
p220
sg19
g67
sg58
Nsg68
V<p><img alt="auo-smartphone-amoled-200" class="attachment-post-thumbnail wp-post-image" height="150" src="http://faceit.lt/wp-content/uploads/2014/04/auo-smartphone-amoled-200.jpg" width="200" /></p>Park Dong-geun, kompanijos Samsung Display (pastaroji yra dukterin\u0117 Samsung firma) generalinis direktorius, parei\u0161k\u0117, kad kor\u0117jie\u010di\u0173 gamintojas turi tam tikr\u0173 problem\u0173 su AMOLED ekran\u0173 pardavimu tre\u010dioms \u0161alims, ra\u0161o puslapis CNET. Vieninteliu [&hellip;]<div class="feedflare">\u000a<a href="http://feeds.feedburner.com/~ff/faceit_lt?a=5aY0qKmWFGc:j-dS2AAoW3Q:yIl2AUoC8zA"><img border="0" src="http://feeds.feedburner.com/~ff/faceit_lt?d=yIl2AUoC8zA" /></a> <a href="http://feeds.feedburner.com/~ff/faceit_lt?a=5aY0qKmWFGc:j-dS2AAoW3Q:qj6IDK7rITs"><img border="0" src="http://feeds.feedburner.com/~ff/faceit_lt?d=qj6IDK7rITs" /></a>\u000a</div><img height="1" src="http://feeds.feedburner.com/~r/faceit_lt/~4/5aY0qKmWFGc" width="1" />
p221
stRp222
sg14
(lp223
g1
(g2
g3
(dp224
g17
Vhttp://feedproxy.google.com/~r/faceit_lt/~3/5aY0qKmWFGc/
p225
sg19
g20
sg21
g22
stRp226
asg129
(lp227
g1
(g2
g3
(dp228
g132
VHARDWARE
p229
sg134
Nsg135
NstRp230
ag1
(g2
g3
(dp231
g132
VTelefonai
p232
sg134
Nsg135
NstRp233
ag1
(g2
g3
(dp234
g132
Vamoled
p235
sg134
Nsg135
NstRp236
ag1
(g2
g3
(dp237
g132
VSamsung Display
p238
sg134
Nsg135
NstRp239
asS'feedburner_origlink'
p240
Vhttp://faceit.lt/2014/07/pazangiausius-ekranus-samsung-perka-pati-is-saves/
p241
sg49
g225
sg145
(lp242
g1
(g2
g3
(dtRp243
asg148
Vhttp://faceit.lt/?p=59749
p244
sS'author_detail'
p245
g1
(g2
g3
(dp246
g42
VFACEIT Team
p247
stRp248
sS'wfw_commentrss'
p249
Vhttp://faceit.lt/2014/07/pazangiausius-ekranus-samsung-perka-pati-is-saves/feed/
p250
sS'slash_comments'
p251
V0
sg157
g12
((I2014
I7
I11
I9
I10
I9
I4
I192
I0
t(dtRp252
sg61
VPa\u017eangiausius ekranus Samsung perka pati i\u0161 sav\u0119s
p253
sg160
g247
sS'comments'
p254
Vhttp://faceit.lt/2014/07/pazangiausius-ekranus-samsung-perka-pati-is-saves/#comments
p255
sg163
g221
sg164
I00
sS'title_detail'
p256
g1
(g2
g3
(dp257
g65
Vhttp://feeds.feedburner.com/faceit_lt
p258
sg19
g73
sg58
Nsg68
g253
stRp259
sg169
VFri, 11 Jul 2014 09:10:09 +0000
p260
stRp261
ag1
(g2
g3
(dp262
S'summary_detail'
p263
g1
(g2
g3
(dp264
g65
Vhttp://feeds.feedburner.com/faceit_lt
p265
sg19
g67
sg58
Nsg68
V<p><img alt="flexible-oled-200" class="attachment-post-thumbnail wp-post-image" height="150" src="http://faceit.lt/wp-content/uploads/2014/07/flexible-oled-200.jpg" width="200" /></p>Lanks\u010di\u0173 OLED ekran\u0173 k\u016brimo metu kaip pagrindas paprastai naudojamas plastikas, kuris ir leid\u017eia ekranui suteikti norim\u0105 form\u0105. Kompanija LG Display nusprend\u0117 plastik\u0105 pakeisti poliamido pl\u0117vele, o tai leido suteikti dar [&hellip;]<div class="feedflare">\u000a<a href="http://feeds.feedburner.com/~ff/faceit_lt?a=pQp8NA55I04:OnqDD04iOV4:yIl2AUoC8zA"><img border="0" src="http://feeds.feedburner.com/~ff/faceit_lt?d=yIl2AUoC8zA" /></a> <a href="http://feeds.feedburner.com/~ff/faceit_lt?a=pQp8NA55I04:OnqDD04iOV4:qj6IDK7rITs"><img border="0" src="http://feeds.feedburner.com/~ff/faceit_lt?d=qj6IDK7rITs" /></a>\u000a</div><img height="1" src="http://feeds.feedburner.com/~r/faceit_lt/~4/pQp8NA55I04" width="1" />
p266
stRp267
sg14
(lp268
g1
(g2
g3
(dp269
g17
Vhttp://feedproxy.google.com/~r/faceit_lt/~3/pQp8NA55I04/
p270
sg19
g20
sg21
g22
stRp271
asg129
(lp272
g1
(g2
g3
(dp273
g132
VHARDWARE
p274
sg134
Nsg135
NstRp275
ag1
(g2
g3
(dp276
g132
VPeriferija
p277
sg134
Nsg135
NstRp278
ag1
(g2
g3
(dp279
g132
VLG Display
p280
sg134
Nsg135
NstRp281
ag1
(g2
g3
(dp282
g132
Voled
p283
sg134
Nsg135
NstRp284
asS'feedburner_origlink'
p285
Vhttp://faceit.lt/2014/07/lg-display-parode-i-vamzdeli-susisukanti-oled-ekrana/
p286
sg49
g270
sg145
(lp287
g1
(g2
g3
(dtRp288
asg148
Vhttp://faceit.lt/?p=59745
p289
sS'author_detail'
p290
g1
(g2
g3
(dp291
g42
VFACEIT Team
p292
stRp293
sS'wfw_commentrss'
p294
Vhttp://faceit.lt/2014/07/lg-display-parode-i-vamzdeli-susisukanti-oled-ekrana/feed/
p295
sS'slash_comments'
p296
V0
sg157
g12
((I2014
I7
I11
I8
I50
I21
I4
I192
I0
t(dtRp297
sg61
VLG Display parod\u0117 \u012f vamzdel\u012f susisukant\u012f OLED ekran\u0105
p298
sg160
g292
sS'comments'
p299
Vhttp://faceit.lt/2014/07/lg-display-parode-i-vamzdeli-susisukanti-oled-ekrana/#comments
p300
sg163
g266
sg164
I00
sS'title_detail'
p301
g1
(g2
g3
(dp302
g65
Vhttp://feeds.feedburner.com/faceit_lt
p303
sg19
g73
sg58
Nsg68
g298
stRp304
sg169
VFri, 11 Jul 2014 08:50:21 +0000
p305
stRp306
ag1
(g2
g3
(dp307
S'summary_detail'
p308
g1
(g2
g3
(dp309
g65
Vhttp://feeds.feedburner.com/faceit_lt
p310
sg19
g67
sg58
Nsg68
V<p><img alt="Gear-VR-logo-200" class="attachment-post-thumbnail wp-post-image" height="150" src="http://faceit.lt/wp-content/uploads/2014/07/Gear-VR-logo-200.jpg" width="200" /></p>Gandai jau anks\u010diau teig\u0117, jog kompanija Samsung darbuojasi prie papildytos realyb\u0117s \u0161almo, kuris \u0161iuo metu turi kodin\u012f pavadinim\u0105 Gear VR. Jei tik\u0117ti informuotais \u0161altiniais, \u0161almo gamyba jau prad\u0117ta, o debiutas [&hellip;]<div class="feedflare">\u000a<a href="http://feeds.feedburner.com/~ff/faceit_lt?a=fPKeqtxXfoo:dSYUvjnvlLY:yIl2AUoC8zA"><img border="0" src="http://feeds.feedburner.com/~ff/faceit_lt?d=yIl2AUoC8zA" /></a> <a href="http://feeds.feedburner.com/~ff/faceit_lt?a=fPKeqtxXfoo:dSYUvjnvlLY:qj6IDK7rITs"><img border="0" src="http://feeds.feedburner.com/~ff/faceit_lt?d=qj6IDK7rITs" /></a>\u000a</div><img height="1" src="http://feeds.feedburner.com/~r/faceit_lt/~4/fPKeqtxXfoo" width="1" />
p311
stRp312
sg14
(lp313
g1
(g2
g3
(dp314
g17
Vhttp://feedproxy.google.com/~r/faceit_lt/~3/fPKeqtxXfoo/
p315
sg19
g20
sg21
g22
stRp316
asg129
(lp317
g1
(g2
g3
(dp318
g132
VHARDWARE
p319
sg134
Nsg135
NstRp320
ag1
(g2
g3
(dp321
g132
VPeriferija
p322
sg134
Nsg135
NstRp323
ag1
(g2
g3
(dp324
g132
VGear VR
p325
sg134
Nsg135
NstRp326
asS'feedburner_origlink'
p327
Vhttp://faceit.lt/2014/07/kartu-su-galaxy-note-4-debiutuos-papildytos-realybes-salmas/
p328
sg49
g315
sg145
(lp329
g1
(g2
g3
(dtRp330
asg148
Vhttp://faceit.lt/?p=59742
p331
sS'author_detail'
p332
g1
(g2
g3
(dp333
g42
VFACEIT Team
p334
stRp335
sS'wfw_commentrss'
p336
Vhttp://faceit.lt/2014/07/kartu-su-galaxy-note-4-debiutuos-papildytos-realybes-salmas/feed/
p337
sS'slash_comments'
p338
V0
sg157
g12
((I2014
I7
I11
I8
I30
I21
I4
I192
I0
t(dtRp339
sg61
VKartu su Galaxy Note 4 debiutuos papildytos realyb\u0117s \u0161almas
p340
sg160
g334
sS'comments'
p341
Vhttp://faceit.lt/2014/07/kartu-su-galaxy-note-4-debiutuos-papildytos-realybes-salmas/#comments
p342
sg163
g311
sg164
I00
sS'title_detail'
p343
g1
(g2
g3
(dp344
g65
Vhttp://feeds.feedburner.com/faceit_lt
p345
sg19
g73
sg58
Nsg68
g340
stRp346
sg169
VFri, 11 Jul 2014 08:30:21 +0000
p347
stRp348
ag1
(g2
g3
(dp349
S'summary_detail'
p350
g1
(g2
g3
(dp351
g65
Vhttp://feeds.feedburner.com/faceit_lt
p352
sg19
g67
sg58
Nsg68
V<p><img alt="risen3-titan-lords-200" class="attachment-post-thumbnail wp-post-image" height="150" src="http://faceit.lt/wp-content/uploads/2014/07/risen3-titan-lords-200.jpg" width="200" /></p>\u017daidimo Risen 3: Titan Lords puslapyje, esan\u010diame el. distribucijos sistemoje Steam, buvo paskelbti sisteminiai reikalavimai. Pastarieji, kaip matyti i\u0161 \u017eemiau pateikto s\u0105ra\u0161o, n\u0117ra jau tokie grie\u017eti \u2013 bus galima \u017eaisti [&hellip;]<div class="feedflare">\u000a<a href="http://feeds.feedburner.com/~ff/faceit_lt?a=7yWLWYASIx0:Y2Gg0rwVS_g:yIl2AUoC8zA"><img border="0" src="http://feeds.feedburner.com/~ff/faceit_lt?d=yIl2AUoC8zA" /></a> <a href="http://feeds.feedburner.com/~ff/faceit_lt?a=7yWLWYASIx0:Y2Gg0rwVS_g:qj6IDK7rITs"><img border="0" src="http://feeds.feedburner.com/~ff/faceit_lt?d=qj6IDK7rITs" /></a>\u000a</div><img height="1" src="http://feeds.feedburner.com/~r/faceit_lt/~4/7yWLWYASIx0" width="1" />
p353
stRp354
sg14
(lp355
g1
(g2
g3
(dp356
g17
Vhttp://feedproxy.google.com/~r/faceit_lt/~3/7yWLWYASIx0/
p357
sg19
g20
sg21
g22
stRp358
asg129
(lp359
g1
(g2
g3
(dp360
g132
V\u017dAIDIMAI / PRAMOGOS
p361
sg134
Nsg135
NstRp362
ag1
(g2
g3
(dp363
g132
VRisen 3: Titan Lords
p364
sg134
Nsg135
NstRp365
asS'feedburner_origlink'
p366
Vhttp://faceit.lt/2014/07/risen-3-titan-lords-sisteminiai-reikalavimai/
p367
sg49
g357
sg145
(lp368
g1
(g2
g3
(dtRp369
asg148
Vhttp://faceit.lt/?p=59740
p370
sS'author_detail'
p371
g1
(g2
g3
(dp372
g42
VFACEIT Team
p373
stRp374
sS'wfw_commentrss'
p375
Vhttp://faceit.lt/2014/07/risen-3-titan-lords-sisteminiai-reikalavimai/feed/
p376
sS'slash_comments'
p377
V0
sg157
g12
((I2014
I7
I11
I8
I10
I39
I4
I192
I0
t(dtRp378
sg61
VRisen 3: Titan Lords sisteminiai reikalavimai
p379
sg160
g373
sS'comments'
p380
Vhttp://faceit.lt/2014/07/risen-3-titan-lords-sisteminiai-reikalavimai/#comments
p381
sg163
g353
sg164
I00
sS'title_detail'
p382
g1
(g2
g3
(dp383
g65
Vhttp://feeds.feedburner.com/faceit_lt
p384
sg19
g73
sg58
Nsg68
g379
stRp385
sg169
VFri, 11 Jul 2014 08:10:39 +0000
p386
stRp387
ag1
(g2
g3
(dp388
S'summary_detail'
p389
g1
(g2
g3
(dp390
g65
Vhttp://feeds.feedburner.com/faceit_lt
p391
sg19
g67
sg58
Nsg68
V<p><img alt="fortnite-200" class="attachment-post-thumbnail wp-post-image" height="150" src="http://faceit.lt/wp-content/uploads/2014/07/fortnite-200.jpg" width="200" /></p>Kompanija Epic Games i\u0161platino nauj\u0105 \u017eaidimo Fortnite vaizdo klip\u0105, kuriame k\u016br\u0117jai demonstruoja \u012ftvirtinim\u0173 gynimo nuo monstr\u0173 ypatumus. \u017daidimas kuriamas Unreal Engine 4 varikliuko pagrindu, jo k\u016brime dalyvauja kaimynin\u0117je Lenkijoje esanti [&hellip;]<div class="feedflare">\u000a<a href="http://feeds.feedburner.com/~ff/faceit_lt?a=1eL6fWcA-ow:7eH-v-UNu0w:yIl2AUoC8zA"><img border="0" src="http://feeds.feedburner.com/~ff/faceit_lt?d=yIl2AUoC8zA" /></a> <a href="http://feeds.feedburner.com/~ff/faceit_lt?a=1eL6fWcA-ow:7eH-v-UNu0w:qj6IDK7rITs"><img border="0" src="http://feeds.feedburner.com/~ff/faceit_lt?d=qj6IDK7rITs" /></a>\u000a</div><img height="1" src="http://feeds.feedburner.com/~r/faceit_lt/~4/1eL6fWcA-ow" width="1" />
p392
stRp393
sg14
(lp394
g1
(g2
g3
(dp395
g17
Vhttp://feedproxy.google.com/~r/faceit_lt/~3/1eL6fWcA-ow/
p396
sg19
g20
sg21
g22
stRp397
asg129
(lp398
g1
(g2
g3
(dp399
g132
V\u017dAIDIMAI / PRAMOGOS
p400
sg134
Nsg135
NstRp401
ag1
(g2
g3
(dp402
g132
VEpic Games
p403
sg134
Nsg135
NstRp404
ag1
(g2
g3
(dp405
g132
VFortnite
p406
sg134
Nsg135
NstRp407
asS'feedburner_origlink'
p408
Vhttp://faceit.lt/2014/07/fortnite-itvirtinimu-gynyba-naujame-vaizdo-klipe/
p409
sg49
g396
sg145
(lp410
g1
(g2
g3
(dtRp411
asg148
Vhttp://faceit.lt/?p=59737
p412
sS'author_detail'
p413
g1
(g2
g3
(dp414
g42
VFACEIT Team
p415
stRp416
sS'wfw_commentrss'
p417
Vhttp://faceit.lt/2014/07/fortnite-itvirtinimu-gynyba-naujame-vaizdo-klipe/feed/
p418
sS'slash_comments'
p419
V0
sg157
g12
((I2014
I7
I11
I7
I50
I27
I4
I192
I0
t(dtRp420
sg61
VFortnite \u012ftvirtinim\u0173 gynyba naujame vaizdo klipe
p421
sg160
g415
sS'comments'
p422
Vhttp://faceit.lt/2014/07/fortnite-itvirtinimu-gynyba-naujame-vaizdo-klipe/#comments
p423
sg163
g392
sg164
I00
sS'title_detail'
p424
g1
(g2
g3
(dp425
g65
Vhttp://feeds.feedburner.com/faceit_lt
p426
sg19
g73
sg58
Nsg68
g421
stRp427
sg169
VFri, 11 Jul 2014 07:50:27 +0000
p428
stRp429
ag1
(g2
g3
(dp430
S'summary_detail'
p431
g1
(g2
g3
(dp432
g65
Vhttp://feeds.feedburner.com/faceit_lt
p433
sg19
g67
sg58
Nsg68
V<p><img alt="amd-mantle-200" class="attachment-post-thumbnail wp-post-image" height="150" src="http://faceit.lt/wp-content/uploads/2014/06/amd-mantle-200.jpg" width="200" /></p>Vokie\u010di\u0173 puslapis Videocardz, remdamasis savais \u0161altiniais, prane\u0161\u0117, kad prie\u0161 m\u0117nes\u012f anonsuota Grand Theft Auto V (PC) versija gali gauti daug \u017eadan\u010dios, ta\u010diau ma\u017eai kur palaikomos AMD technologijos Mantle palaikym\u0105. I\u0161 [&hellip;]<div class="feedflare">\u000a<a href="http://feeds.feedburner.com/~ff/faceit_lt?a=nPRb2Bdr67E:RXbcJ3Nc8rQ:yIl2AUoC8zA"><img border="0" src="http://feeds.feedburner.com/~ff/faceit_lt?d=yIl2AUoC8zA" /></a> <a href="http://feeds.feedburner.com/~ff/faceit_lt?a=nPRb2Bdr67E:RXbcJ3Nc8rQ:qj6IDK7rITs"><img border="0" src="http://feeds.feedburner.com/~ff/faceit_lt?d=qj6IDK7rITs" /></a>\u000a</div><img height="1" src="http://feeds.feedburner.com/~r/faceit_lt/~4/nPRb2Bdr67E" width="1" />
p434
stRp435
sg14
(lp436
g1
(g2
g3
(dp437
g17
Vhttp://feedproxy.google.com/~r/faceit_lt/~3/nPRb2Bdr67E/
p438
sg19
g20
sg21
g22
stRp439
asg129
(lp440
g1
(g2
g3
(dp441
g132
V\u017dAIDIMAI / PRAMOGOS
p442
sg134
Nsg135
NstRp443
ag1
(g2
g3
(dp444
g132
VMantle
p445
sg134
Nsg135
NstRp446
asS'feedburner_origlink'
p447
Vhttp://faceit.lt/2014/07/amd-mantle-technologija-palaikys-gta-v-ir-cod-advanced-warfare/
p448
sg49
g438
sg145
(lp449
g1
(g2
g3
(dtRp450
asg148
Vhttp://faceit.lt/?p=59735
p451
sS'author_detail'
p452
g1
(g2
g3
(dp453
g42
VFACEIT Team
p454
stRp455
sS'wfw_commentrss'
p456
Vhttp://faceit.lt/2014/07/amd-mantle-technologija-palaikys-gta-v-ir-cod-advanced-warfare/feed/
p457
sS'slash_comments'
p458
V1
sg157
g12
((I2014
I7
I11
I7
I30
I49
I4
I192
I0
t(dtRp459
sg61
VAMD Mantle technologij\u0105 palaikys GTA V ir CoD: Advanced Warfare
p460
sg160
g454
sS'comments'
p461
Vhttp://faceit.lt/2014/07/amd-mantle-technologija-palaikys-gta-v-ir-cod-advanced-warfare/#comments
p462
sg163
g434
sg164
I00
sS'title_detail'
p463
g1
(g2
g3
(dp464
g65
Vhttp://feeds.feedburner.com/faceit_lt
p465
sg19
g73
sg58
Nsg68
g460
stRp466
sg169
VFri, 11 Jul 2014 07:30:49 +0000
p467
stRp468
ag1
(g2
g3
(dp469
S'summary_detail'
p470
g1
(g2
g3
(dp471
g65
Vhttp://feeds.feedburner.com/faceit_lt
p472
sg19
g67
sg58
Nsg68
V<p><img alt="DriveClub-200" class="attachment-post-thumbnail wp-post-image" height="150" src="http://faceit.lt/wp-content/uploads/2014/07/DriveClub-200.jpg" width="200" /></p>\u0160iandien\u0105 \u017eaidim\u0173 naujienose: Microsoft t\u0119sia agitacijas kurstan\u010dias Xbox 360 konsoles pakeisti \u012f Xbox One; DriveClub sulauks specialaus Sony PlayStation 4 konsol\u0117s leidimo; \u012e internet\u0105 nutek\u0117jo pirmieji The Last of Us: [&hellip;]<div class="feedflare">\u000a<a href="http://feeds.feedburner.com/~ff/faceit_lt?a=TkqMXVKtNVI:O9O32nAfr3k:yIl2AUoC8zA"><img border="0" src="http://feeds.feedburner.com/~ff/faceit_lt?d=yIl2AUoC8zA" /></a> <a href="http://feeds.feedburner.com/~ff/faceit_lt?a=TkqMXVKtNVI:O9O32nAfr3k:qj6IDK7rITs"><img border="0" src="http://feeds.feedburner.com/~ff/faceit_lt?d=qj6IDK7rITs" /></a>\u000a</div><img height="1" src="http://feeds.feedburner.com/~r/faceit_lt/~4/TkqMXVKtNVI" width="1" />
p473
stRp474
sg14
(lp475
g1
(g2
g3
(dp476
g17
Vhttp://feedproxy.google.com/~r/faceit_lt/~3/TkqMXVKtNVI/
p477
sg19
g20
sg21
g22
stRp478
asg129
(lp479
g1
(g2
g3
(dp480
g132
V\u017dAIDIMAI / PRAMOGOS
p481
sg134
Nsg135
NstRp482
ag1
(g2
g3
(dp483
g132
V\u017daidim\u0173 balsas
p484
sg134
Nsg135
NstRp485
asS'feedburner_origlink'
p486
Vhttp://faceit.lt/2014/07/zaidimu-naujienos-2014-07-11/
p487
sg49
g477
sg145
(lp488
g1
(g2
g3
(dtRp489
asg148
Vhttp://faceit.lt/?p=59755
p490
sS'author_detail'
p491
g1
(g2
g3
(dp492
g42
VFACEIT Team
p493
stRp494
sS'wfw_commentrss'
p495
Vhttp://faceit.lt/2014/07/zaidimu-naujienos-2014-07-11/feed/
p496
sS'slash_comments'
p497
V0
sg157
g12
((I2014
I7
I11
I7
I15
I15
I4
I192
I0
t(dtRp498
sg61
V\u201c\u017daidim\u0173 balsas\u201d: \u017eaidim\u0173 naujienos 2014.07.11
p499
sg160
g493
sS'comments'
p500
Vhttp://faceit.lt/2014/07/zaidimu-naujienos-2014-07-11/#comments
p501
sg163
g473
sg164
I00
sS'title_detail'
p502
g1
(g2
g3
(dp503
g65
Vhttp://feeds.feedburner.com/faceit_lt
p504
sg19
g73
sg58
Nsg68
g499
stRp505
sg169
VFri, 11 Jul 2014 07:15:15 +0000
p506
stRp507
ag1
(g2
g3
(dp508
S'summary_detail'
p509
g1
(g2
g3
(dp510
g65
Vhttp://feeds.feedburner.com/faceit_lt
p511
sg19
g67
sg58
Nsg68
V<p><img alt="Skullgirls-200" class="attachment-post-thumbnail wp-post-image" height="150" src="http://faceit.lt/wp-content/uploads/2014/07/Skullgirls-200.jpg" width="200" /></p>Piratauti yra blogai, ta\u010diau ne visi tai supranta. Kai k\u016br\u0117jai i\u0161leid\u017eia vien\u0105 ar kit\u0105 \u017eaidim\u0105, jie puikiai supranta, jog vieni vartotojai juos nupirks, kiti \u2013 atsisi\u0173s piratines kopijas i\u0161 torrent\u2018\u0173 [&hellip;]<div class="feedflare">\u000a<a href="http://feeds.feedburner.com/~ff/faceit_lt?a=DxJFOa59t-Y:4ZpauLCs6-Q:yIl2AUoC8zA"><img border="0" src="http://feeds.feedburner.com/~ff/faceit_lt?d=yIl2AUoC8zA" /></a> <a href="http://feeds.feedburner.com/~ff/faceit_lt?a=DxJFOa59t-Y:4ZpauLCs6-Q:qj6IDK7rITs"><img border="0" src="http://feeds.feedburner.com/~ff/faceit_lt?d=qj6IDK7rITs" /></a>\u000a</div><img height="1" src="http://feeds.feedburner.com/~r/faceit_lt/~4/DxJFOa59t-Y" width="1" />
p512
stRp513
sg14
(lp514
g1
(g2
g3
(dp515
g17
Vhttp://feedproxy.google.com/~r/faceit_lt/~3/DxJFOa59t-Y/
p516
sg19
g20
sg21
g22
stRp517
asg129
(lp518
g1
(g2
g3
(dp519
g132
V\u017dAIDIMAI / PRAMOGOS
p520
sg134
Nsg135
NstRp521
ag1
(g2
g3
(dp522
g132
VSkullgirls
p523
sg134
Nsg135
NstRp524
asS'feedburner_origlink'
p525
Vhttp://faceit.lt/2014/07/zaidejas-pats-prisipazino-kurejams-kad-atsisiunte-piratine-zaidimo-kopija/
p526
sg49
g516
sg145
(lp527
g1
(g2
g3
(dtRp528
asg148
Vhttp://faceit.lt/?p=59731
p529
sS'author_detail'
p530
g1
(g2
g3
(dp531
g42
VFACEIT Team
p532
stRp533
sS'wfw_commentrss'
p534
Vhttp://faceit.lt/2014/07/zaidejas-pats-prisipazino-kurejams-kad-atsisiunte-piratine-zaidimo-kopija/feed/
p535
sS'slash_comments'
p536
V0
sg157
g12
((I2014
I7
I11
I7
I10
I52
I4
I192
I0
t(dtRp537
sg61
V\u017daid\u0117jas nety\u010dia prisipa\u017eino k\u016br\u0117jams, kad atsisiunt\u0117 piratin\u0119 \u017eaidimo kopij\u0105
p538
sg160
g532
sS'comments'
p539
Vhttp://faceit.lt/2014/07/zaidejas-pats-prisipazino-kurejams-kad-atsisiunte-piratine-zaidimo-kopija/#comments
p540
sg163
g512
sg164
I00
sS'title_detail'
p541
g1
(g2
g3
(dp542
g65
Vhttp://feeds.feedburner.com/faceit_lt
p543
sg19
g73
sg58
Nsg68
g538
stRp544
sg169
VFri, 11 Jul 2014 07:10:52 +0000
p545
stRp546
ag1
(g2
g3
(dp547
S'summary_detail'
p548
g1
(g2
g3
(dp549
g65
Vhttp://feeds.feedburner.com/faceit_lt
p550
sg19
g67
sg58
Nsg68
V<p><img alt="tango_pc-200" class="attachment-post-thumbnail wp-post-image" height="150" src="http://faceit.lt/wp-content/uploads/2014/07/tango_pc-200.jpg" width="200" /></p>Tango PC \u2013 tai stacionarus kompiuteris, kurio matmenys prilygsta \u0161iuolaikiniam i\u0161maniajam telefonui. Projekto autoriai per puslap\u012f IndieGoGo jau surinko daugiau nei $300 000 kompiuterio k\u016brimui, tuo tarpu gamybai reikiami $100 [&hellip;]<div class="feedflare">\u000a<a href="http://feeds.feedburner.com/~ff/faceit_lt?a=SgBbfkg86EA:KdAFc9dTOHA:yIl2AUoC8zA"><img border="0" src="http://feeds.feedburner.com/~ff/faceit_lt?d=yIl2AUoC8zA" /></a> <a href="http://feeds.feedburner.com/~ff/faceit_lt?a=SgBbfkg86EA:KdAFc9dTOHA:qj6IDK7rITs"><img border="0" src="http://feeds.feedburner.com/~ff/faceit_lt?d=qj6IDK7rITs" /></a>\u000a</div><img height="1" src="http://feeds.feedburner.com/~r/faceit_lt/~4/SgBbfkg86EA" width="1" />
p551
stRp552
sg14
(lp553
g1
(g2
g3
(dp554
g17
Vhttp://feedproxy.google.com/~r/faceit_lt/~3/SgBbfkg86EA/
p555
sg19
g20
sg21
g22
stRp556
asg129
(lp557
g1
(g2
g3
(dp558
g132
VHARDWARE
p559
sg134
Nsg135
NstRp560
ag1
(g2
g3
(dp561
g132
VKompiuteriai
p562
sg134
Nsg135
NstRp563
ag1
(g2
g3
(dp564
g132
VTango PC
p565
sg134
Nsg135
NstRp566
asS'feedburner_origlink'
p567
Vhttp://faceit.lt/2014/07/tango-pc-ismaniojo-telefono-dydzio-stacionarus-kompiuteris/
p568
sg49
g555
sg145
(lp569
g1
(g2
g3
(dtRp570
asg148
Vhttp://faceit.lt/?p=59729
p571
sS'author_detail'
p572
g1
(g2
g3
(dp573
g42
VFACEIT Team
p574
stRp575
sS'wfw_commentrss'
p576
Vhttp://faceit.lt/2014/07/tango-pc-ismaniojo-telefono-dydzio-stacionarus-kompiuteris/feed/
p577
sS'slash_comments'
p578
V0
sg157
g12
((I2014
I7
I11
I6
I50
I14
I4
I192
I0
t(dtRp579
sg61
VTango PC \u2013 i\u0161maniojo telefono dyd\u017eio stacionarus kompiuteris
p580
sg160
g574
sS'comments'
p581
Vhttp://faceit.lt/2014/07/tango-pc-ismaniojo-telefono-dydzio-stacionarus-kompiuteris/#comments
p582
sg163
g551
sg164
I00
sS'title_detail'
p583
g1
(g2
g3
(dp584
g65
Vhttp://feeds.feedburner.com/faceit_lt
p585
sg19
g73
sg58
Nsg68
g580
stRp586
sg169
VFri, 11 Jul 2014 06:50:14 +0000
p587
stRp588
ag1
(g2
g3
(dp589
S'summary_detail'
p590
g1
(g2
g3
(dp591
g65
Vhttp://feeds.feedburner.com/faceit_lt
p592
sg19
g67
sg58
Nsg68
V<p><img alt="oddworld-200" class="attachment-post-thumbnail wp-post-image" height="150" src="http://faceit.lt/wp-content/uploads/2014/07/oddworld-200.jpg" width="200" /></p>Kompanijos Oddworld Inhabitants, kuri u\u017esiima \u017eaidimo Oddworld k\u016brimu, vienas i\u0161 \u012fk\u016br\u0117j\u0173 Lorne Lanning papasakojo, kod\u0117l jis pasitrauk\u0117 i\u0161 \u017eaidim\u0173 industrijos, o v\u0117liau \u012f j\u0105 sugr\u012f\u017eo, ra\u0161o puslapis Polygon. Jis prisimin\u0117 [&hellip;]<div class="feedflare">\u000a<a href="http://feeds.feedburner.com/~ff/faceit_lt?a=z4N2qFMAszI:863GLs19zBg:yIl2AUoC8zA"><img border="0" src="http://feeds.feedburner.com/~ff/faceit_lt?d=yIl2AUoC8zA" /></a> <a href="http://feeds.feedburner.com/~ff/faceit_lt?a=z4N2qFMAszI:863GLs19zBg:qj6IDK7rITs"><img border="0" src="http://feeds.feedburner.com/~ff/faceit_lt?d=qj6IDK7rITs" /></a>\u000a</div><img height="1" src="http://feeds.feedburner.com/~r/faceit_lt/~4/z4N2qFMAszI" width="1" />
p593
stRp594
sg14
(lp595
g1
(g2
g3
(dp596
g17
Vhttp://feedproxy.google.com/~r/faceit_lt/~3/z4N2qFMAszI/
p597
sg19
g20
sg21
g22
stRp598
asg129
(lp599
g1
(g2
g3
(dp600
g132
V\u017dAIDIMAI / PRAMOGOS
p601
sg134
Nsg135
NstRp602
ag1
(g2
g3
(dp603
g132
VOddworld
p604
sg134
Nsg135
NstRp605
ag1
(g2
g3
(dp606
g132
VOddworld Inhabitants
p607
sg134
Nsg135
NstRp608
asS'feedburner_origlink'
p609
Vhttp://faceit.lt/2014/07/oddworld-kurejai-papasakojo-apie-leidejus-kurie-mato-tik-pinigus/
p610
sg49
g597
sg145
(lp611
g1
(g2
g3
(dtRp612
asg148
Vhttp://faceit.lt/?p=59727
p613
sS'author_detail'
p614
g1
(g2
g3
(dp615
g42
VFACEIT Team
p616
stRp617
sS'wfw_commentrss'
p618
Vhttp://faceit.lt/2014/07/oddworld-kurejai-papasakojo-apie-leidejus-kurie-mato-tik-pinigus/feed/
p619
sS'slash_comments'
p620
V0
sg157
g12
((I2014
I7
I11
I6
I30
I55
I4
I192
I0
t(dtRp621
sg61
VOddworld k\u016br\u0117jai papasakojo apie leid\u0117jus, kurie mato tik pinigus
p622
sg160
g616
sS'comments'
p623
Vhttp://faceit.lt/2014/07/oddworld-kurejai-papasakojo-apie-leidejus-kurie-mato-tik-pinigus/#comments
p624
sg163
g593
sg164
I00
sS'title_detail'
p625
g1
(g2
g3
(dp626
g65
Vhttp://feeds.feedburner.com/faceit_lt
p627
sg19
g73
sg58
Nsg68
g622
stRp628
sg169
VFri, 11 Jul 2014 06:30:55 +0000
p629
stRp630
ag1
(g2
g3
(dp631
S'summary_detail'
p632
g1
(g2
g3
(dp633
g65
Vhttp://feeds.feedburner.com/faceit_lt
p634
sg19
g67
sg58
Nsg68
V<p><img alt="Advanced-Warfare-200" class="attachment-post-thumbnail wp-post-image" height="150" src="http://faceit.lt/wp-content/uploads/2014/07/Advanced-Warfare-2001.jpg" width="200" /></p>\u017daidimo Call of Duty: Advanced Warfare k\u016br\u0117jai nusprend\u0117 papasakoti \u017eaid\u0117jams apie naujojo projekto garsin\u0119 dal\u012f. Garso re\u017eisierius Don Veca patikino, kad visi garsai naujoje serijos dalyje bus visi\u0161kai nauji, jokios [&hellip;]<div class="feedflare">\u000a<a href="http://feeds.feedburner.com/~ff/faceit_lt?a=MH5p6KcRmfI:R1uGGhdcejk:yIl2AUoC8zA"><img border="0" src="http://feeds.feedburner.com/~ff/faceit_lt?d=yIl2AUoC8zA" /></a> <a href="http://feeds.feedburner.com/~ff/faceit_lt?a=MH5p6KcRmfI:R1uGGhdcejk:qj6IDK7rITs"><img border="0" src="http://feeds.feedburner.com/~ff/faceit_lt?d=qj6IDK7rITs" /></a>\u000a</div><img height="1" src="http://feeds.feedburner.com/~r/faceit_lt/~4/MH5p6KcRmfI" width="1" />
p635
stRp636
sg14
(lp637
g1
(g2
g3
(dp638
g17
Vhttp://feedproxy.google.com/~r/faceit_lt/~3/MH5p6KcRmfI/
p639
sg19
g20
sg21
g22
stRp640
asg129
(lp641
g1
(g2
g3
(dp642
g132
V\u017dAIDIMAI / PRAMOGOS
p643
sg134
Nsg135
NstRp644
ag1
(g2
g3
(dp645
g132
VCall of Duty: Advanced Warfare
p646
sg134
Nsg135
NstRp647
asS'feedburner_origlink'
p648
Vhttp://faceit.lt/2014/07/call-of-duty-advanced-warfare-bus-naujas-garsinis-apipavidalinimas/
p649
sg49
g639
sg145
(lp650
g1
(g2
g3
(dtRp651
asg148
Vhttp://faceit.lt/?p=59724
p652
sS'author_detail'
p653
g1
(g2
g3
(dp654
g42
VFACEIT Team
p655
stRp656
sS'wfw_commentrss'
p657
Vhttp://faceit.lt/2014/07/call-of-duty-advanced-warfare-bus-naujas-garsinis-apipavidalinimas/feed/
p658
sS'slash_comments'
p659
V1
sg157
g12
((I2014
I7
I11
I6
I10
I48
I4
I192
I0
t(dtRp660
sg61
VCall of Duty: Advanced Warfare bus naujas garsinis apipavidalinimas
p661
sg160
g655
sS'comments'
p662
Vhttp://faceit.lt/2014/07/call-of-duty-advanced-warfare-bus-naujas-garsinis-apipavidalinimas/#comments
p663
sg163
g635
sg164
I00
sS'title_detail'
p664
g1
(g2
g3
(dp665
g65
Vhttp://feeds.feedburner.com/faceit_lt
p666
sg19
g73
sg58
Nsg68
g661
stRp667
sg169
VFri, 11 Jul 2014 06:10:48 +0000
p668
stRp669
ag1
(g2
g3
(dp670
S'summary_detail'
p671
g1
(g2
g3
(dp672
g65
Vhttp://feeds.feedburner.com/faceit_lt
p673
sg19
g67
sg58
Nsg68
V<p><img alt="google-glass-brainwave-200" class="attachment-post-thumbnail wp-post-image" height="150" src="http://faceit.lt/wp-content/uploads/2014/07/google-glass-brainwave-200.jpg" width="200" /></p>I\u0161maniesiems akiniams \u201eGoogle Glass\u201c sukurta program\u0117l\u0117 praple\u010dia j\u0173 galimybes. \u201eGoogle Glass\u201c sujungus su encefalografijos \u012frenginiu, programin\u0117 \u012franga leid\u017eia daryti nuotraukas be balso komandos ir neprilie\u010diant \u012frenginio, ra\u0161o BBC. \u0160i\u0105 naujov\u0119 [&hellip;]<div class="feedflare">\u000a<a href="http://feeds.feedburner.com/~ff/faceit_lt?a=hVv_cRJNM58:4ZSxzKaaCvI:yIl2AUoC8zA"><img border="0" src="http://feeds.feedburner.com/~ff/faceit_lt?d=yIl2AUoC8zA" /></a> <a href="http://feeds.feedburner.com/~ff/faceit_lt?a=hVv_cRJNM58:4ZSxzKaaCvI:qj6IDK7rITs"><img border="0" src="http://feeds.feedburner.com/~ff/faceit_lt?d=qj6IDK7rITs" /></a>\u000a</div><img height="1" src="http://feeds.feedburner.com/~r/faceit_lt/~4/hVv_cRJNM58" width="1" />
p674
stRp675
sg14
(lp676
g1
(g2
g3
(dp677
g17
Vhttp://feedproxy.google.com/~r/faceit_lt/~3/hVv_cRJNM58/
p678
sg19
g20
sg21
g22
stRp679
asg129
(lp680
g1
(g2
g3
(dp681
g132
VHARDWARE
p682
sg134
Nsg135
NstRp683
ag1
(g2
g3
(dp684
g132
VPeriferija
p685
sg134
Nsg135
NstRp686
ag1
(g2
g3
(dp687
g132
VGoogle Glass
p688
sg134
Nsg135
NstRp689
ag1
(g2
g3
(dp690
g132
VMindRDR
p691
sg134
Nsg135
NstRp692
asS'feedburner_origlink'
p693
Vhttp://faceit.lt/2014/07/google-glass-galima-valdyti-ir-mintimis/
p694
sg49
g678
sg145
(lp695
g1
(g2
g3
(dtRp696
asg148
Vhttp://faceit.lt/?p=59721
p697
sS'author_detail'
p698
g1
(g2
g3
(dp699
g42
VFACEIT Team
p700
stRp701
sS'wfw_commentrss'
p702
Vhttp://faceit.lt/2014/07/google-glass-galima-valdyti-ir-mintimis/feed/
p703
sS'slash_comments'
p704
V1
sg157
g12
((I2014
I7
I10
I10
I40
I52
I3
I191
I0
t(dtRp705
sg61
VGoogle Glass galima valdyti ir mintimis
p706
sg160
g700
sS'comments'
p707
Vhttp://faceit.lt/2014/07/google-glass-galima-valdyti-ir-mintimis/#comments
p708
sg163
g674
sg164
I00
sS'title_detail'
p709
g1
(g2
g3
(dp710
g65
Vhttp://feeds.feedburner.com/faceit_lt
p711
sg19
g73
sg58
Nsg68
g706
stRp712
sg169
VThu, 10 Jul 2014 10:40:52 +0000
p713
stRp714
ag1
(g2
g3
(dp715
S'summary_detail'
p716
g1
(g2
g3
(dp717
g65
Vhttp://feeds.feedburner.com/faceit_lt
p718
sg19
g67
sg58
Nsg68
V<p><img alt="dragon-age-inquisition-200" class="attachment-post-thumbnail wp-post-image" height="150" src="http://faceit.lt/wp-content/uploads/2013/06/dragon-age-inquisition-200.jpg" width="200" /></p>Liepos m\u0117nuo tradici\u0161kai yra vienas nykiausi\u0173, kalbant apie \u017eaidim\u0173 naujienas, kadangi visi ilsisi po bir\u017eelio m\u0117nesio E3, o kartu ruo\u0161iasi rugpj\u016b\u010dio m\u0117nesio renginiui Games\u0441om. Vis tik save gerbiantys k\u016br\u0117jai \u017eaid\u0117j\u0173 [&hellip;]<div class="feedflare">\u000a<a href="http://feeds.feedburner.com/~ff/faceit_lt?a=AQ4Thh6DfxE:Hp9DFW2d3WA:yIl2AUoC8zA"><img border="0" src="http://feeds.feedburner.com/~ff/faceit_lt?d=yIl2AUoC8zA" /></a> <a href="http://feeds.feedburner.com/~ff/faceit_lt?a=AQ4Thh6DfxE:Hp9DFW2d3WA:qj6IDK7rITs"><img border="0" src="http://feeds.feedburner.com/~ff/faceit_lt?d=qj6IDK7rITs" /></a>\u000a</div><img height="1" src="http://feeds.feedburner.com/~r/faceit_lt/~4/AQ4Thh6DfxE" width="1" />
p719
stRp720
sg14
(lp721
g1
(g2
g3
(dp722
g17
Vhttp://feedproxy.google.com/~r/faceit_lt/~3/AQ4Thh6DfxE/
p723
sg19
g20
sg21
g22
stRp724
asg129
(lp725
g1
(g2
g3
(dp726
g132
V\u017dAIDIMAI / PRAMOGOS
p727
sg134
Nsg135
NstRp728
ag1
(g2
g3
(dp729
g132
VBioWare
p730
sg134
Nsg135
NstRp731
ag1
(g2
g3
(dp732
g132
VDragon Age: Inquisition
p733
sg134
Nsg135
NstRp734
asS'feedburner_origlink'
p735
Vhttp://faceit.lt/2014/07/16-minuciu-trukmes-dragon-age-inquisition-vaizdo-klipas/
p736
sg49
g723
sg145
(lp737
g1
(g2
g3
(dtRp738
asg148
Vhttp://faceit.lt/?p=59720
p739
sS'author_detail'
p740
g1
(g2
g3
(dp741
g42
VFACEIT Team
p742
stRp743
sS'wfw_commentrss'
p744
Vhttp://faceit.lt/2014/07/16-minuciu-trukmes-dragon-age-inquisition-vaizdo-klipas/feed/
p745
sS'slash_comments'
p746
V0
sg157
g12
((I2014
I7
I10
I10
I20
I38
I3
I191
I0
t(dtRp747
sg61
V16 minu\u010di\u0173 trukm\u0117s Dragon Age: Inquisition vaizdo klipas
p748
sg160
g742
sS'comments'
p749
Vhttp://faceit.lt/2014/07/16-minuciu-trukmes-dragon-age-inquisition-vaizdo-klipas/#comments
p750
sg163
g719
sg164
I00
sS'title_detail'
p751
g1
(g2
g3
(dp752
g65
Vhttp://feeds.feedburner.com/faceit_lt
p753
sg19
g73
sg58
Nsg68
g748
stRp754
sg169
VThu, 10 Jul 2014 10:20:38 +0000
p755
stRp756
asS'namespaces'
p757
(dp758
S''
Vhttp://www.w3.org/2005/Atom
p759
sS'sy'
p760
Vhttp://purl.org/rss/1.0/modules/syndication/
p761
sS'dc'
p762
Vhttp://purl.org/dc/elements/1.1/
p763
sS'content'
p764
Vhttp://purl.org/rss/1.0/modules/content/
p765
sS'slash'
p766
Vhttp://purl.org/rss/1.0/modules/slash/
p767
sS'feedburner'
p768
Vhttp://rssnamespace.org/feedburner/ext/1.0
p769
sS'wfw'
p770
Vhttp://wellformedweb.org/CommentAPI/
p771
sstRp772
.