ccopy_reg
_reconstructor
p1
(cfeedparser
FeedParserDict
p2
c__builtin__
dict
p3
(dp4
S'feed'
p5
g1
(g2
g3
(dp6
S'info'
p7
VThis is an XML content feed. It is intended to be viewed in a newsreader or syndicated to another site.
p8
sS'updated'
p9
VFri, 11 Jul 2014 00:14:32 GMT
p10
sS'subtitle'
p11
VTips and downloads for getting things done
p12
sS'language'
p13
Ven
p14
sS'published_parsed'
p15
ctime
struct_time
p16
((I2014
I7
I11
I0
I14
I32
I4
I192
I0
t(dtRp17
sS'title'
p18
VLifehacker
p19
sS'published'
p20
VFri, 11 Jul 2014 00:14:32 GMT
p21
sS'links'
p22
(lp23
g1
(g2
g3
(dp24
S'href'
p25
Vhttp://lifehacker.com
p26
sS'type'
p27
Vtext/html
p28
sS'rel'
p29
Valternate
p30
stRp31
ag1
(g2
g3
(dp32
S'href'
p33
Vhttp://pubsubhubbub.appspot.com/
p34
sg27
g28
sS'rel'
p35
Vhub
p36
stRp37
ag1
(g2
g3
(dp38
S'href'
p39
Vhttp://www.lifehacker.com/index.xml
p40
sS'type'
p41
Vapplication/rss+xml
p42
sS'rel'
p43
Vself
p44
stRp45
asS'feedburner_info'
p46
(dp47
S'uri'
p48
Vlifehacker/full
p49
ssS'subtitle_detail'
p50
g1
(g2
g3
(dp51
S'base'
p52
Vhttp://feeds.gawker.com/lifehacker/full
p53
sg27
Vtext/html
p54
sg13
NsS'value'
p55
g12
stRp56
sS'title_detail'
p57
g1
(g2
g3
(dp58
g52
Vhttp://feeds.gawker.com/lifehacker/full
p59
sg27
Vtext/plain
p60
sg13
Nsg55
g19
stRp61
sS'info_detail'
p62
g1
(g2
g3
(dp63
g52
Vhttp://feeds.gawker.com/lifehacker/full
p64
sg27
Vtext/plain
p65
sg13
Nsg55
g8
stRp66
sS'link'
p67
g26
sS'ttl'
p68
V30
p69
sS'updated_parsed'
p70
g16
((I2014
I7
I11
I0
I14
I32
I4
I192
I0
t(dtRp71
stRp72
sS'status'
p73
I200
sg9
S'Fri, 11 Jul 2014 10:16:14 GMT'
p74
sg70
g16
((I2014
I7
I11
I10
I16
I14
I4
I192
I0
t(dtRp75
sS'encoding'
p76
VUTF-8
p77
sS'bozo'
p78
I0
sS'headers'
p79
(dp80
S'alternate-protocol'
p81
S'80:quic,80:quic'
p82
sS'x-xss-protection'
p83
S'1; mode=block'
p84
sS'x-content-type-options'
p85
S'nosniff'
p86
sS'content-encoding'
p87
S'gzip'
p88
sS'transfer-encoding'
p89
S'chunked'
p90
sS'expires'
p91
S'Fri, 11 Jul 2014 10:17:09 GMT'
p92
sS'server'
p93
S'GSE'
p94
sS'last-modified'
p95
g74
sS'connection'
p96
S'close'
p97
sS'etag'
p98
S'e2lctmoeh1fuJkvR5TbMf6EeUN8'
p99
sS'cache-control'
p100
S'private, max-age=0'
p101
sS'date'
p102
S'Fri, 11 Jul 2014 10:17:09 GMT'
p103
sS'content-type'
p104
S'text/xml; charset=UTF-8'
p105
ssS'etag'
p106
Ve2lctmoeh1fuJkvR5TbMf6EeUN8
p107
sg25
Vhttp://feeds.gawker.com/lifehacker/full
p108
sS'version'
p109
Vrss20
p110
sS'entries'
p111
(lp112
g1
(g2
g3
(dp113
S'summary_detail'
p114
g1
(g2
g3
(dp115
g52
Vhttp://feeds.gawker.com/lifehacker/full
p116
sg27
g54
sg13
Nsg55
V<p class="has-media media-640"><img alt="The Microbus Desktop" class="transform-ku-xlarge" height="357" src="http://i.kinja-img.com/gawker-media/image/upload/s--6X86xb4d--/c_fit,fl_progressive,q_80,w_636/q2dusfwgxnxnast7phna.png" width="636" /></p> <p class="first-text">We've highlighted a few of <a href="https://www.flickr.com/photos/joergermeister/" target="_blank">joergermeister</a>'s desktops before, but this one has "get in the party bus and hit the road" written all over it's flat, minimal look. Here's how he set it up, and what you'll need to set it up yourself.</p><p><a href="http://lifehacker.com/the-microbus-desktop-1602301935">Read more...</a></p><img border="0" height="1" src="http://lifehacker.feedsportal.com/c/34977/f/647165/s/3c61b36c/sc/4/mf.gif" width="1" /><br clear="all" /><br /><br /><a href="http://da.feedsportal.com/r/199120604091/u/94/f/647165/c/34977/s/3c61b36c/sc/4/rc/1/rc.htm" rel="nofollow"><img border="0" src="http://da.feedsportal.com/r/199120604091/u/94/f/647165/c/34977/s/3c61b36c/sc/4/rc/1/rc.img" /></a><br /><a href="http://da.feedsportal.com/r/199120604091/u/94/f/647165/c/34977/s/3c61b36c/sc/4/rc/2/rc.htm" rel="nofollow"><img border="0" src="http://da.feedsportal.com/r/199120604091/u/94/f/647165/c/34977/s/3c61b36c/sc/4/rc/2/rc.img" /></a><br /><a href="http://da.feedsportal.com/r/199120604091/u/94/f/647165/c/34977/s/3c61b36c/sc/4/rc/3/rc.htm" rel="nofollow"><img border="0" src="http://da.feedsportal.com/r/199120604091/u/94/f/647165/c/34977/s/3c61b36c/sc/4/rc/3/rc.img" /></a><br /><br /><a href="http://da.feedsportal.com/r/199120604091/u/94/f/647165/c/34977/s/3c61b36c/sc/4/a2.htm"><img border="0" src="http://da.feedsportal.com/r/199120604091/u/94/f/647165/c/34977/s/3c61b36c/sc/4/a2.img" /></a><img border="0" height="1" src="http://pi.feedsportal.com/r/199120604091/u/94/f/647165/c/34977/s/3c61b36c/sc/4/a2t.img" width="1" /><img height="1" src="http://feeds.feedburner.com/~r/lifehacker/full/~4/MGOvp_L4kuI" width="1" />
p117
stRp118
sg22
(lp119
g1
(g2
g3
(dp120
g25
Vhttp://feeds.gawker.com/~r/lifehacker/full/~3/MGOvp_L4kuI/the-microbus-desktop-1602301935
p121
sg27
g28
sg29
g30
stRp122
asg15
g16
((I2014
I7
I11
I0
I0
I0
I4
I192
I0
t(dtRp123
sg18
VThe Microbus Desktop
p124
sS'feedburner_origlink'
p125
Vhttp://lifehacker.com/the-microbus-desktop-1602301935
p126
sS'tags'
p127
(lp128
g1
(g2
g3
(dp129
S'term'
p130
Vwindows
p131
sS'scheme'
p132
NsS'label'
p133
NstRp134
ag1
(g2
g3
(dp135
g130
Vdesktops
p136
sg132
Nsg133
NstRp137
ag1
(g2
g3
(dp138
g130
Vwallpapers
p139
sg132
Nsg133
NstRp140
ag1
(g2
g3
(dp141
g130
Vcustomization
p142
sg132
Nsg133
NstRp143
ag1
(g2
g3
(dp144
g130
Vhud
p145
sg132
Nsg133
NstRp146
ag1
(g2
g3
(dp147
g130
Vskins
p148
sg132
Nsg133
NstRp149
ag1
(g2
g3
(dp150
g130
Vfeatured desktop
p151
sg132
Nsg133
NstRp152
ag1
(g2
g3
(dp153
g130
Vthemes
p154
sg132
Nsg133
NstRp155
asS'summary'
p156
g117
sS'guidislink'
p157
I00
sS'title_detail'
p158
g1
(g2
g3
(dp159
g52
Vhttp://feeds.gawker.com/lifehacker/full
p160
sg27
g60
sg13
Nsg55
g124
stRp161
sg67
g121
sS'author'
p162
VAlan Henry
p163
sg20
VFri, 11 Jul 2014 00:00:00 GMT
p164
sS'authors'
p165
(lp166
g1
(g2
g3
(dtRp167
asS'author_detail'
p168
g1
(g2
g3
(dp169
S'name'
p170
g163
stRp171
sS'id'
p172
Vhttp://feeds.gawker.com/lifehacker/1602301935
p173
stRp174
ag1
(g2
g3
(dp175
S'summary_detail'
p176
g1
(g2
g3
(dp177
g52
Vhttp://feeds.gawker.com/lifehacker/full
p178
sg27
g54
sg13
Nsg55
V<p class="has-media media-640"><img alt="This DIY Mini Closet Saves Space, Is Made from IKEA Parts" class="transform-original" height="358" src="http://i.kinja-img.com/gawker-media/image/upload/s--nLRHEpnD--/nqfezxgrb3lzfef2ezas.jpg" width="636" /></p> <p class="first-text">If you're out of space in the kid's bedroom or need to outfit a closetless guestroom, this free standing solution is cheap and has enough space for a small wardrobe.</p><p><a href="http://lifehacker.com/this-diy-mini-closet-saves-space-is-made-from-ikea-par-1603221274">Read more...</a></p><img border="0" height="1" src="http://lifehacker.feedsportal.com/c/34977/f/647165/s/3c619932/sc/36/mf.gif" width="1" /><br clear="all" /><br /><br /><a href="http://da.feedsportal.com/r/199120263099/u/94/f/647165/c/34977/s/3c619932/sc/36/rc/1/rc.htm" rel="nofollow"><img border="0" src="http://da.feedsportal.com/r/199120263099/u/94/f/647165/c/34977/s/3c619932/sc/36/rc/1/rc.img" /></a><br /><a href="http://da.feedsportal.com/r/199120263099/u/94/f/647165/c/34977/s/3c619932/sc/36/rc/2/rc.htm" rel="nofollow"><img border="0" src="http://da.feedsportal.com/r/199120263099/u/94/f/647165/c/34977/s/3c619932/sc/36/rc/2/rc.img" /></a><br /><a href="http://da.feedsportal.com/r/199120263099/u/94/f/647165/c/34977/s/3c619932/sc/36/rc/3/rc.htm" rel="nofollow"><img border="0" src="http://da.feedsportal.com/r/199120263099/u/94/f/647165/c/34977/s/3c619932/sc/36/rc/3/rc.img" /></a><br /><br /><a href="http://da.feedsportal.com/r/199120263099/u/94/f/647165/c/34977/s/3c619932/sc/36/a2.htm"><img border="0" src="http://da.feedsportal.com/r/199120263099/u/94/f/647165/c/34977/s/3c619932/sc/36/a2.img" /></a><img border="0" height="1" src="http://pi.feedsportal.com/r/199120263099/u/94/f/647165/c/34977/s/3c619932/sc/36/a2t.img" width="1" /><img height="1" src="http://feeds.feedburner.com/~r/lifehacker/full/~4/Co6jxHeKKcY" width="1" />
p179
stRp180
sg22
(lp181
g1
(g2
g3
(dp182
g25
Vhttp://feeds.gawker.com/~r/lifehacker/full/~3/Co6jxHeKKcY/this-diy-mini-closet-saves-space-is-made-from-ikea-par-1603221274
p183
sg27
g28
sg29
g30
stRp184
asg15
g16
((I2014
I7
I10
I23
I0
I0
I3
I191
I0
t(dtRp185
sg18
VThis DIY Mini Closet Saves Space, Is Made from IKEA Parts
p186
sS'feedburner_origlink'
p187
Vhttp://lifehacker.com/this-diy-mini-closet-saves-space-is-made-from-ikea-par-1603221274
p188
sg127
(lp189
g1
(g2
g3
(dp190
g130
Vdiy
p191
sg132
Nsg133
NstRp192
ag1
(g2
g3
(dp193
g130
Vikea hacks
p194
sg132
Nsg133
NstRp195
ag1
(g2
g3
(dp196
g130
Vcloset
p197
sg132
Nsg133
NstRp198
ag1
(g2
g3
(dp199
g130
Vspace savers
p200
sg132
Nsg133
NstRp201
ag1
(g2
g3
(dp202
g130
Vstorage
p203
sg132
Nsg133
NstRp204
ag1
(g2
g3
(dp205
g130
Vhousehold
p206
sg132
Nsg133
NstRp207
ag1
(g2
g3
(dp208
g130
Vikea
p209
sg132
Nsg133
NstRp210
ag1
(g2
g3
(dp211
g130
Vspace
p212
sg132
Nsg133
NstRp213
asg156
g179
sg157
I00
sS'title_detail'
p214
g1
(g2
g3
(dp215
g52
Vhttp://feeds.gawker.com/lifehacker/full
p216
sg27
g60
sg13
Nsg55
g186
stRp217
sg67
g183
sg162
VPatrick Allan
p218
sg20
VThu, 10 Jul 2014 23:00:00 GMT
p219
sg165
(lp220
g1
(g2
g3
(dtRp221
asS'author_detail'
p222
g1
(g2
g3
(dp223
g170
g218
stRp224
sg172
Vhttp://feeds.gawker.com/lifehacker/1603221274
p225
stRp226
ag1
(g2
g3
(dp227
S'summary_detail'
p228
g1
(g2
g3
(dp229
g52
Vhttp://feeds.gawker.com/lifehacker/full
p230
sg27
g54
sg13
Nsg55
V<p class="has-media media-640"><img alt="Reserve America Lets You Find and Reserve Campsites" class="transform-original" height="358" src="http://i.kinja-img.com/gawker-media/image/upload/s--LGfFP9IS--/bogrwu7zutw9xtel1zt2.jpg" width="636" /></p> <p class="first-text">Reserve America lets you reserve spots at campgrounds and public spaces around the country the same way you would book a room in a hotel. It's been connecting campers with campgrounds for years.</p><p><a href="http://lifehacker.com/reserve-america-lets-you-find-and-reserve-campsites-1603206220">Read more...</a></p><img border="0" height="1" src="http://lifehacker.feedsportal.com/c/34977/f/647165/s/3c61a6ea/sc/10/mf.gif" width="1" /><br clear="all" /><br /><br /><a href="http://da.feedsportal.com/r/199120602366/u/94/f/647165/c/34977/s/3c61a6ea/sc/10/rc/1/rc.htm" rel="nofollow"><img border="0" src="http://da.feedsportal.com/r/199120602366/u/94/f/647165/c/34977/s/3c61a6ea/sc/10/rc/1/rc.img" /></a><br /><a href="http://da.feedsportal.com/r/199120602366/u/94/f/647165/c/34977/s/3c61a6ea/sc/10/rc/2/rc.htm" rel="nofollow"><img border="0" src="http://da.feedsportal.com/r/199120602366/u/94/f/647165/c/34977/s/3c61a6ea/sc/10/rc/2/rc.img" /></a><br /><a href="http://da.feedsportal.com/r/199120602366/u/94/f/647165/c/34977/s/3c61a6ea/sc/10/rc/3/rc.htm" rel="nofollow"><img border="0" src="http://da.feedsportal.com/r/199120602366/u/94/f/647165/c/34977/s/3c61a6ea/sc/10/rc/3/rc.img" /></a><br /><br /><a href="http://da.feedsportal.com/r/199120602366/u/94/f/647165/c/34977/s/3c61a6ea/sc/10/a2.htm"><img border="0" src="http://da.feedsportal.com/r/199120602366/u/94/f/647165/c/34977/s/3c61a6ea/sc/10/a2.img" /></a><img border="0" height="1" src="http://pi.feedsportal.com/r/199120602366/u/94/f/647165/c/34977/s/3c61a6ea/sc/10/a2t.img" width="1" /><img height="1" src="http://feeds.feedburner.com/~r/lifehacker/full/~4/_tmvW9YZqnE" width="1" />
p231
stRp232
sg22
(lp233
g1
(g2
g3
(dp234
g25
Vhttp://feeds.gawker.com/~r/lifehacker/full/~3/_tmvW9YZqnE/reserve-america-lets-you-find-and-reserve-campsites-1603206220
p235
sg27
g28
sg29
g30
stRp236
asg15
g16
((I2014
I7
I10
I22
I30
I0
I3
I191
I0
t(dtRp237
sg18
VReserve America Lets You Find and Reserve Campsites
p238
sS'feedburner_origlink'
p239
Vhttp://lifehacker.com/reserve-america-lets-you-find-and-reserve-campsites-1603206220
p240
sg127
(lp241
g1
(g2
g3
(dp242
g130
Vsearch
p243
sg132
Nsg133
NstRp244
ag1
(g2
g3
(dp245
g130
Vcamping
p246
sg132
Nsg133
NstRp247
ag1
(g2
g3
(dp248
g130
Vreservations
p249
sg132
Nsg133
NstRp250
ag1
(g2
g3
(dp251
g130
Voutdoors
p252
sg132
Nsg133
NstRp253
ag1
(g2
g3
(dp254
g130
Vweb services
p255
sg132
Nsg133
NstRp256
ag1
(g2
g3
(dp257
g130
Vweb apps
p258
sg132
Nsg133
NstRp259
asg156
g231
sg157
I00
sS'title_detail'
p260
g1
(g2
g3
(dp261
g52
Vhttp://feeds.gawker.com/lifehacker/full
p262
sg27
g60
sg13
Nsg55
g238
stRp263
sg67
g235
sg162
VPatrick Allan
p264
sg20
VThu, 10 Jul 2014 22:30:00 GMT
p265
sg165
(lp266
g1
(g2
g3
(dtRp267
asS'author_detail'
p268
g1
(g2
g3
(dp269
g170
g264
stRp270
sg172
Vhttp://feeds.gawker.com/lifehacker/1603206220
p271
stRp272
ag1
(g2
g3
(dp273
S'summary_detail'
p274
g1
(g2
g3
(dp275
g52
Vhttp://feeds.gawker.com/lifehacker/full
p276
sg27
g54
sg13
Nsg55
V<p class="has-media media-640"><img alt="PSA: Factory Resets Don't Make Your Android Phone Safe to Sell" class="transform-original" height="358" src="http://i.kinja-img.com/gawker-media/image/upload/s--O1vdMvYc--/udtponp4mvv2uhmaznfx.jpg" width="636" /></p> <p class="first-text">If you plan on selling or donating your smartphone and want to make sure all of your data is off of it, make sure you do more than just factory reset through the phone's OS. Security researchers picked up several phones "wiped" this way, and found tons of data.</p><p><a href="http://lifehacker.com/psa-factory-resets-dont-make-your-phone-safe-to-sell-1603185050">Read more...</a></p><img border="0" height="1" src="http://lifehacker.feedsportal.com/c/34977/f/647165/s/3c60df83/sc/5/mf.gif" width="1" /><br clear="all" /><br /><br /><a href="http://da.feedsportal.com/r/199120601844/u/94/f/647165/c/34977/s/3c60df83/sc/5/rc/1/rc.htm" rel="nofollow"><img border="0" src="http://da.feedsportal.com/r/199120601844/u/94/f/647165/c/34977/s/3c60df83/sc/5/rc/1/rc.img" /></a><br /><a href="http://da.feedsportal.com/r/199120601844/u/94/f/647165/c/34977/s/3c60df83/sc/5/rc/2/rc.htm" rel="nofollow"><img border="0" src="http://da.feedsportal.com/r/199120601844/u/94/f/647165/c/34977/s/3c60df83/sc/5/rc/2/rc.img" /></a><br /><a href="http://da.feedsportal.com/r/199120601844/u/94/f/647165/c/34977/s/3c60df83/sc/5/rc/3/rc.htm" rel="nofollow"><img border="0" src="http://da.feedsportal.com/r/199120601844/u/94/f/647165/c/34977/s/3c60df83/sc/5/rc/3/rc.img" /></a><br /><br /><a href="http://da.feedsportal.com/r/199120601844/u/94/f/647165/c/34977/s/3c60df83/sc/5/a2.htm"><img border="0" src="http://da.feedsportal.com/r/199120601844/u/94/f/647165/c/34977/s/3c60df83/sc/5/a2.img" /></a><img border="0" height="1" src="http://pi.feedsportal.com/r/199120601844/u/94/f/647165/c/34977/s/3c60df83/sc/5/a2t.img" width="1" /><img height="1" src="http://feeds.feedburner.com/~r/lifehacker/full/~4/p0N88K-a-FY" width="1" />
p277
stRp278
sg22
(lp279
g1
(g2
g3
(dp280
g25
Vhttp://feeds.gawker.com/~r/lifehacker/full/~3/p0N88K-a-FY/psa-factory-resets-dont-make-your-phone-safe-to-sell-1603185050
p281
sg27
g28
sg29
g30
stRp282
asg15
g16
((I2014
I7
I10
I22
I0
I0
I3
I191
I0
t(dtRp283
sg18
VPSA: Factory Resets Don't Make Your Android Phone Safe to Sell
p284
sS'feedburner_origlink'
p285
Vhttp://lifehacker.com/psa-factory-resets-dont-make-your-phone-safe-to-sell-1603185050
p286
sg127
(lp287
g1
(g2
g3
(dp288
g130
Vapple
p289
sg132
Nsg133
NstRp290
ag1
(g2
g3
(dp291
g130
Vprivacy
p292
sg132
Nsg133
NstRp293
ag1
(g2
g3
(dp294
g130
Vpersonal data
p295
sg132
Nsg133
NstRp296
ag1
(g2
g3
(dp297
g130
Vsmartphones
p298
sg132
Nsg133
NstRp299
ag1
(g2
g3
(dp300
g130
Vandroid
p301
sg132
Nsg133
NstRp302
ag1
(g2
g3
(dp303
g130
Vsecurity
p304
sg132
Nsg133
NstRp305
asg156
g277
sg157
I00
sS'title_detail'
p306
g1
(g2
g3
(dp307
g52
Vhttp://feeds.gawker.com/lifehacker/full
p308
sg27
g60
sg13
Nsg55
g284
stRp309
sg67
g281
sg162
VPatrick Allan
p310
sg20
VThu, 10 Jul 2014 22:00:00 GMT
p311
sg165
(lp312
g1
(g2
g3
(dtRp313
asS'author_detail'
p314
g1
(g2
g3
(dp315
g170
g310
stRp316
sg172
Vhttp://feeds.gawker.com/lifehacker/1603185050
p317
stRp318
ag1
(g2
g3
(dp319
S'summary_detail'
p320
g1
(g2
g3
(dp321
g52
Vhttp://feeds.gawker.com/lifehacker/full
p322
sg27
g54
sg13
Nsg55
V<p class="has-media media-640"><img alt="Moment Tracks How You Use You Phone" class="transform-ku-xlarge" height="357" src="http://i.kinja-img.com/gawker-media/image/upload/s--NMIFJTRT--/c_fit,fl_progressive,q_80,w_636/indwg7kizs2p3dlbipxo.jpg" width="636" /></p> <p class="first-text">iPhone: Ever wonder just how much time you spend using your iPhone? Moments tracks when and where you use your phone the most.</p><p><a href="http://lifehacker.com/moment-tracks-how-you-use-you-phone-1602978862">Read more...</a></p><img border="0" height="1" src="http://lifehacker.feedsportal.com/c/34977/f/647165/s/3c6155d2/sc/5/mf.gif" width="1" /><br clear="all" /><br /><br /><a href="http://da.feedsportal.com/r/199109385175/u/94/f/647165/c/34977/s/3c6155d2/sc/5/rc/1/rc.htm" rel="nofollow"><img border="0" src="http://da.feedsportal.com/r/199109385175/u/94/f/647165/c/34977/s/3c6155d2/sc/5/rc/1/rc.img" /></a><br /><a href="http://da.feedsportal.com/r/199109385175/u/94/f/647165/c/34977/s/3c6155d2/sc/5/rc/2/rc.htm" rel="nofollow"><img border="0" src="http://da.feedsportal.com/r/199109385175/u/94/f/647165/c/34977/s/3c6155d2/sc/5/rc/2/rc.img" /></a><br /><a href="http://da.feedsportal.com/r/199109385175/u/94/f/647165/c/34977/s/3c6155d2/sc/5/rc/3/rc.htm" rel="nofollow"><img border="0" src="http://da.feedsportal.com/r/199109385175/u/94/f/647165/c/34977/s/3c6155d2/sc/5/rc/3/rc.img" /></a><br /><br /><a href="http://da.feedsportal.com/r/199109385175/u/94/f/647165/c/34977/s/3c6155d2/sc/5/a2.htm"><img border="0" src="http://da.feedsportal.com/r/199109385175/u/94/f/647165/c/34977/s/3c6155d2/sc/5/a2.img" /></a><img border="0" height="1" src="http://pi.feedsportal.com/r/199109385175/u/94/f/647165/c/34977/s/3c6155d2/sc/5/a2t.img" width="1" /><img height="1" src="http://feeds.feedburner.com/~r/lifehacker/full/~4/sJVeMLFHqX4" width="1" />
p323
stRp324
sg22
(lp325
g1
(g2
g3
(dp326
g25
Vhttp://feeds.gawker.com/~r/lifehacker/full/~3/sJVeMLFHqX4/moment-tracks-how-you-use-you-phone-1602978862
p327
sg27
g28
sg29
g30
stRp328
asg15
g16
((I2014
I7
I10
I21
I30
I0
I3
I191
I0
t(dtRp329
sg18
VMoment Tracks How You Use You Phone
p330
sS'feedburner_origlink'
p331
Vhttp://lifehacker.com/moment-tracks-how-you-use-you-phone-1602978862
p332
sg127
(lp333
g1
(g2
g3
(dp334
g130
Viphone
p335
sg132
Nsg133
NstRp336
ag1
(g2
g3
(dp337
g130
Vtracking
p338
sg132
Nsg133
NstRp339
ag1
(g2
g3
(dp340
g130
Viphone downloads
p341
sg132
Nsg133
NstRp342
ag1
(g2
g3
(dp343
g130
Vusage
p344
sg132
Nsg133
NstRp345
ag1
(g2
g3
(dp346
g130
Vapps
p347
sg132
Nsg133
NstRp348
ag1
(g2
g3
(dp349
g130
Vdownloads
p350
sg132
Nsg133
NstRp351
ag1
(g2
g3
(dp352
g130
Vios downloads
p353
sg132
Nsg133
NstRp354
asg156
g323
sg157
I00
sS'title_detail'
p355
g1
(g2
g3
(dp356
g52
Vhttp://feeds.gawker.com/lifehacker/full
p357
sg27
g60
sg13
Nsg55
g330
stRp358
sg67
g327
sg162
VThorin Klosowski
p359
sg20
VThu, 10 Jul 2014 21:30:00 GMT
p360
sg165
(lp361
g1
(g2
g3
(dtRp362
asS'author_detail'
p363
g1
(g2
g3
(dp364
g170
g359
stRp365
sg172
Vhttp://feeds.gawker.com/lifehacker/1602978862
p366
stRp367
ag1
(g2
g3
(dp368
S'summary_detail'
p369
g1
(g2
g3
(dp370
g52
Vhttp://feeds.gawker.com/lifehacker/full
p371
sg27
g54
sg13
Nsg55
V<p class="has-media media-640"><img alt="The Most Common Days for Stores to Release Coupons" class="transform-ku-xlarge" height="357" src="http://i.kinja-img.com/gawker-media/image/upload/s--84HgE1r_--/c_fit,fl_progressive,q_80,w_636/b0i7ijpabzfxc7tzthrk.jpg" width="636" /></p> <p class="first-text">Online coupons may appear to be released at random. But, if you look closely, patterns emerge. Knowing when stores are more likely to release new offers allows you to strategize for savings\u2014and perhaps save some time looking for discounts in the process.</p><p><a href="http://lifehacker.com/the-most-common-days-for-stores-to-release-coupons-1603113558">Read more...</a></p><img border="0" height="1" src="http://lifehacker.feedsportal.com/c/34977/f/647165/s/3c609186/sc/5/mf.gif" width="1" /><br clear="all" /><br /><br /><a href="http://da.feedsportal.com/r/199107907065/u/94/f/647165/c/34977/s/3c609186/sc/5/rc/1/rc.htm" rel="nofollow"><img border="0" src="http://da.feedsportal.com/r/199107907065/u/94/f/647165/c/34977/s/3c609186/sc/5/rc/1/rc.img" /></a><br /><a href="http://da.feedsportal.com/r/199107907065/u/94/f/647165/c/34977/s/3c609186/sc/5/rc/2/rc.htm" rel="nofollow"><img border="0" src="http://da.feedsportal.com/r/199107907065/u/94/f/647165/c/34977/s/3c609186/sc/5/rc/2/rc.img" /></a><br /><a href="http://da.feedsportal.com/r/199107907065/u/94/f/647165/c/34977/s/3c609186/sc/5/rc/3/rc.htm" rel="nofollow"><img border="0" src="http://da.feedsportal.com/r/199107907065/u/94/f/647165/c/34977/s/3c609186/sc/5/rc/3/rc.img" /></a><br /><br /><a href="http://da.feedsportal.com/r/199107907065/u/94/f/647165/c/34977/s/3c609186/sc/5/a2.htm"><img border="0" src="http://da.feedsportal.com/r/199107907065/u/94/f/647165/c/34977/s/3c609186/sc/5/a2.img" /></a><img border="0" height="1" src="http://pi.feedsportal.com/r/199107907065/u/94/f/647165/c/34977/s/3c609186/sc/5/a2t.img" width="1" /><img height="1" src="http://feeds.feedburner.com/~r/lifehacker/full/~4/eR-ATxlFwJY" width="1" />
p372
stRp373
sg22
(lp374
g1
(g2
g3
(dp375
g25
Vhttp://feeds.gawker.com/~r/lifehacker/full/~3/eR-ATxlFwJY/the-most-common-days-for-stores-to-release-coupons-1603113558
p376
sg27
g28
sg29
g30
stRp377
asg15
g16
((I2014
I7
I10
I21
I0
I0
I3
I191
I0
t(dtRp378
sg18
VThe Most Common Days for Stores to Release Coupons
p379
sS'feedburner_origlink'
p380
Vhttp://lifehacker.com/the-most-common-days-for-stores-to-release-coupons-1603113558
p381
sg127
(lp382
g1
(g2
g3
(dp383
g130
Vpersonal finance
p384
sg132
Nsg133
NstRp385
ag1
(g2
g3
(dp386
g130
Vcoupons
p387
sg132
Nsg133
NstRp388
ag1
(g2
g3
(dp389
g130
Vsavings
p390
sg132
Nsg133
NstRp391
ag1
(g2
g3
(dp392
g130
Vmoney
p393
sg132
Nsg133
NstRp394
ag1
(g2
g3
(dp395
g130
Vrepublished
p396
sg132
Nsg133
NstRp397
asg156
g372
sg157
I00
sS'title_detail'
p398
g1
(g2
g3
(dp399
g52
Vhttp://feeds.gawker.com/lifehacker/full
p400
sg27
g60
sg13
Nsg55
g379
stRp401
sg67
g376
sg162
VSarah Jones
p402
sg20
VThu, 10 Jul 2014 21:00:00 GMT
p403
sg165
(lp404
g1
(g2
g3
(dtRp405
asS'author_detail'
p406
g1
(g2
g3
(dp407
g170
g402
stRp408
sg172
Vhttp://feeds.gawker.com/lifehacker/1603113558
p409
stRp410
ag1
(g2
g3
(dp411
S'summary_detail'
p412
g1
(g2
g3
(dp413
g52
Vhttp://feeds.gawker.com/lifehacker/full
p414
sg27
g54
sg13
Nsg55
V<p class="has-media media-640"><img alt="Tempo Smart Calendar Adds Natural Language, Reminders, Waze, and More" class="transform-ku-xlarge" height="357" src="http://i.kinja-img.com/gawker-media/image/upload/s--Q8e_GRsl--/c_fit,fl_progressive,q_80,w_636/z6iz44npilqasprxivny.jpg" width="636" /></p> <p class="first-text">iPhone: Tempo, one of the <a href="http://lifehacker.com/5984202/tempo-smart-calendar-is-a-personal-assistant-and-calendar-rolled-into-one">better calendars for iOS</a> , updated today with some handy new features, including natural language input, reminders support, Waze directions, and more.</p><p><a href="http://lifehacker.com/tempo-smart-calendar-adds-natural-language-reminders-1603025025">Read more...</a></p><img border="0" height="1" src="http://lifehacker.feedsportal.com/c/34977/f/647165/s/3c60aed1/sc/21/mf.gif" width="1" /><br clear="all" /><br /><br /><a href="http://da.feedsportal.com/r/199109383878/u/94/f/647165/c/34977/s/3c60aed1/sc/21/rc/1/rc.htm" rel="nofollow"><img border="0" src="http://da.feedsportal.com/r/199109383878/u/94/f/647165/c/34977/s/3c60aed1/sc/21/rc/1/rc.img" /></a><br /><a href="http://da.feedsportal.com/r/199109383878/u/94/f/647165/c/34977/s/3c60aed1/sc/21/rc/2/rc.htm" rel="nofollow"><img border="0" src="http://da.feedsportal.com/r/199109383878/u/94/f/647165/c/34977/s/3c60aed1/sc/21/rc/2/rc.img" /></a><br /><a href="http://da.feedsportal.com/r/199109383878/u/94/f/647165/c/34977/s/3c60aed1/sc/21/rc/3/rc.htm" rel="nofollow"><img border="0" src="http://da.feedsportal.com/r/199109383878/u/94/f/647165/c/34977/s/3c60aed1/sc/21/rc/3/rc.img" /></a><br /><br /><a href="http://da.feedsportal.com/r/199109383878/u/94/f/647165/c/34977/s/3c60aed1/sc/21/a2.htm"><img border="0" src="http://da.feedsportal.com/r/199109383878/u/94/f/647165/c/34977/s/3c60aed1/sc/21/a2.img" /></a><img border="0" height="1" src="http://pi.feedsportal.com/r/199109383878/u/94/f/647165/c/34977/s/3c60aed1/sc/21/a2t.img" width="1" /><img height="1" src="http://feeds.feedburner.com/~r/lifehacker/full/~4/kZhuwaxdx8k" width="1" />
p415
stRp416
sg22
(lp417
g1
(g2
g3
(dp418
g25
Vhttp://feeds.gawker.com/~r/lifehacker/full/~3/kZhuwaxdx8k/tempo-smart-calendar-adds-natural-language-reminders-1603025025
p419
sg27
g28
sg29
g30
stRp420
asg15
g16
((I2014
I7
I10
I20
I30
I0
I3
I191
I0
t(dtRp421
sg18
VTempo Smart Calendar Adds Natural Language, Reminders, Waze, and More
p422
sS'feedburner_origlink'
p423
Vhttp://lifehacker.com/tempo-smart-calendar-adds-natural-language-reminders-1603025025
p424
sg127
(lp425
g1
(g2
g3
(dp426
g130
Viphone downloads
p427
sg132
Nsg133
NstRp428
ag1
(g2
g3
(dp429
g130
Vcalendars
p430
sg132
Nsg133
NstRp431
ag1
(g2
g3
(dp432
g130
Vupdates
p433
sg132
Nsg133
NstRp434
ag1
(g2
g3
(dp435
g130
Vdownloads
p436
sg132
Nsg133
NstRp437
ag1
(g2
g3
(dp438
g130
Vios downloads
p439
sg132
Nsg133
NstRp440
asg156
g415
sg157
I00
sS'title_detail'
p441
g1
(g2
g3
(dp442
g52
Vhttp://feeds.gawker.com/lifehacker/full
p443
sg27
g60
sg13
Nsg55
g422
stRp444
sg67
g419
sg162
VThorin Klosowski
p445
sg20
VThu, 10 Jul 2014 20:30:00 GMT
p446
sg165
(lp447
g1
(g2
g3
(dtRp448
asS'author_detail'
p449
g1
(g2
g3
(dp450
g170
g445
stRp451
sg172
Vhttp://feeds.gawker.com/lifehacker/1603025025
p452
stRp453
ag1
(g2
g3
(dp454
S'summary_detail'
p455
g1
(g2
g3
(dp456
g52
Vhttp://feeds.gawker.com/lifehacker/full
p457
sg27
g54
sg13
Nsg55
V<p class="has-media media-640"><img alt="Muse U Offers Career Training Classes and Resources" class="transform-original" height="359" src="http://i.kinja-img.com/gawker-media/image/upload/s--8oW4TSTf--/bglxyy0nfx7swboeebqr.png" width="636" /></p> <p class="first-text">When you're trying to build a career, it can be hard to figure out where to start. Muse U aims to provide a starting point for new and seasoned ladder-climbers alike.</p><p><a href="http://lifehacker.com/muse-u-offers-career-training-classes-and-resources-1603091407">Read more...</a></p><img border="0" height="1" src="http://lifehacker.feedsportal.com/c/34977/f/647165/s/3c6095ab/sc/4/mf.gif" width="1" /><br clear="all" /><br /><br /><a href="http://da.feedsportal.com/r/199120484915/u/94/f/647165/c/34977/s/3c6095ab/sc/4/rc/1/rc.htm" rel="nofollow"><img border="0" src="http://da.feedsportal.com/r/199120484915/u/94/f/647165/c/34977/s/3c6095ab/sc/4/rc/1/rc.img" /></a><br /><a href="http://da.feedsportal.com/r/199120484915/u/94/f/647165/c/34977/s/3c6095ab/sc/4/rc/2/rc.htm" rel="nofollow"><img border="0" src="http://da.feedsportal.com/r/199120484915/u/94/f/647165/c/34977/s/3c6095ab/sc/4/rc/2/rc.img" /></a><br /><a href="http://da.feedsportal.com/r/199120484915/u/94/f/647165/c/34977/s/3c6095ab/sc/4/rc/3/rc.htm" rel="nofollow"><img border="0" src="http://da.feedsportal.com/r/199120484915/u/94/f/647165/c/34977/s/3c6095ab/sc/4/rc/3/rc.img" /></a><br /><br /><a href="http://da.feedsportal.com/r/199120484915/u/94/f/647165/c/34977/s/3c6095ab/sc/4/a2.htm"><img border="0" src="http://da.feedsportal.com/r/199120484915/u/94/f/647165/c/34977/s/3c6095ab/sc/4/a2.img" /></a><img border="0" height="1" src="http://pi.feedsportal.com/r/199120484915/u/94/f/647165/c/34977/s/3c6095ab/sc/4/a2t.img" width="1" /><img height="1" src="http://feeds.feedburner.com/~r/lifehacker/full/~4/0VOo7DQE4lA" width="1" />
p458
stRp459
sg22
(lp460
g1
(g2
g3
(dp461
g25
Vhttp://feeds.gawker.com/~r/lifehacker/full/~3/0VOo7DQE4lA/muse-u-offers-career-training-classes-and-resources-1603091407
p462
sg27
g28
sg29
g30
stRp463
asg15
g16
((I2014
I7
I10
I20
I0
I0
I3
I191
I0
t(dtRp464
sg18
VMuse U Offers Career Training Classes and Resources
p465
sS'feedburner_origlink'
p466
Vhttp://lifehacker.com/muse-u-offers-career-training-classes-and-resources-1603091407
p467
sg127
(lp468
g1
(g2
g3
(dp469
g130
Vinterview
p470
sg132
Nsg133
NstRp471
ag1
(g2
g3
(dp472
g130
Vjobs
p473
sg132
Nsg133
NstRp474
ag1
(g2
g3
(dp475
g130
Vwork
p476
sg132
Nsg133
NstRp477
ag1
(g2
g3
(dp478
g130
Vresume
p479
sg132
Nsg133
NstRp480
ag1
(g2
g3
(dp481
g130
Vproductivity
p482
sg132
Nsg133
NstRp483
ag1
(g2
g3
(dp484
g130
Vcareer
p485
sg132
Nsg133
NstRp486
asg156
g458
sg157
I00
sS'title_detail'
p487
g1
(g2
g3
(dp488
g52
Vhttp://feeds.gawker.com/lifehacker/full
p489
sg27
g60
sg13
Nsg55
g465
stRp490
sg67
g462
sg162
VEric Ravenscraft
p491
sg20
VThu, 10 Jul 2014 20:00:00 GMT
p492
sg165
(lp493
g1
(g2
g3
(dtRp494
asS'author_detail'
p495
g1
(g2
g3
(dp496
g170
g491
stRp497
sg172
Vhttp://feeds.gawker.com/lifehacker/1603091407
p498
stRp499
ag1
(g2
g3
(dp500
S'summary_detail'
p501
g1
(g2
g3
(dp502
g52
Vhttp://feeds.gawker.com/lifehacker/full
p503
sg27
g54
sg13
Nsg55
V<p class="has-media media-640"><img alt="\u200bAsk Dr. Nerdlove: Should I Give Him A Second Chance?" class="transform-original" height="358" src="http://i.kinja-img.com/gawker-media/image/upload/s--qUcgLMvc--/sckkiml5ools78r9cfdo.png" width="636" /></p> <p class="first-text"> Hello, Internet! Welcome to <a href="http://kotaku.com/askdrnerdlove">Ask Dr. NerdLove</a>, the only dating advice column that is the walkthrough to the dating sim that is your life.</p><p><a href="http://kotaku.com/ask-dr-nerdlove-should-i-give-him-a-second-chance-1603088414/+andyoooo">Read more...</a></p><img border="0" height="1" src="http://lifehacker.feedsportal.com/c/34977/f/647165/s/3c60936c/sc/1/mf.gif" width="1" /><br clear="all" /><br /><br /><a href="http://da.feedsportal.com/r/199120484668/u/94/f/647165/c/34977/s/3c60936c/sc/1/rc/1/rc.htm" rel="nofollow"><img border="0" src="http://da.feedsportal.com/r/199120484668/u/94/f/647165/c/34977/s/3c60936c/sc/1/rc/1/rc.img" /></a><br /><a href="http://da.feedsportal.com/r/199120484668/u/94/f/647165/c/34977/s/3c60936c/sc/1/rc/2/rc.htm" rel="nofollow"><img border="0" src="http://da.feedsportal.com/r/199120484668/u/94/f/647165/c/34977/s/3c60936c/sc/1/rc/2/rc.img" /></a><br /><a href="http://da.feedsportal.com/r/199120484668/u/94/f/647165/c/34977/s/3c60936c/sc/1/rc/3/rc.htm" rel="nofollow"><img border="0" src="http://da.feedsportal.com/r/199120484668/u/94/f/647165/c/34977/s/3c60936c/sc/1/rc/3/rc.img" /></a><br /><br /><a href="http://da.feedsportal.com/r/199120484668/u/94/f/647165/c/34977/s/3c60936c/sc/1/a2.htm"><img border="0" src="http://da.feedsportal.com/r/199120484668/u/94/f/647165/c/34977/s/3c60936c/sc/1/a2.img" /></a><img border="0" height="1" src="http://pi.feedsportal.com/r/199120484668/u/94/f/647165/c/34977/s/3c60936c/sc/1/a2t.img" width="1" /><img height="1" src="http://feeds.feedburner.com/~r/lifehacker/full/~4/0mMDx7UzAes" width="1" />
p504
stRp505
sg22
(lp506
g1
(g2
g3
(dp507
g25
Vhttp://feeds.gawker.com/~r/lifehacker/full/~3/0mMDx7UzAes/+andyoooo
p508
sg27
g28
sg29
g30
stRp509
asg15
g16
((I2014
I7
I10
I19
I30
I0
I3
I191
I0
t(dtRp510
sg18
V\u200bAsk Dr. Nerdlove: Should I Give Him A Second Chance?
p511
sS'feedburner_origlink'
p512
Vhttp://kotaku.com/ask-dr-nerdlove-should-i-give-him-a-second-chance-1603088414/+andyoooo
p513
sg127
(lp514
g1
(g2
g3
(dp515
g130
Vask dr nerdlove
p516
sg132
Nsg133
NstRp517
ag1
(g2
g3
(dp518
g130
Vdating
p519
sg132
Nsg133
NstRp520
ag1
(g2
g3
(dp521
g130
Vadvice
p522
sg132
Nsg133
NstRp523
asg156
g504
sg157
I00
sS'title_detail'
p524
g1
(g2
g3
(dp525
g52
Vhttp://feeds.gawker.com/lifehacker/full
p526
sg27
g60
sg13
Nsg55
g511
stRp527
sg67
g508
sg162
VHarris O'Malley on Kotaku, shared by Andy Orin to Lifehacker
p528
sg20
VThu, 10 Jul 2014 19:30:00 GMT
p529
sg165
(lp530
g1
(g2
g3
(dtRp531
asS'author_detail'
p532
g1
(g2
g3
(dp533
g170
g528
stRp534
sg172
Vhttp://feeds.gawker.com/lifehacker/1603088414
p535
stRp536
ag1
(g2
g3
(dp537
S'summary_detail'
p538
g1
(g2
g3
(dp539
g52
Vhttp://feeds.gawker.com/lifehacker/full
p540
sg27
g54
sg13
Nsg55
V<p class="has-media media-640"><img alt="Keep a Fact Book of Things You Learn Throughout the Day" class="transform-original" height="359" src="http://i.kinja-img.com/gawker-media/image/upload/s--C5pw62Ne--/fuyzzdojmtqklukwn3qc.jpg" width="636" /></p> <p class="first-text">Learning is as <a href="http://lifehacker.com/the-science-behind-how-we-learn-new-skills-908488422">good for your brain</a>  as exercise is for your body. Even if you're learning a new and unfamiliar skill, it <a href="http://lifehacker.com/learning-new-and-unfamiliar-skills-can-improve-memory-1477859256">can help your memory</a> . Give your brain a bit of extra help by writing down new things you've learned throughout the day.</p><p><a href="http://lifehacker.com/keep-a-fact-book-of-things-you-learn-throughout-the-day-1603037499">Read more...</a></p><img border="0" height="1" src="http://lifehacker.feedsportal.com/c/34977/f/647165/s/3c5fa982/sc/36/mf.gif" width="1" /><br clear="all" /><br /><br /><a href="http://da.feedsportal.com/r/199120595315/u/94/f/647165/c/34977/s/3c5fa982/sc/36/rc/1/rc.htm" rel="nofollow"><img border="0" src="http://da.feedsportal.com/r/199120595315/u/94/f/647165/c/34977/s/3c5fa982/sc/36/rc/1/rc.img" /></a><br /><a href="http://da.feedsportal.com/r/199120595315/u/94/f/647165/c/34977/s/3c5fa982/sc/36/rc/2/rc.htm" rel="nofollow"><img border="0" src="http://da.feedsportal.com/r/199120595315/u/94/f/647165/c/34977/s/3c5fa982/sc/36/rc/2/rc.img" /></a><br /><a href="http://da.feedsportal.com/r/199120595315/u/94/f/647165/c/34977/s/3c5fa982/sc/36/rc/3/rc.htm" rel="nofollow"><img border="0" src="http://da.feedsportal.com/r/199120595315/u/94/f/647165/c/34977/s/3c5fa982/sc/36/rc/3/rc.img" /></a><br /><br /><a href="http://da.feedsportal.com/r/199120595315/u/94/f/647165/c/34977/s/3c5fa982/sc/36/a2.htm"><img border="0" src="http://da.feedsportal.com/r/199120595315/u/94/f/647165/c/34977/s/3c5fa982/sc/36/a2.img" /></a><img border="0" height="1" src="http://pi.feedsportal.com/r/199120595315/u/94/f/647165/c/34977/s/3c5fa982/sc/36/a2t.img" width="1" /><img height="1" src="http://feeds.feedburner.com/~r/lifehacker/full/~4/co0sosjWvXo" width="1" />
p541
stRp542
sg22
(lp543
g1
(g2
g3
(dp544
g25
Vhttp://feeds.gawker.com/~r/lifehacker/full/~3/co0sosjWvXo/keep-a-fact-book-of-things-you-learn-throughout-the-day-1603037499
p545
sg27
g28
sg29
g30
stRp546
asg15
g16
((I2014
I7
I10
I19
I30
I0
I3
I191
I0
t(dtRp547
sg18
VKeep a Fact Book of Things You Learn Throughout the Day
p548
sS'feedburner_origlink'
p549
Vhttp://lifehacker.com/keep-a-fact-book-of-things-you-learn-throughout-the-day-1603037499
p550
sg127
(lp551
g1
(g2
g3
(dp552
g130
Vwriting
p553
sg132
Nsg133
NstRp554
ag1
(g2
g3
(dp555
g130
Vlearning
p556
sg132
Nsg133
NstRp557
ag1
(g2
g3
(dp558
g130
Vknowledge
p559
sg132
Nsg133
NstRp560
ag1
(g2
g3
(dp561
g130
Vmemory
p562
sg132
Nsg133
NstRp563
ag1
(g2
g3
(dp564
g130
Veducation
p565
sg132
Nsg133
NstRp566
asg156
g541
sg157
I00
sS'title_detail'
p567
g1
(g2
g3
(dp568
g52
Vhttp://feeds.gawker.com/lifehacker/full
p569
sg27
g60
sg13
Nsg55
g548
stRp570
sg67
g545
sg162
VEric Ravenscraft
p571
sg20
VThu, 10 Jul 2014 19:30:00 GMT
p572
sg165
(lp573
g1
(g2
g3
(dtRp574
asS'author_detail'
p575
g1
(g2
g3
(dp576
g170
g571
stRp577
sg172
Vhttp://feeds.gawker.com/lifehacker/1603037499
p578
stRp579
ag1
(g2
g3
(dp580
S'summary_detail'
p581
g1
(g2
g3
(dp582
g52
Vhttp://feeds.gawker.com/lifehacker/full
p583
sg27
g54
sg13
Nsg55
V<p class="has-media media-640"><img alt="Stand Up To Tackle Abstract Problems, Sit to Work on Practical Matters" class="transform-original" height="358" src="http://i.kinja-img.com/gawker-media/image/upload/s--T4x3uKgu--/hl2csgdvhbjrwh4swqzk.jpg" width="636" /></p> <p class="first-text">You may be able to work on abstract problems better if you stand up, but sit down when it's time to roll up your sleeves. A series of studies found that your elevation has an impact on your mindset and how you tackle problems.</p><p><a href="http://lifehacker.com/stand-up-to-tackle-abstract-problems-sit-to-work-on-pr-1603104251">Read more...</a></p><img border="0" height="1" src="http://lifehacker.feedsportal.com/c/34977/f/647165/s/3c5ff113/sc/7/mf.gif" width="1" /><br clear="all" /><br /><br /><a href="http://da.feedsportal.com/r/199109382298/u/94/f/647165/c/34977/s/3c5ff113/sc/7/rc/1/rc.htm" rel="nofollow"><img border="0" src="http://da.feedsportal.com/r/199109382298/u/94/f/647165/c/34977/s/3c5ff113/sc/7/rc/1/rc.img" /></a><br /><a href="http://da.feedsportal.com/r/199109382298/u/94/f/647165/c/34977/s/3c5ff113/sc/7/rc/2/rc.htm" rel="nofollow"><img border="0" src="http://da.feedsportal.com/r/199109382298/u/94/f/647165/c/34977/s/3c5ff113/sc/7/rc/2/rc.img" /></a><br /><a href="http://da.feedsportal.com/r/199109382298/u/94/f/647165/c/34977/s/3c5ff113/sc/7/rc/3/rc.htm" rel="nofollow"><img border="0" src="http://da.feedsportal.com/r/199109382298/u/94/f/647165/c/34977/s/3c5ff113/sc/7/rc/3/rc.img" /></a><br /><br /><a href="http://da.feedsportal.com/r/199109382298/u/94/f/647165/c/34977/s/3c5ff113/sc/7/a2.htm"><img border="0" src="http://da.feedsportal.com/r/199109382298/u/94/f/647165/c/34977/s/3c5ff113/sc/7/a2.img" /></a><img border="0" height="1" src="http://pi.feedsportal.com/r/199109382298/u/94/f/647165/c/34977/s/3c5ff113/sc/7/a2t.img" width="1" /><img height="1" src="http://feeds.feedburner.com/~r/lifehacker/full/~4/Vm3H82CizY4" width="1" />
p584
stRp585
sg22
(lp586
g1
(g2
g3
(dp587
g25
Vhttp://feeds.gawker.com/~r/lifehacker/full/~3/Vm3H82CizY4/stand-up-to-tackle-abstract-problems-sit-to-work-on-pr-1603104251
p588
sg27
g28
sg29
g30
stRp589
asg15
g16
((I2014
I7
I10
I19
I0
I0
I3
I191
I0
t(dtRp590
sg18
VStand Up To Tackle Abstract Problems, Sit to Work on Practical Matters
p591
sS'feedburner_origlink'
p592
Vhttp://lifehacker.com/stand-up-to-tackle-abstract-problems-sit-to-work-on-pr-1603104251
p593
sg127
(lp594
g1
(g2
g3
(dp595
g130
Vproblem solving
p596
sg132
Nsg133
NstRp597
ag1
(g2
g3
(dp598
g130
Vproductivity
p599
sg132
Nsg133
NstRp600
ag1
(g2
g3
(dp601
g130
Vstudies
p602
sg132
Nsg133
NstRp603
ag1
(g2
g3
(dp604
g130
Vmind hacks
p605
sg132
Nsg133
NstRp606
ag1
(g2
g3
(dp607
g130
Vscience
p608
sg132
Nsg133
NstRp609
asg156
g584
sg157
I00
sS'title_detail'
p610
g1
(g2
g3
(dp611
g52
Vhttp://feeds.gawker.com/lifehacker/full
p612
sg27
g60
sg13
Nsg55
g591
stRp613
sg67
g588
sg162
VMark Wilson
p614
sg20
VThu, 10 Jul 2014 19:00:00 GMT
p615
sg165
(lp616
g1
(g2
g3
(dtRp617
asS'author_detail'
p618
g1
(g2
g3
(dp619
g170
g614
stRp620
sg172
Vhttp://feeds.gawker.com/lifehacker/1603104251
p621
stRp622
ag1
(g2
g3
(dp623
S'summary_detail'
p624
g1
(g2
g3
(dp625
g52
Vhttp://feeds.gawker.com/lifehacker/full
p626
sg27
g54
sg13
Nsg55
V<p class="has-media media-640"><img alt="Send Your Kindle Book Notes and Highlighted Passages to Evernote" class="transform-original" height="358" src="http://i.kinja-img.com/gawker-media/image/upload/s--U8T0AFvM--/a3zgdtthdgvh5wulvp43.jpg" width="636" /></p> <p class="first-text">Are you an active Kindle reader who takes notes and highlights passages for later reference? Then even if you're not sure <a href="http://lifehacker.com/5964285/whats-all-the-fuss-about-evernote-why-do-people-use-it">what the fuss is all about Evernote</a> , you might want to pair Evernote with your Kindle to have all those book quotes and information in one place.</p><p><a href="http://lifehacker.com/send-your-kindle-book-notes-and-highlighted-passages-to-1603016995">Read more...</a></p><img border="0" height="1" src="http://lifehacker.feedsportal.com/c/34977/f/647165/s/3c5fe755/sc/4/mf.gif" width="1" /><br clear="all" /><br /><br /><a href="http://da.feedsportal.com/r/199109381288/u/94/f/647165/c/34977/s/3c5fe755/sc/4/rc/1/rc.htm" rel="nofollow"><img border="0" src="http://da.feedsportal.com/r/199109381288/u/94/f/647165/c/34977/s/3c5fe755/sc/4/rc/1/rc.img" /></a><br /><a href="http://da.feedsportal.com/r/199109381288/u/94/f/647165/c/34977/s/3c5fe755/sc/4/rc/2/rc.htm" rel="nofollow"><img border="0" src="http://da.feedsportal.com/r/199109381288/u/94/f/647165/c/34977/s/3c5fe755/sc/4/rc/2/rc.img" /></a><br /><a href="http://da.feedsportal.com/r/199109381288/u/94/f/647165/c/34977/s/3c5fe755/sc/4/rc/3/rc.htm" rel="nofollow"><img border="0" src="http://da.feedsportal.com/r/199109381288/u/94/f/647165/c/34977/s/3c5fe755/sc/4/rc/3/rc.img" /></a><br /><br /><a href="http://da.feedsportal.com/r/199109381288/u/94/f/647165/c/34977/s/3c5fe755/sc/4/a2.htm"><img border="0" src="http://da.feedsportal.com/r/199109381288/u/94/f/647165/c/34977/s/3c5fe755/sc/4/a2.img" /></a><img border="0" height="1" src="http://pi.feedsportal.com/r/199109381288/u/94/f/647165/c/34977/s/3c5fe755/sc/4/a2t.img" width="1" /><img height="1" src="http://feeds.feedburner.com/~r/lifehacker/full/~4/31ngw8xH9NQ" width="1" />
p627
stRp628
sg22
(lp629
g1
(g2
g3
(dp630
g25
Vhttp://feeds.gawker.com/~r/lifehacker/full/~3/31ngw8xH9NQ/send-your-kindle-book-notes-and-highlighted-passages-to-1603016995
p631
sg27
g28
sg29
g30
stRp632
asg15
g16
((I2014
I7
I10
I18
I30
I0
I3
I191
I0
t(dtRp633
sg18
VSend Your Kindle Book Notes and Highlighted Passages to Evernote
p634
sS'feedburner_origlink'
p635
Vhttp://lifehacker.com/send-your-kindle-book-notes-and-highlighted-passages-to-1603016995
p636
sg127
(lp637
g1
(g2
g3
(dp638
g130
Vevernote
p639
sg132
Nsg133
NstRp640
ag1
(g2
g3
(dp641
g130
Vkindle
p642
sg132
Nsg133
NstRp643
ag1
(g2
g3
(dp644
g130
Vbooks
p645
sg132
Nsg133
NstRp646
ag1
(g2
g3
(dp647
g130
Vreading
p648
sg132
Nsg133
NstRp649
asg156
g627
sg157
I00
sS'title_detail'
p650
g1
(g2
g3
(dp651
g52
Vhttp://feeds.gawker.com/lifehacker/full
p652
sg27
g60
sg13
Nsg55
g634
stRp653
sg67
g631
sg162
VMelanie Pinola
p654
sg20
VThu, 10 Jul 2014 18:30:00 GMT
p655
sg165
(lp656
g1
(g2
g3
(dtRp657
asS'author_detail'
p658
g1
(g2
g3
(dp659
g170
g654
stRp660
sg172
Vhttp://feeds.gawker.com/lifehacker/1603016995
p661
stRp662
ag1
(g2
g3
(dp663
S'summary_detail'
p664
g1
(g2
g3
(dp665
g52
Vhttp://feeds.gawker.com/lifehacker/full
p666
sg27
g54
sg13
Nsg55
V<p class="has-media media-640"><img alt="This Interactive Chart Shows the Most Prominent Jobs by Salary, State" class="transform-original" height="358" src="http://i.kinja-img.com/gawker-media/image/upload/s--XxAcwzY6--/rsq0d46im3gaxjiziav0.jpg" width="636" /></p> <p class="first-text">Where's the money at in your state? Are there a lot of tech jobs? Is the arts and entertainment industry well represented? Flowing Data's interactive chart answers questions like these.</p><p><a href="http://lifehacker.com/this-interactive-chart-shows-the-most-prominent-jobs-by-1603001285">Read more...</a></p><img border="0" height="1" src="http://lifehacker.feedsportal.com/c/34977/f/647165/s/3c5fc698/sc/4/mf.gif" width="1" /><br clear="all" /><br /><br /><a href="http://da.feedsportal.com/r/199120256786/u/94/f/647165/c/34977/s/3c5fc698/sc/4/rc/1/rc.htm" rel="nofollow"><img border="0" src="http://da.feedsportal.com/r/199120256786/u/94/f/647165/c/34977/s/3c5fc698/sc/4/rc/1/rc.img" /></a><br /><a href="http://da.feedsportal.com/r/199120256786/u/94/f/647165/c/34977/s/3c5fc698/sc/4/rc/2/rc.htm" rel="nofollow"><img border="0" src="http://da.feedsportal.com/r/199120256786/u/94/f/647165/c/34977/s/3c5fc698/sc/4/rc/2/rc.img" /></a><br /><a href="http://da.feedsportal.com/r/199120256786/u/94/f/647165/c/34977/s/3c5fc698/sc/4/rc/3/rc.htm" rel="nofollow"><img border="0" src="http://da.feedsportal.com/r/199120256786/u/94/f/647165/c/34977/s/3c5fc698/sc/4/rc/3/rc.img" /></a><br /><br /><a href="http://da.feedsportal.com/r/199120256786/u/94/f/647165/c/34977/s/3c5fc698/sc/4/a2.htm"><img border="0" src="http://da.feedsportal.com/r/199120256786/u/94/f/647165/c/34977/s/3c5fc698/sc/4/a2.img" /></a><img border="0" height="1" src="http://pi.feedsportal.com/r/199120256786/u/94/f/647165/c/34977/s/3c5fc698/sc/4/a2t.img" width="1" /><img height="1" src="http://feeds.feedburner.com/~r/lifehacker/full/~4/mFgry2AGfzc" width="1" />
p667
stRp668
sg22
(lp669
g1
(g2
g3
(dp670
g25
Vhttp://feeds.gawker.com/~r/lifehacker/full/~3/mFgry2AGfzc/this-interactive-chart-shows-the-most-prominent-jobs-by-1603001285
p671
sg27
g28
sg29
g30
stRp672
asg15
g16
((I2014
I7
I10
I18
I0
I0
I3
I191
I0
t(dtRp673
sg18
VThis Interactive Chart Shows the Most Prominent Jobs by Salary, State
p674
sS'feedburner_origlink'
p675
Vhttp://lifehacker.com/this-interactive-chart-shows-the-most-prominent-jobs-by-1603001285
p676
sg127
(lp677
g1
(g2
g3
(dp678
g130
Vjobs
p679
sg132
Nsg133
NstRp680
ag1
(g2
g3
(dp681
g130
Vmoving
p682
sg132
Nsg133
NstRp683
ag1
(g2
g3
(dp684
g130
Vlife planning
p685
sg132
Nsg133
NstRp686
ag1
(g2
g3
(dp687
g130
Vcareer
p688
sg132
Nsg133
NstRp689
ag1
(g2
g3
(dp690
g130
Vcharts
p691
sg132
Nsg133
NstRp692
asg156
g667
sg157
I00
sS'title_detail'
p693
g1
(g2
g3
(dp694
g52
Vhttp://feeds.gawker.com/lifehacker/full
p695
sg27
g60
sg13
Nsg55
g674
stRp696
sg67
g671
sg162
VMelanie Pinola
p697
sg20
VThu, 10 Jul 2014 18:00:00 GMT
p698
sg165
(lp699
g1
(g2
g3
(dtRp700
asS'author_detail'
p701
g1
(g2
g3
(dp702
g170
g697
stRp703
sg172
Vhttp://feeds.gawker.com/lifehacker/1603001285
p704
stRp705
ag1
(g2
g3
(dp706
S'summary_detail'
p707
g1
(g2
g3
(dp708
g52
Vhttp://feeds.gawker.com/lifehacker/full
p709
sg27
g54
sg13
Nsg55
V<p class="has-media media-640"><img alt="The 80% Rule: Cutting Back on Work Makes You Work Better" class="transform-original" height="358" src="http://i.kinja-img.com/gawker-media/image/upload/s--c_SCzurT--/cylfogsfjmwgvtqbc2xk.jpg" width="636" /></p> <p class="first-text">Okinawans, some of the healthiest people in the world, follow a tradition called <em>hara hachi bu</em>, which means they eat until they're 80% full. Justin Jackson applied this principle beyond dieting to his work and found enormous benefits.</p><p><a href="http://lifehacker.com/the-80-rule-cutting-back-on-work-makes-you-work-bette-1602976354">Read more...</a></p><img border="0" height="1" src="http://lifehacker.feedsportal.com/c/34977/f/647165/s/3c5fb084/sc/14/mf.gif" width="1" /><br clear="all" /><br /><br /><a href="http://da.feedsportal.com/r/199120596120/u/94/f/647165/c/34977/s/3c5fb084/sc/14/rc/1/rc.htm" rel="nofollow"><img border="0" src="http://da.feedsportal.com/r/199120596120/u/94/f/647165/c/34977/s/3c5fb084/sc/14/rc/1/rc.img" /></a><br /><a href="http://da.feedsportal.com/r/199120596120/u/94/f/647165/c/34977/s/3c5fb084/sc/14/rc/2/rc.htm" rel="nofollow"><img border="0" src="http://da.feedsportal.com/r/199120596120/u/94/f/647165/c/34977/s/3c5fb084/sc/14/rc/2/rc.img" /></a><br /><a href="http://da.feedsportal.com/r/199120596120/u/94/f/647165/c/34977/s/3c5fb084/sc/14/rc/3/rc.htm" rel="nofollow"><img border="0" src="http://da.feedsportal.com/r/199120596120/u/94/f/647165/c/34977/s/3c5fb084/sc/14/rc/3/rc.img" /></a><br /><br /><a href="http://da.feedsportal.com/r/199120596120/u/94/f/647165/c/34977/s/3c5fb084/sc/14/a2.htm"><img border="0" src="http://da.feedsportal.com/r/199120596120/u/94/f/647165/c/34977/s/3c5fb084/sc/14/a2.img" /></a><img border="0" height="1" src="http://pi.feedsportal.com/r/199120596120/u/94/f/647165/c/34977/s/3c5fb084/sc/14/a2t.img" width="1" /><img height="1" src="http://feeds.feedburner.com/~r/lifehacker/full/~4/VWj_HOse4JU" width="1" />
p710
stRp711
sg22
(lp712
g1
(g2
g3
(dp713
g25
Vhttp://feeds.gawker.com/~r/lifehacker/full/~3/VWj_HOse4JU/the-80-rule-cutting-back-on-work-makes-you-work-bette-1602976354
p714
sg27
g28
sg29
g30
stRp715
asg15
g16
((I2014
I7
I10
I17
I30
I0
I3
I191
I0
t(dtRp716
sg18
VThe 80% Rule: Cutting Back on Work Makes You Work Better
p717
sS'feedburner_origlink'
p718
Vhttp://lifehacker.com/the-80-rule-cutting-back-on-work-makes-you-work-bette-1602976354
p719
sg127
(lp720
g1
(g2
g3
(dp721
g130
Venergy
p722
sg132
Nsg133
NstRp723
ag1
(g2
g3
(dp724
g130
Vhealth
p725
sg132
Nsg133
NstRp726
ag1
(g2
g3
(dp727
g130
Vproductivity
p728
sg132
Nsg133
NstRp729
ag1
(g2
g3
(dp730
g130
Vtime management
p731
sg132
Nsg133
NstRp732
asg156
g710
sg157
I00
sS'title_detail'
p733
g1
(g2
g3
(dp734
g52
Vhttp://feeds.gawker.com/lifehacker/full
p735
sg27
g60
sg13
Nsg55
g717
stRp736
sg67
g714
sg162
VMelanie Pinola
p737
sg20
VThu, 10 Jul 2014 17:30:00 GMT
p738
sg165
(lp739
g1
(g2
g3
(dtRp740
asS'author_detail'
p741
g1
(g2
g3
(dp742
g170
g737
stRp743
sg172
Vhttp://feeds.gawker.com/lifehacker/1602976354
p744
stRp745
ag1
(g2
g3
(dp746
S'summary_detail'
p747
g1
(g2
g3
(dp748
g52
Vhttp://feeds.gawker.com/lifehacker/full
p749
sg27
g54
sg13
Nsg55
V<p class="has-media media-640"><img alt="Deals: DIY Aereo, Lauded Bluetooth Headphones, Faster Bacon, Backpacks" class="transform-ku-xlarge" height="357" src="http://i.kinja-img.com/gawker-media/image/upload/s--URNe8zYE--/c_fit,fl_progressive,q_80,w_636/mylmkwshau3qeq6gkaho.jpg" width="636" /></p> <p class="first-text"> These <a href="http://go.redirectingat.com?id=33330X911647&amp;xs=1&amp;url=http%3A%2F%2Fwww.amazon.com%2Fgp%2Fproduct%2FB00BFO14W8&amp;sref=skimrss" target="_blank">wireless on-ears from Jabra</a> are the <a href="http://thewirecutter.com/reviews/best-bluetooth-on-or-over-ear-headphones/" target="_blank">Wirecutter's favorite Bluetooth headphones</a>, and you can <a href="http://go.redirectingat.com?id=33330X911647&amp;xs=1&amp;url=http%3A%2F%2Fwww.amazon.com%2Fgp%2Fproduct%2FB00BFO14W8&amp;sref=skimrss" target="_blank">own a pair for just $140 today</a>. They usually sell for over $200, so we don't expect this deal to last long. [<a href="http://go.redirectingat.com?id=33330X911647&amp;xs=1&amp;url=http%3A%2F%2Fwww.amazon.com%2Fgp%2Fproduct%2FB00BFO14W8&amp;sref=skimrss" target="_blank">Jabra REVO Bluetooth Headphones</a>, $140]</p><p><a href="http://lifehacker.com/deals-diy-aereo-lauded-bluetooth-headphones-faster-b-1603026619">Read more...</a></p><img border="0" height="1" src="http://lifehacker.feedsportal.com/c/34977/f/647165/s/3c5f3fca/sc/15/mf.gif" width="1" /><br clear="all" /><br /><br /><a href="http://da.feedsportal.com/r/199107901985/u/94/f/647165/c/34977/s/3c5f3fca/sc/15/rc/1/rc.htm" rel="nofollow"><img border="0" src="http://da.feedsportal.com/r/199107901985/u/94/f/647165/c/34977/s/3c5f3fca/sc/15/rc/1/rc.img" /></a><br /><a href="http://da.feedsportal.com/r/199107901985/u/94/f/647165/c/34977/s/3c5f3fca/sc/15/rc/2/rc.htm" rel="nofollow"><img border="0" src="http://da.feedsportal.com/r/199107901985/u/94/f/647165/c/34977/s/3c5f3fca/sc/15/rc/2/rc.img" /></a><br /><a href="http://da.feedsportal.com/r/199107901985/u/94/f/647165/c/34977/s/3c5f3fca/sc/15/rc/3/rc.htm" rel="nofollow"><img border="0" src="http://da.feedsportal.com/r/199107901985/u/94/f/647165/c/34977/s/3c5f3fca/sc/15/rc/3/rc.img" /></a><br /><br /><a href="http://da.feedsportal.com/r/199107901985/u/94/f/647165/c/34977/s/3c5f3fca/sc/15/a2.htm"><img border="0" src="http://da.feedsportal.com/r/199107901985/u/94/f/647165/c/34977/s/3c5f3fca/sc/15/a2.img" /></a><img border="0" height="1" src="http://pi.feedsportal.com/r/199107901985/u/94/f/647165/c/34977/s/3c5f3fca/sc/15/a2t.img" width="1" /><img height="1" src="http://feeds.feedburner.com/~r/lifehacker/full/~4/53Si7dzU8zs" width="1" />
p750
stRp751
sg22
(lp752
g1
(g2
g3
(dp753
g25
Vhttp://feeds.gawker.com/~r/lifehacker/full/~3/53Si7dzU8zs/deals-diy-aereo-lauded-bluetooth-headphones-faster-b-1603026619
p754
sg27
g28
sg29
g30
stRp755
asg15
g16
((I2014
I7
I10
I17
I15
I0
I3
I191
I0
t(dtRp756
sg18
VDeals: DIY Aereo, Lauded Bluetooth Headphones, Faster Bacon, Backpacks
p757
sS'feedburner_origlink'
p758
Vhttp://lifehacker.com/deals-diy-aereo-lauded-bluetooth-headphones-faster-b-1603026619
p759
sg127
(lp760
g1
(g2
g3
(dp761
g130
Vdealhacker
p762
sg132
Nsg133
NstRp763
ag1
(g2
g3
(dp764
g130
Vdeals
p765
sg132
Nsg133
NstRp766
ag1
(g2
g3
(dp767
g130
Vlifehacker deals
p768
sg132
Nsg133
NstRp769
asg156
g750
sg157
I00
sS'title_detail'
p770
g1
(g2
g3
(dp771
g52
Vhttp://feeds.gawker.com/lifehacker/full
p772
sg27
g60
sg13
Nsg55
g757
stRp773
sg67
g754
sg162
VShep McAllister, Commerce Team
p774
sg20
VThu, 10 Jul 2014 17:15:00 GMT
p775
sg165
(lp776
g1
(g2
g3
(dtRp777
asS'author_detail'
p778
g1
(g2
g3
(dp779
g170
g774
stRp780
sg172
Vhttp://feeds.gawker.com/lifehacker/1603026619
p781
stRp782
ag1
(g2
g3
(dp783
S'summary_detail'
p784
g1
(g2
g3
(dp785
g52
Vhttp://feeds.gawker.com/lifehacker/full
p786
sg27
g54
sg13
Nsg55
V<p class="has-media media-640"><img alt="The Easiest, Cheapest Ways to Prep Your Home for a Quick Sale" class="transform-ku-xlarge" height="357" src="http://i.kinja-img.com/gawker-media/image/upload/s--WHncLqFL--/c_fit,fl_progressive,q_80,w_636/q46vclkjmkgxtazzhn18.jpg" width="636" /></p> <p class="first-text">You don't need a ton of money to make your home look better to potential buyers. Here are a few inexpensive things you can do, which could make all the difference when it comes to selling your home.</p><p><a href="http://lifehacker.com/the-easiest-cheapest-ways-to-prep-your-home-for-a-quic-1602951130">Read more...</a></p><img border="0" height="1" src="http://lifehacker.feedsportal.com/c/34977/f/647165/s/3c5f3fd0/sc/22/mf.gif" width="1" /><br clear="all" /><br /><br /><a href="http://da.feedsportal.com/r/199107901984/u/94/f/647165/c/34977/s/3c5f3fd0/sc/22/rc/1/rc.htm" rel="nofollow"><img border="0" src="http://da.feedsportal.com/r/199107901984/u/94/f/647165/c/34977/s/3c5f3fd0/sc/22/rc/1/rc.img" /></a><br /><a href="http://da.feedsportal.com/r/199107901984/u/94/f/647165/c/34977/s/3c5f3fd0/sc/22/rc/2/rc.htm" rel="nofollow"><img border="0" src="http://da.feedsportal.com/r/199107901984/u/94/f/647165/c/34977/s/3c5f3fd0/sc/22/rc/2/rc.img" /></a><br /><a href="http://da.feedsportal.com/r/199107901984/u/94/f/647165/c/34977/s/3c5f3fd0/sc/22/rc/3/rc.htm" rel="nofollow"><img border="0" src="http://da.feedsportal.com/r/199107901984/u/94/f/647165/c/34977/s/3c5f3fd0/sc/22/rc/3/rc.img" /></a><br /><br /><a href="http://da.feedsportal.com/r/199107901984/u/94/f/647165/c/34977/s/3c5f3fd0/sc/22/a2.htm"><img border="0" src="http://da.feedsportal.com/r/199107901984/u/94/f/647165/c/34977/s/3c5f3fd0/sc/22/a2.img" /></a><img border="0" height="1" src="http://pi.feedsportal.com/r/199107901984/u/94/f/647165/c/34977/s/3c5f3fd0/sc/22/a2t.img" width="1" /><img height="1" src="http://feeds.feedburner.com/~r/lifehacker/full/~4/cSmy8hXnS8U" width="1" />
p787
stRp788
sg22
(lp789
g1
(g2
g3
(dp790
g25
Vhttp://feeds.gawker.com/~r/lifehacker/full/~3/cSmy8hXnS8U/the-easiest-cheapest-ways-to-prep-your-home-for-a-quic-1602951130
p791
sg27
g28
sg29
g30
stRp792
asg15
g16
((I2014
I7
I10
I17
I0
I0
I3
I191
I0
t(dtRp793
sg18
VThe Easiest, Cheapest Ways to Prep Your Home for a Quick Sale
p794
sS'feedburner_origlink'
p795
Vhttp://lifehacker.com/the-easiest-cheapest-ways-to-prep-your-home-for-a-quic-1602951130
p796
sg127
(lp797
g1
(g2
g3
(dp798
g130
Vselling
p799
sg132
Nsg133
NstRp800
ag1
(g2
g3
(dp801
g130
Vcleaning
p802
sg132
Nsg133
NstRp803
ag1
(g2
g3
(dp804
g130
Vhomeownership
p805
sg132
Nsg133
NstRp806
ag1
(g2
g3
(dp807
g130
Vhome selling
p808
sg132
Nsg133
NstRp809
ag1
(g2
g3
(dp810
g130
Vclutter
p811
sg132
Nsg133
NstRp812
ag1
(g2
g3
(dp813
g130
Vhousehold
p814
sg132
Nsg133
NstRp815
asg156
g787
sg157
I00
sS'title_detail'
p816
g1
(g2
g3
(dp817
g52
Vhttp://feeds.gawker.com/lifehacker/full
p818
sg27
g60
sg13
Nsg55
g794
stRp819
sg67
g791
sg162
VMelanie Pinola
p820
sg20
VThu, 10 Jul 2014 17:00:00 GMT
p821
sg165
(lp822
g1
(g2
g3
(dtRp823
asS'author_detail'
p824
g1
(g2
g3
(dp825
g170
g820
stRp826
sg172
Vhttp://feeds.gawker.com/lifehacker/1602951130
p827
stRp828
ag1
(g2
g3
(dp829
S'summary_detail'
p830
g1
(g2
g3
(dp831
g52
Vhttp://feeds.gawker.com/lifehacker/full
p832
sg27
g54
sg13
Nsg55
V<p class="has-media media-640"><img alt="Workflows Makes Collaborating on Documents in Google Docs Easier" class="transform-original" height="358" src="http://i.kinja-img.com/gawker-media/image/upload/s--vulzjKCn--/igb2aiteoqqoutjpnv7m.jpg" width="636" /></p> <p class="first-text">Chrome: When you collaborate on a project, you may need to have documents approved by other team members. Workflows is an add-on for Google Docs that brings this feature to Google's online office suite.</p><p><a href="http://lifehacker.com/workflows-makes-collaborating-on-documents-in-google-do-1603011688">Read more...</a></p><img border="0" height="1" src="http://lifehacker.feedsportal.com/c/34977/f/647165/s/3c5f196b/sc/4/mf.gif" width="1" /><br clear="all" /><br /><br /><a href="http://da.feedsportal.com/r/199120254733/u/94/f/647165/c/34977/s/3c5f196b/sc/4/rc/1/rc.htm" rel="nofollow"><img border="0" src="http://da.feedsportal.com/r/199120254733/u/94/f/647165/c/34977/s/3c5f196b/sc/4/rc/1/rc.img" /></a><br /><a href="http://da.feedsportal.com/r/199120254733/u/94/f/647165/c/34977/s/3c5f196b/sc/4/rc/2/rc.htm" rel="nofollow"><img border="0" src="http://da.feedsportal.com/r/199120254733/u/94/f/647165/c/34977/s/3c5f196b/sc/4/rc/2/rc.img" /></a><br /><a href="http://da.feedsportal.com/r/199120254733/u/94/f/647165/c/34977/s/3c5f196b/sc/4/rc/3/rc.htm" rel="nofollow"><img border="0" src="http://da.feedsportal.com/r/199120254733/u/94/f/647165/c/34977/s/3c5f196b/sc/4/rc/3/rc.img" /></a><br /><br /><a href="http://da.feedsportal.com/r/199120254733/u/94/f/647165/c/34977/s/3c5f196b/sc/4/a2.htm"><img border="0" src="http://da.feedsportal.com/r/199120254733/u/94/f/647165/c/34977/s/3c5f196b/sc/4/a2.img" /></a><img border="0" height="1" src="http://pi.feedsportal.com/r/199120254733/u/94/f/647165/c/34977/s/3c5f196b/sc/4/a2t.img" width="1" /><img height="1" src="http://feeds.feedburner.com/~r/lifehacker/full/~4/OHzJDU3n2SU" width="1" />
p833
stRp834
sg22
(lp835
g1
(g2
g3
(dp836
g25
Vhttp://feeds.gawker.com/~r/lifehacker/full/~3/OHzJDU3n2SU/workflows-makes-collaborating-on-documents-in-google-do-1603011688
p837
sg27
g28
sg29
g30
stRp838
asg15
g16
((I2014
I7
I10
I16
I30
I0
I3
I191
I0
t(dtRp839
sg18
VWorkflows Makes Collaborating on Documents in Google Docs Easier
p840
sS'feedburner_origlink'
p841
Vhttp://lifehacker.com/workflows-makes-collaborating-on-documents-in-google-do-1603011688
p842
sg127
(lp843
g1
(g2
g3
(dp844
g130
Vcollaboration
p845
sg132
Nsg133
NstRp846
ag1
(g2
g3
(dp847
g130
Vgoogle docs
p848
sg132
Nsg133
NstRp849
ag1
(g2
g3
(dp850
g130
Vproductivity
p851
sg132
Nsg133
NstRp852
ag1
(g2
g3
(dp853
g130
Vworkflows
p854
sg132
Nsg133
NstRp855
ag1
(g2
g3
(dp856
g130
Vadd-ons
p857
sg132
Nsg133
NstRp858
asg156
g833
sg157
I00
sS'title_detail'
p859
g1
(g2
g3
(dp860
g52
Vhttp://feeds.gawker.com/lifehacker/full
p861
sg27
g60
sg13
Nsg55
g840
stRp862
sg67
g837
sg162
VMark Wilson
p863
sg20
VThu, 10 Jul 2014 16:30:00 GMT
p864
sg165
(lp865
g1
(g2
g3
(dtRp866
asS'author_detail'
p867
g1
(g2
g3
(dp868
g170
g863
stRp869
sg172
Vhttp://feeds.gawker.com/lifehacker/1603011688
p870
stRp871
ag1
(g2
g3
(dp872
S'summary_detail'
p873
g1
(g2
g3
(dp874
g52
Vhttp://feeds.gawker.com/lifehacker/full
p875
sg27
g54
sg13
Nsg55
V<p class="has-media media-640"><img alt="\u200bStore Pre-Scrambled Eggs in a Bottle for No-Mess Camping Food" class="transform-original" height="358" src="http://i.kinja-img.com/gawker-media/image/upload/s--dm6-aC1u--/zcgfkt42ixfsgwjxp9bm.jpg" width="636" /></p> <p class="first-text">One of the joys of camping is cooking round the fire, and eggs make a great start to the day. To avoid breaking eggs in a bag or cooler, pre-scramble them and pour them into a resealable plastic bottle. They'll survive the trip, and won't make a mess when you cook them.</p><p><a href="http://lifehacker.com/store-pre-scrambled-eggs-in-a-bottle-for-no-mess-campi-1602965155">Read more...</a></p><img border="0" height="1" src="http://lifehacker.feedsportal.com/c/34977/f/647165/s/3c5eeebb/sc/36/mf.gif" width="1" /><br clear="all" /><br /><br /><a href="http://da.feedsportal.com/r/199120593989/u/94/f/647165/c/34977/s/3c5eeebb/sc/36/rc/1/rc.htm" rel="nofollow"><img border="0" src="http://da.feedsportal.com/r/199120593989/u/94/f/647165/c/34977/s/3c5eeebb/sc/36/rc/1/rc.img" /></a><br /><a href="http://da.feedsportal.com/r/199120593989/u/94/f/647165/c/34977/s/3c5eeebb/sc/36/rc/2/rc.htm" rel="nofollow"><img border="0" src="http://da.feedsportal.com/r/199120593989/u/94/f/647165/c/34977/s/3c5eeebb/sc/36/rc/2/rc.img" /></a><br /><a href="http://da.feedsportal.com/r/199120593989/u/94/f/647165/c/34977/s/3c5eeebb/sc/36/rc/3/rc.htm" rel="nofollow"><img border="0" src="http://da.feedsportal.com/r/199120593989/u/94/f/647165/c/34977/s/3c5eeebb/sc/36/rc/3/rc.img" /></a><br /><br /><a href="http://da.feedsportal.com/r/199120593989/u/94/f/647165/c/34977/s/3c5eeebb/sc/36/a2.htm"><img border="0" src="http://da.feedsportal.com/r/199120593989/u/94/f/647165/c/34977/s/3c5eeebb/sc/36/a2.img" /></a><img border="0" height="1" src="http://pi.feedsportal.com/r/199120593989/u/94/f/647165/c/34977/s/3c5eeebb/sc/36/a2t.img" width="1" /><img height="1" src="http://feeds.feedburner.com/~r/lifehacker/full/~4/TytrSF73KJc" width="1" />
p876
stRp877
sg22
(lp878
g1
(g2
g3
(dp879
g25
Vhttp://feeds.gawker.com/~r/lifehacker/full/~3/TytrSF73KJc/store-pre-scrambled-eggs-in-a-bottle-for-no-mess-campi-1602965155
p880
sg27
g28
sg29
g30
stRp881
asg15
g16
((I2014
I7
I10
I16
I0
I0
I3
I191
I0
t(dtRp882
sg18
V\u200bStore Pre-Scrambled Eggs in a Bottle for No-Mess Camping Food
p883
sS'feedburner_origlink'
p884
Vhttp://lifehacker.com/store-pre-scrambled-eggs-in-a-bottle-for-no-mess-campi-1602965155
p885
sg127
(lp886
g1
(g2
g3
(dp887
g130
Vchildren
p888
sg132
Nsg133
NstRp889
ag1
(g2
g3
(dp890
g130
Vcamping
p891
sg132
Nsg133
NstRp892
ag1
(g2
g3
(dp893
g130
Vfood
p894
sg132
Nsg133
NstRp895
ag1
(g2
g3
(dp896
g130
Vclever uses
p897
sg132
Nsg133
NstRp898
ag1
(g2
g3
(dp899
g130
Vcooking
p900
sg132
Nsg133
NstRp901
ag1
(g2
g3
(dp902
g130
Veggs
p903
sg132
Nsg133
NstRp904
ag1
(g2
g3
(dp905
g130
Voutdoors
p906
sg132
Nsg133
NstRp907
ag1
(g2
g3
(dp908
g130
Vkids
p909
sg132
Nsg133
NstRp910
ag1
(g2
g3
(dp911
g130
Vfood hacks
p912
sg132
Nsg133
NstRp913
asg156
g876
sg157
I00
sS'title_detail'
p914
g1
(g2
g3
(dp915
g52
Vhttp://feeds.gawker.com/lifehacker/full
p916
sg27
g60
sg13
Nsg55
g883
stRp917
sg67
g880
sg162
VMark Wilson
p918
sg20
VThu, 10 Jul 2014 16:00:00 GMT
p919
sg165
(lp920
g1
(g2
g3
(dtRp921
asS'author_detail'
p922
g1
(g2
g3
(dp923
g170
g918
stRp924
sg172
Vhttp://feeds.gawker.com/lifehacker/1602965155
p925
stRp926
ag1
(g2
g3
(dp927
S'summary_detail'
p928
g1
(g2
g3
(dp929
g52
Vhttp://feeds.gawker.com/lifehacker/full
p930
sg27
g54
sg13
Nsg55
V<p class="first-text">iTunes 11.3 was released today and includes improvements to iTunes Extras, Apple TV support for Extras features, and more. You can snag the update from <a href="http://go.redirectingat.com?id=33330X911647&amp;xs=1&amp;url=https%3A%2F%2Fwww.apple.com%2Fitunes%2Fdownload%2F&amp;sref=skimrss" target="_blank">Apple right now</a>.</p><p><a href="http://lifehacker.com/itunes-11-3-was-released-today-and-includes-improvement-1602991794">Read more...</a></p><img border="0" height="1" src="http://lifehacker.feedsportal.com/c/34977/f/647165/s/3c5ea3e1/sc/15/mf.gif" width="1" /><br clear="all" /><br /><br /><a href="http://da.feedsportal.com/r/199107899759/u/94/f/647165/c/34977/s/3c5ea3e1/sc/15/rc/1/rc.htm" rel="nofollow"><img border="0" src="http://da.feedsportal.com/r/199107899759/u/94/f/647165/c/34977/s/3c5ea3e1/sc/15/rc/1/rc.img" /></a><br /><a href="http://da.feedsportal.com/r/199107899759/u/94/f/647165/c/34977/s/3c5ea3e1/sc/15/rc/2/rc.htm" rel="nofollow"><img border="0" src="http://da.feedsportal.com/r/199107899759/u/94/f/647165/c/34977/s/3c5ea3e1/sc/15/rc/2/rc.img" /></a><br /><a href="http://da.feedsportal.com/r/199107899759/u/94/f/647165/c/34977/s/3c5ea3e1/sc/15/rc/3/rc.htm" rel="nofollow"><img border="0" src="http://da.feedsportal.com/r/199107899759/u/94/f/647165/c/34977/s/3c5ea3e1/sc/15/rc/3/rc.img" /></a><br /><br /><a href="http://da.feedsportal.com/r/199107899759/u/94/f/647165/c/34977/s/3c5ea3e1/sc/15/a2.htm"><img border="0" src="http://da.feedsportal.com/r/199107899759/u/94/f/647165/c/34977/s/3c5ea3e1/sc/15/a2.img" /></a><img border="0" height="1" src="http://pi.feedsportal.com/r/199107899759/u/94/f/647165/c/34977/s/3c5ea3e1/sc/15/a2t.img" width="1" /><img height="1" src="http://feeds.feedburner.com/~r/lifehacker/full/~4/is8jL12DHQ4" width="1" />
p931
stRp932
sg22
(lp933
g1
(g2
g3
(dp934
g25
Vhttp://feeds.gawker.com/~r/lifehacker/full/~3/is8jL12DHQ4/itunes-11-3-was-released-today-and-includes-improvement-1602991794
p935
sg27
g28
sg29
g30
stRp936
asg15
g16
((I2014
I7
I10
I15
I51
I34
I3
I191
I0
t(dtRp937
sg18
ViTunes 11.3 was released today and includes improvements to iTunes Extras, Apple TV support for Extr
p938
sS'feedburner_origlink'
p939
Vhttp://lifehacker.com/itunes-11-3-was-released-today-and-includes-improvement-1602991794
p940
sg127
(lp941
g1
(g2
g3
(dp942
g130
Vapple
p943
sg132
Nsg133
NstRp944
asg156
g931
sg157
I00
sS'title_detail'
p945
g1
(g2
g3
(dp946
g52
Vhttp://feeds.gawker.com/lifehacker/full
p947
sg27
g60
sg13
Nsg55
g938
stRp948
sg67
g935
sg162
VThorin Klosowski
p949
sg20
VThu, 10 Jul 2014 15:51:34 GMT
p950
sg165
(lp951
g1
(g2
g3
(dtRp952
asS'author_detail'
p953
g1
(g2
g3
(dp954
g170
g949
stRp955
sg172
Vhttp://feeds.gawker.com/lifehacker/1602991794
p956
stRp957
ag1
(g2
g3
(dp958
S'summary_detail'
p959
g1
(g2
g3
(dp960
g52
Vhttp://feeds.gawker.com/lifehacker/full
p961
sg27
g54
sg13
Nsg55
V<p class="has-media media-640"><img alt="Why We're Hooked On Social Networks" class="transform-ku-xlarge" height="357" src="http://i.kinja-img.com/gawker-media/image/upload/s--KN6T2uwY--/c_fit,fl_progressive,q_80,w_636/lvjxc6xwxwzaqclygk7s.jpg" width="636" /></p> <p class="first-text">Births, job losses, divorces, raises, vacations, successes, photos, drawings, articles, failures, and music: Social networks are places we share our stories. Sometimes those stories are personal, sometimes they're informative, other times they're just stupid. Let's take a look at why we feel compelled to do it.</p><p><a href="http://lifehacker.com/why-were-hooked-on-social-networks-1602703562">Read more...</a></p><img border="0" height="1" src="http://lifehacker.feedsportal.com/c/34977/f/647165/s/3c5e984f/mf.gif" width="1" /><br clear="all" /><br /><br /><a href="http://da.feedsportal.com/r/199107898325/u/94/f/647165/c/34977/s/3c5e984f/rc/1/rc.htm" rel="nofollow"><img border="0" src="http://da.feedsportal.com/r/199107898325/u/94/f/647165/c/34977/s/3c5e984f/rc/1/rc.img" /></a><br /><a href="http://da.feedsportal.com/r/199107898325/u/94/f/647165/c/34977/s/3c5e984f/rc/2/rc.htm" rel="nofollow"><img border="0" src="http://da.feedsportal.com/r/199107898325/u/94/f/647165/c/34977/s/3c5e984f/rc/2/rc.img" /></a><br /><a href="http://da.feedsportal.com/r/199107898325/u/94/f/647165/c/34977/s/3c5e984f/rc/3/rc.htm" rel="nofollow"><img border="0" src="http://da.feedsportal.com/r/199107898325/u/94/f/647165/c/34977/s/3c5e984f/rc/3/rc.img" /></a><br /><br /><a href="http://da.feedsportal.com/r/199107898325/u/94/f/647165/c/34977/s/3c5e984f/a2.htm"><img border="0" src="http://da.feedsportal.com/r/199107898325/u/94/f/647165/c/34977/s/3c5e984f/a2.img" /></a><img border="0" height="1" src="http://pi.feedsportal.com/r/199107898325/u/94/f/647165/c/34977/s/3c5e984f/a2t.img" width="1" /><img height="1" src="http://feeds.feedburner.com/~r/lifehacker/full/~4/g_KmK3_G9o8" width="1" />
p962
stRp963
sg22
(lp964
g1
(g2
g3
(dp965
g25
Vhttp://feeds.gawker.com/~r/lifehacker/full/~3/g_KmK3_G9o8/why-were-hooked-on-social-networks-1602703562
p966
sg27
g28
sg29
g30
stRp967
asg15
g16
((I2014
I7
I10
I15
I0
I0
I3
I191
I0
t(dtRp968
sg18
VWhy We're Hooked On Social Networks
p969
sS'feedburner_origlink'
p970
Vhttp://lifehacker.com/why-were-hooked-on-social-networks-1602703562
p971
sg127
(lp972
g1
(g2
g3
(dp973
g130
Vpsychology
p974
sg132
Nsg133
NstRp975
ag1
(g2
g3
(dp976
g130
Vfacebook
p977
sg132
Nsg133
NstRp978
ag1
(g2
g3
(dp979
g130
Vsocial networks
p980
sg132
Nsg133
NstRp981
ag1
(g2
g3
(dp982
g130
Vtwitter
p983
sg132
Nsg133
NstRp984
ag1
(g2
g3
(dp985
g130
Vexplainer
p986
sg132
Nsg133
NstRp987
asg156
g962
sg157
I00
sS'title_detail'
p988
g1
(g2
g3
(dp989
g52
Vhttp://feeds.gawker.com/lifehacker/full
p990
sg27
g60
sg13
Nsg55
g969
stRp991
sg67
g966
sg162
VThorin Klosowski
p992
sg20
VThu, 10 Jul 2014 15:00:00 GMT
p993
sg165
(lp994
g1
(g2
g3
(dtRp995
asS'author_detail'
p996
g1
(g2
g3
(dp997
g170
g992
stRp998
sg172
Vhttp://feeds.gawker.com/lifehacker/1602703562
p999
stRp1000
ag1
(g2
g3
(dp1001
S'summary_detail'
p1002
g1
(g2
g3
(dp1003
g52
Vhttp://feeds.gawker.com/lifehacker/full
p1004
sg27
g54
sg13
Nsg55
V<p class="has-media media-640"><img alt="\u200bMove Your Reminders to the Middle of the Day To Maintain Momentum" class="transform-original" height="358" src="http://i.kinja-img.com/gawker-media/image/upload/s--AXFQ93Nc--/e212rjczciigf9bookkg.jpg" width="636" /></p> <p class="first-text">There are all sorts of <a href="http://lifehacker.com/5924093/five-best-to-do-list-managers">todo list managers</a>  out there, and if you use one chances are you have a reminder set to appear on your phone first thing in the morning. That's fine, but moving that reminder to later in the day could be far more beneficial.</p><p><a href="http://lifehacker.com/move-your-reminders-to-the-middle-of-the-day-to-mainta-1602907711">Read more...</a></p><img border="0" height="1" src="http://lifehacker.feedsportal.com/c/34977/f/647165/s/3c5e4bc1/sc/4/mf.gif" width="1" /><br clear="all" /><br /><br /><a href="http://da.feedsportal.com/r/199109374337/u/94/f/647165/c/34977/s/3c5e4bc1/sc/4/rc/1/rc.htm" rel="nofollow"><img border="0" src="http://da.feedsportal.com/r/199109374337/u/94/f/647165/c/34977/s/3c5e4bc1/sc/4/rc/1/rc.img" /></a><br /><a href="http://da.feedsportal.com/r/199109374337/u/94/f/647165/c/34977/s/3c5e4bc1/sc/4/rc/2/rc.htm" rel="nofollow"><img border="0" src="http://da.feedsportal.com/r/199109374337/u/94/f/647165/c/34977/s/3c5e4bc1/sc/4/rc/2/rc.img" /></a><br /><a href="http://da.feedsportal.com/r/199109374337/u/94/f/647165/c/34977/s/3c5e4bc1/sc/4/rc/3/rc.htm" rel="nofollow"><img border="0" src="http://da.feedsportal.com/r/199109374337/u/94/f/647165/c/34977/s/3c5e4bc1/sc/4/rc/3/rc.img" /></a><br /><br /><a href="http://da.feedsportal.com/r/199109374337/u/94/f/647165/c/34977/s/3c5e4bc1/sc/4/a2.htm"><img border="0" src="http://da.feedsportal.com/r/199109374337/u/94/f/647165/c/34977/s/3c5e4bc1/sc/4/a2.img" /></a><img border="0" height="1" src="http://pi.feedsportal.com/r/199109374337/u/94/f/647165/c/34977/s/3c5e4bc1/sc/4/a2t.img" width="1" /><img height="1" src="http://feeds.feedburner.com/~r/lifehacker/full/~4/9Q_LQ7Q3f7Y" width="1" />
p1005
stRp1006
sg22
(lp1007
g1
(g2
g3
(dp1008
g25
Vhttp://feeds.gawker.com/~r/lifehacker/full/~3/9Q_LQ7Q3f7Y/move-your-reminders-to-the-middle-of-the-day-to-mainta-1602907711
p1009
sg27
g28
sg29
g30
stRp1010
asg15
g16
((I2014
I7
I10
I14
I30
I0
I3
I191
I0
t(dtRp1011
sg18
V\u200bMove Your Reminders to the Middle of the Day To Maintain Momentum
p1012
sS'feedburner_origlink'
p1013
Vhttp://lifehacker.com/move-your-reminders-to-the-middle-of-the-day-to-mainta-1602907711
p1014
sg127
(lp1015
g1
(g2
g3
(dp1016
g130
Vtasks
p1017
sg132
Nsg133
NstRp1018
ag1
(g2
g3
(dp1019
g130
Vproductivity
p1020
sg132
Nsg133
NstRp1021
ag1
(g2
g3
(dp1022
g130
Vreminders
p1023
sg132
Nsg133
NstRp1024
ag1
(g2
g3
(dp1025
g130
Vorganization
p1026
sg132
Nsg133
NstRp1027
ag1
(g2
g3
(dp1028
g130
Vto-dos
p1029
sg132
Nsg133
NstRp1030
asg156
g1005
sg157
I00
sS'title_detail'
p1031
g1
(g2
g3
(dp1032
g52
Vhttp://feeds.gawker.com/lifehacker/full
p1033
sg27
g60
sg13
Nsg55
g1012
stRp1034
sg67
g1009
sg162
VMark Wilson
p1035
sg20
VThu, 10 Jul 2014 14:30:00 GMT
p1036
sg165
(lp1037
g1
(g2
g3
(dtRp1038
asS'author_detail'
p1039
g1
(g2
g3
(dp1040
g170
g1035
stRp1041
sg172
Vhttp://feeds.gawker.com/lifehacker/1602907711
p1042
stRp1043
ag1
(g2
g3
(dp1044
S'summary_detail'
p1045
g1
(g2
g3
(dp1046
g52
Vhttp://feeds.gawker.com/lifehacker/full
p1047
sg27
g54
sg13
Nsg55
V<p class="has-media media-640"><img alt="Use Meetup to Start a Networking Group, Even If You're Unemployed" class="transform-ku-xlarge" height="357" src="http://i.kinja-img.com/gawker-media/image/upload/s--quG0nFIZ--/c_fit,fl_progressive,q_80,w_636/apgqt2dj6s2fz6z0npax.jpg" width="636" /></p> <p class="first-text">Just because you don't have a job, or don't have a job in your field of interest, doesn't mean you can't network with people who do. We've talked about how trade shows can get you in with people, but if you want something smaller, consider starting a networking group on Meetup.com for professionals in your area. </p><p><a href="http://lifehacker.com/use-meetup-to-start-a-networking-group-even-if-youre-u-1602301263">Read more...</a></p><img border="0" height="1" src="http://lifehacker.feedsportal.com/c/34977/f/647165/s/3c5d5b5c/sc/4/mf.gif" width="1" /><br clear="all" /><br /><br /><a href="http://da.feedsportal.com/r/199120248125/u/94/f/647165/c/34977/s/3c5d5b5c/sc/4/rc/1/rc.htm" rel="nofollow"><img border="0" src="http://da.feedsportal.com/r/199120248125/u/94/f/647165/c/34977/s/3c5d5b5c/sc/4/rc/1/rc.img" /></a><br /><a href="http://da.feedsportal.com/r/199120248125/u/94/f/647165/c/34977/s/3c5d5b5c/sc/4/rc/2/rc.htm" rel="nofollow"><img border="0" src="http://da.feedsportal.com/r/199120248125/u/94/f/647165/c/34977/s/3c5d5b5c/sc/4/rc/2/rc.img" /></a><br /><a href="http://da.feedsportal.com/r/199120248125/u/94/f/647165/c/34977/s/3c5d5b5c/sc/4/rc/3/rc.htm" rel="nofollow"><img border="0" src="http://da.feedsportal.com/r/199120248125/u/94/f/647165/c/34977/s/3c5d5b5c/sc/4/rc/3/rc.img" /></a><br /><br /><a href="http://da.feedsportal.com/r/199120248125/u/94/f/647165/c/34977/s/3c5d5b5c/sc/4/a2.htm"><img border="0" src="http://da.feedsportal.com/r/199120248125/u/94/f/647165/c/34977/s/3c5d5b5c/sc/4/a2.img" /></a><img border="0" height="1" src="http://pi.feedsportal.com/r/199120248125/u/94/f/647165/c/34977/s/3c5d5b5c/sc/4/a2t.img" width="1" /><img height="1" src="http://feeds.feedburner.com/~r/lifehacker/full/~4/cOTYM6WhEo0" width="1" />
p1048
stRp1049
sg22
(lp1050
g1
(g2
g3
(dp1051
g25
Vhttp://feeds.gawker.com/~r/lifehacker/full/~3/cOTYM6WhEo0/use-meetup-to-start-a-networking-group-even-if-youre-u-1602301263
p1052
sg27
g28
sg29
g30
stRp1053
asg15
g16
((I2014
I7
I10
I13
I30
I0
I3
I191
I0
t(dtRp1054
sg18
VUse Meetup to Start a Networking Group, Even If You're Unemployed
p1055
sS'feedburner_origlink'
p1056
Vhttp://lifehacker.com/use-meetup-to-start-a-networking-group-even-if-youre-u-1602301263
p1057
sg127
(lp1058
g1
(g2
g3
(dp1059
g130
Vjob search
p1060
sg132
Nsg133
NstRp1061
ag1
(g2
g3
(dp1062
g130
Vnetworking
p1063
sg132
Nsg133
NstRp1064
ag1
(g2
g3
(dp1065
g130
Vjobs
p1066
sg132
Nsg133
NstRp1067
ag1
(g2
g3
(dp1068
g130
Vunemployment
p1069
sg132
Nsg133
NstRp1070
ag1
(g2
g3
(dp1071
g130
Vcommunication
p1072
sg132
Nsg133
NstRp1073
ag1
(g2
g3
(dp1074
g130
Vprofessional networking
p1075
sg132
Nsg133
NstRp1076
ag1
(g2
g3
(dp1077
g130
Vcareers
p1078
sg132
Nsg133
NstRp1079
asg156
g1048
sg157
I00
sS'title_detail'
p1080
g1
(g2
g3
(dp1081
g52
Vhttp://feeds.gawker.com/lifehacker/full
p1082
sg27
g60
sg13
Nsg55
g1055
stRp1083
sg67
g1052
sg162
VAlan Henry
p1084
sg20
VThu, 10 Jul 2014 13:30:00 GMT
p1085
sg165
(lp1086
g1
(g2
g3
(dtRp1087
asS'author_detail'
p1088
g1
(g2
g3
(dp1089
g170
g1084
stRp1090
sg172
Vhttp://feeds.gawker.com/lifehacker/1602301263
p1091
stRp1092
ag1
(g2
g3
(dp1093
S'summary_detail'
p1094
g1
(g2
g3
(dp1095
g52
Vhttp://feeds.gawker.com/lifehacker/full
p1096
sg27
g54
sg13
Nsg55
V<p class="has-media media-640"><img alt="Keep Kids Entertained on Travels with a DIY Portable Activity Kit" class="transform-ku-xlarge" height="357" src="http://i.kinja-img.com/gawker-media/image/upload/s--HeSZRKRQ--/c_fit,fl_progressive,q_80,w_636/qkheofwrbvphcfmwz6jj.png" width="636" /></p> <p class="first-text">When you're going out, you want to keep your child occupied but don't want to lug around a bunch of heavy and odd-shaped toys. A good alternative is to custom-make this "portable activity kit" that is colorful, lightweight and compact.</p><p><a href="http://lifehacker.com/keep-kids-entertained-on-travels-with-a-diy-portable-ac-1601867471">Read more...</a></p><img border="0" height="1" src="http://lifehacker.feedsportal.com/c/34977/f/647165/s/3c5d513f/sc/36/mf.gif" width="1" /><br clear="all" /><br /><br /><a href="http://da.feedsportal.com/r/199120246938/u/94/f/647165/c/34977/s/3c5d513f/sc/36/rc/1/rc.htm" rel="nofollow"><img border="0" src="http://da.feedsportal.com/r/199120246938/u/94/f/647165/c/34977/s/3c5d513f/sc/36/rc/1/rc.img" /></a><br /><a href="http://da.feedsportal.com/r/199120246938/u/94/f/647165/c/34977/s/3c5d513f/sc/36/rc/2/rc.htm" rel="nofollow"><img border="0" src="http://da.feedsportal.com/r/199120246938/u/94/f/647165/c/34977/s/3c5d513f/sc/36/rc/2/rc.img" /></a><br /><a href="http://da.feedsportal.com/r/199120246938/u/94/f/647165/c/34977/s/3c5d513f/sc/36/rc/3/rc.htm" rel="nofollow"><img border="0" src="http://da.feedsportal.com/r/199120246938/u/94/f/647165/c/34977/s/3c5d513f/sc/36/rc/3/rc.img" /></a><br /><br /><a href="http://da.feedsportal.com/r/199120246938/u/94/f/647165/c/34977/s/3c5d513f/sc/36/a2.htm"><img border="0" src="http://da.feedsportal.com/r/199120246938/u/94/f/647165/c/34977/s/3c5d513f/sc/36/a2.img" /></a><img border="0" height="1" src="http://pi.feedsportal.com/r/199120246938/u/94/f/647165/c/34977/s/3c5d513f/sc/36/a2t.img" width="1" /><img height="1" src="http://feeds.feedburner.com/~r/lifehacker/full/~4/O7cD0SL5s1A" width="1" />
p1097
stRp1098
sg22
(lp1099
g1
(g2
g3
(dp1100
g25
Vhttp://feeds.gawker.com/~r/lifehacker/full/~3/O7cD0SL5s1A/keep-kids-entertained-on-travels-with-a-diy-portable-ac-1601867471
p1101
sg27
g28
sg29
g30
stRp1102
asg15
g16
((I2014
I7
I10
I13
I0
I0
I3
I191
I0
t(dtRp1103
sg18
VKeep Kids Entertained on Travels with a DIY Portable Activity Kit
p1104
sS'feedburner_origlink'
p1105
Vhttp://lifehacker.com/keep-kids-entertained-on-travels-with-a-diy-portable-ac-1601867471
p1106
sg127
(lp1107
g1
(g2
g3
(dp1108
g130
Vparent hacks
p1109
sg132
Nsg133
NstRp1110
ag1
(g2
g3
(dp1111
g130
Vdiy
p1112
sg132
Nsg133
NstRp1113
ag1
(g2
g3
(dp1114
g130
Vkids
p1115
sg132
Nsg133
NstRp1116
ag1
(g2
g3
(dp1117
g130
Vparenting
p1118
sg132
Nsg133
NstRp1119
ag1
(g2
g3
(dp1120
g130
Vtoys
p1121
sg132
Nsg133
NstRp1122
asg156
g1097
sg157
I00
sS'title_detail'
p1123
g1
(g2
g3
(dp1124
g52
Vhttp://feeds.gawker.com/lifehacker/full
p1125
sg27
g60
sg13
Nsg55
g1104
stRp1126
sg67
g1101
sg162
VMihir Patkar
p1127
sg20
VThu, 10 Jul 2014 13:00:00 GMT
p1128
sg165
(lp1129
g1
(g2
g3
(dtRp1130
asS'author_detail'
p1131
g1
(g2
g3
(dp1132
g170
g1127
stRp1133
sg172
Vhttp://feeds.gawker.com/lifehacker/1601867471
p1134
stRp1135
ag1
(g2
g3
(dp1136
S'summary_detail'
p1137
g1
(g2
g3
(dp1138
g52
Vhttp://feeds.gawker.com/lifehacker/full
p1139
sg27
g54
sg13
Nsg55
V<p class="has-media media-640"><img alt="Lock Google Chrome with Built-in Password Protection" class="transform-ku-xlarge" height="357" src="http://i.kinja-img.com/gawker-media/image/upload/s--QBGLV8br--/c_fit,fl_progressive,q_80,w_636/bsr4sw2cyglrluc5vy6t.png" width="636" /></p> <p class="first-text">Chrome: The latest stable build of Google Chrome can lock your browser when you step away, to protect your data and privacy. All you have to do is change a setting to enable the new profile management system\u2014no extensions needed.</p><p><a href="http://lifehacker.com/lock-google-chrome-with-built-in-password-protection-1601863648">Read more...</a></p><img border="0" height="1" src="http://lifehacker.feedsportal.com/c/34977/f/647165/s/3c5cd14d/sc/4/mf.gif" width="1" /><br clear="all" /><br /><br /><a href="http://da.feedsportal.com/r/199107892828/u/94/f/647165/c/34977/s/3c5cd14d/sc/4/rc/1/rc.htm" rel="nofollow"><img border="0" src="http://da.feedsportal.com/r/199107892828/u/94/f/647165/c/34977/s/3c5cd14d/sc/4/rc/1/rc.img" /></a><br /><a href="http://da.feedsportal.com/r/199107892828/u/94/f/647165/c/34977/s/3c5cd14d/sc/4/rc/2/rc.htm" rel="nofollow"><img border="0" src="http://da.feedsportal.com/r/199107892828/u/94/f/647165/c/34977/s/3c5cd14d/sc/4/rc/2/rc.img" /></a><br /><a href="http://da.feedsportal.com/r/199107892828/u/94/f/647165/c/34977/s/3c5cd14d/sc/4/rc/3/rc.htm" rel="nofollow"><img border="0" src="http://da.feedsportal.com/r/199107892828/u/94/f/647165/c/34977/s/3c5cd14d/sc/4/rc/3/rc.img" /></a><br /><br /><a href="http://da.feedsportal.com/r/199107892828/u/94/f/647165/c/34977/s/3c5cd14d/sc/4/a2.htm"><img border="0" src="http://da.feedsportal.com/r/199107892828/u/94/f/647165/c/34977/s/3c5cd14d/sc/4/a2.img" /></a><img border="0" height="1" src="http://pi.feedsportal.com/r/199107892828/u/94/f/647165/c/34977/s/3c5cd14d/sc/4/a2t.img" width="1" /><img height="1" src="http://feeds.feedburner.com/~r/lifehacker/full/~4/owJUpt9MOSk" width="1" />
p1140
stRp1141
sg22
(lp1142
g1
(g2
g3
(dp1143
g25
Vhttp://feeds.gawker.com/~r/lifehacker/full/~3/owJUpt9MOSk/lock-google-chrome-with-built-in-password-protection-1601863648
p1144
sg27
g28
sg29
g30
stRp1145
asg15
g16
((I2014
I7
I10
I12
I30
I0
I3
I191
I0
t(dtRp1146
sg18
VLock Google Chrome with Built-in Password Protection
p1147
sS'feedburner_origlink'
p1148
Vhttp://lifehacker.com/lock-google-chrome-with-built-in-password-protection-1601863648
p1149
sg127
(lp1150
g1
(g2
g3
(dp1151
g130
Vchrome hacks
p1152
sg132
Nsg133
NstRp1153
ag1
(g2
g3
(dp1154
g130
Vprivacy
p1155
sg132
Nsg133
NstRp1156
ag1
(g2
g3
(dp1157
g130
Vuser management
p1158
sg132
Nsg133
NstRp1159
ag1
(g2
g3
(dp1160
g130
Vgoogle chrome
p1161
sg132
Nsg133
NstRp1162
ag1
(g2
g3
(dp1163
g130
Vchrome tips
p1164
sg132
Nsg133
NstRp1165
ag1
(g2
g3
(dp1166
g130
Vchrome profiles
p1167
sg132
Nsg133
NstRp1168
ag1
(g2
g3
(dp1169
g130
Vsecurity
p1170
sg132
Nsg133
NstRp1171
asg156
g1140
sg157
I00
sS'title_detail'
p1172
g1
(g2
g3
(dp1173
g52
Vhttp://feeds.gawker.com/lifehacker/full
p1174
sg27
g60
sg13
Nsg55
g1147
stRp1175
sg67
g1144
sg162
VMihir Patkar
p1176
sg20
VThu, 10 Jul 2014 12:30:00 GMT
p1177
sg165
(lp1178
g1
(g2
g3
(dtRp1179
asS'author_detail'
p1180
g1
(g2
g3
(dp1181
g170
g1176
stRp1182
sg172
Vhttp://feeds.gawker.com/lifehacker/1601863648
p1183
stRp1184
ag1
(g2
g3
(dp1185
S'summary_detail'
p1186
g1
(g2
g3
(dp1187
g52
Vhttp://feeds.gawker.com/lifehacker/full
p1188
sg27
g54
sg13
Nsg55
V<p class="has-media media-640"><img alt="What's The Best Online Glasses Store?" class="transform-ku-xlarge" height="357" src="http://i.kinja-img.com/gawker-media/image/upload/s--S8qtOY-X--/c_fit,fl_progressive,q_80,w_636/ksagdtzgavxa1cnse6bg.jpg" width="636" /></p> <p class="first-text">Shopping for glasses used to mean dealing with salespeople selling expensive frames at the mall. Now you can get better glasses with more options, cheaper, all from the comfort of your computer. This week, we want to hear about the stores you browse when you shop for a new pair. </p><p><a href="http://lifehacker.com/whats-the-best-online-glasses-store-1602315352">Read more...</a></p><img border="0" height="1" src="http://lifehacker.feedsportal.com/c/34977/f/647165/s/3c5cd14f/sc/36/mf.gif" width="1" /><br clear="all" /><br /><br /><a href="http://da.feedsportal.com/r/199107892827/u/94/f/647165/c/34977/s/3c5cd14f/sc/36/rc/1/rc.htm" rel="nofollow"><img border="0" src="http://da.feedsportal.com/r/199107892827/u/94/f/647165/c/34977/s/3c5cd14f/sc/36/rc/1/rc.img" /></a><br /><a href="http://da.feedsportal.com/r/199107892827/u/94/f/647165/c/34977/s/3c5cd14f/sc/36/rc/2/rc.htm" rel="nofollow"><img border="0" src="http://da.feedsportal.com/r/199107892827/u/94/f/647165/c/34977/s/3c5cd14f/sc/36/rc/2/rc.img" /></a><br /><a href="http://da.feedsportal.com/r/199107892827/u/94/f/647165/c/34977/s/3c5cd14f/sc/36/rc/3/rc.htm" rel="nofollow"><img border="0" src="http://da.feedsportal.com/r/199107892827/u/94/f/647165/c/34977/s/3c5cd14f/sc/36/rc/3/rc.img" /></a><br /><br /><a href="http://da.feedsportal.com/r/199107892827/u/94/f/647165/c/34977/s/3c5cd14f/sc/36/a2.htm"><img border="0" src="http://da.feedsportal.com/r/199107892827/u/94/f/647165/c/34977/s/3c5cd14f/sc/36/a2.img" /></a><img border="0" height="1" src="http://pi.feedsportal.com/r/199107892827/u/94/f/647165/c/34977/s/3c5cd14f/sc/36/a2t.img" width="1" /><img height="1" src="http://feeds.feedburner.com/~r/lifehacker/full/~4/QHVLAEt1ki0" width="1" />
p1189
stRp1190
sg22
(lp1191
g1
(g2
g3
(dp1192
g25
Vhttp://feeds.gawker.com/~r/lifehacker/full/~3/QHVLAEt1ki0/whats-the-best-online-glasses-store-1602315352
p1193
sg27
g28
sg29
g30
stRp1194
asg15
g16
((I2014
I7
I10
I12
I0
I0
I3
I191
I0
t(dtRp1195
sg18
VWhat's The Best Online Glasses Store?
p1196
sS'feedburner_origlink'
p1197
Vhttp://lifehacker.com/whats-the-best-online-glasses-store-1602315352
p1198
sg127
(lp1199
g1
(g2
g3
(dp1200
g130
Vglasses
p1201
sg132
Nsg133
NstRp1202
ag1
(g2
g3
(dp1203
g130
Vfashion
p1204
sg132
Nsg133
NstRp1205
ag1
(g2
g3
(dp1206
g130
Vsaving money
p1207
sg132
Nsg133
NstRp1208
ag1
(g2
g3
(dp1209
g130
Vhive five
p1210
sg132
Nsg133
NstRp1211
ag1
(g2
g3
(dp1212
g130
Vonline shopping
p1213
sg132
Nsg133
NstRp1214
ag1
(g2
g3
(dp1215
g130
Vhive five call for contenders
p1216
sg132
Nsg133
NstRp1217
ag1
(g2
g3
(dp1218
g130
Vstyle
p1219
sg132
Nsg133
NstRp1220
ag1
(g2
g3
(dp1221
g130
Vshopping
p1222
sg132
Nsg133
NstRp1223
asg156
g1189
sg157
I00
sS'title_detail'
p1224
g1
(g2
g3
(dp1225
g52
Vhttp://feeds.gawker.com/lifehacker/full
p1226
sg27
g60
sg13
Nsg55
g1196
stRp1227
sg67
g1193
sg162
VAlan Henry
p1228
sg20
VThu, 10 Jul 2014 12:00:00 GMT
p1229
sg165
(lp1230
g1
(g2
g3
(dtRp1231
asS'author_detail'
p1232
g1
(g2
g3
(dp1233
g170
g1228
stRp1234
sg172
Vhttp://feeds.gawker.com/lifehacker/1602315352
p1235
stRp1236
asS'namespaces'
p1237
(dp1238
S''
Vhttp://www.w3.org/2005/Atom
p1239
sS'taxo'
p1240
Vhttp://purl.org/rss/1.0/modules/taxonomy/
p1241
sS'dc'
p1242
Vhttp://purl.org/dc/elements/1.1/
p1243
sS'itunes'
p1244
Vhttp://www.itunes.com/dtds/podcast-1.0.dtd
p1245
sS'rdf'
p1246
Vhttp://www.w3.org/1999/02/22-rdf-syntax-ns#
p1247
sS'feedburner'
p1248
Vhttp://rssnamespace.org/feedburner/ext/1.0
p1249
sstRp1250
.