ccopy_reg
_reconstructor
p1
(cfeedparser
FeedParserDict
p2
c__builtin__
dict
p3
(dp4
S'feed'
p5
g1
(g2
g3
(dp6
S'updated'
p7
VWed, 09 Jul 2014 12:04:15 PDT
p8
sS'xhtml_meta'
p9
(dp10
S'content'
p11
Vnoindex
p12
sS'name'
p13
Vrobots
p14
ssS'subtitle'
p15
VAn online Ubuntu magazine bringing you the latest Ubuntu news, apps, interview and reviews. Daily.
p16
sS'updated_parsed'
p17
ctime
struct_time
p18
((I2014
I7
I9
I19
I4
I15
I2
I190
I0
t(dtRp19
sS'links'
p20
(lp21
g1
(g2
g3
(dp22
S'href'
p23
Vhttp://www.omgubuntu.co.uk
p24
sS'type'
p25
Vtext/html
p26
sS'rel'
p27
Valternate
p28
stRp29
ag1
(g2
g3
(dp30
S'href'
p31
Vhttp://feeds.feedburner.com/d0od
p32
sS'type'
p33
Vapplication/rss+xml
p34
sS'rel'
p35
Vself
p36
stRp37
ag1
(g2
g3
(dp38
S'href'
p39
Vhttp://feeds.feedburner.com/d0od
p40
sS'type'
p41
Vapplication/rss+xml
p42
sS'rel'
p43
Vself
p44
stRp45
ag1
(g2
g3
(dp46
S'href'
p47
Vhttp://pubsubhubbub.appspot.com/
p48
sg25
g26
sS'rel'
p49
Vhub
p50
stRp51
asS'feedburner_emailserviceid'
p52
Vd0od
p53
sS'generator_detail'
p54
g1
(g2
g3
(dp55
S'name'
p56
Vhttp://wordpress.org/?v=3.9.1
p57
stRp58
sS'feedburner_info'
p59
(dp60
S'uri'
p61
Vd0od
p62
ssS'meta'
p63
(dp64
S'content'
p65
Vnoprocess
p66
sS'name'
p67
Vpipes
p68
ssS'link'
p69
g24
sS'feedburner_feedburnerhostname'
p70
Vhttp://feedburner.google.com
p71
sS'generator'
p72
g57
sS'language'
p73
Ven-US
p74
sS'title'
p75
VOMG! Ubuntu!
p76
sS'subtitle_detail'
p77
g1
(g2
g3
(dp78
S'base'
p79
Vhttp://feeds.feedburner.com/d0od
p80
sg25
Vtext/html
p81
sg73
NsS'value'
p82
g16
stRp83
sS'title_detail'
p84
g1
(g2
g3
(dp85
g79
Vhttp://feeds.feedburner.com/d0od
p86
sg25
Vtext/plain
p87
sg73
Nsg82
g76
stRp88
sS'sy_updateperiod'
p89
Vhourly
p90
sS'sy_updatefrequency'
p91
V1
stRp92
sS'status'
p93
I200
sg7
S'Fri, 11 Jul 2014 00:22:46 GMT'
p94
sg17
g18
((I2014
I7
I11
I0
I22
I46
I4
I192
I0
t(dtRp95
sS'encoding'
p96
VUTF-8
p97
sS'bozo'
p98
I0
sS'headers'
p99
(dp100
S'alternate-protocol'
p101
S'80:quic'
p102
sS'x-xss-protection'
p103
S'1; mode=block'
p104
sS'x-content-type-options'
p105
S'nosniff'
p106
sS'content-encoding'
p107
S'gzip'
p108
sS'transfer-encoding'
p109
S'chunked'
p110
sS'expires'
p111
S'Fri, 11 Jul 2014 00:24:04 GMT'
p112
sS'server'
p113
S'GSE'
p114
sS'last-modified'
p115
g94
sS'connection'
p116
S'close'
p117
sS'etag'
p118
S'4n8tNtrw/e/mzJTc6L5R4wlW15U'
p119
sS'cache-control'
p120
S'private, max-age=0'
p121
sS'date'
p122
S'Fri, 11 Jul 2014 00:24:04 GMT'
p123
sS'content-type'
p124
S'text/xml; charset=UTF-8'
p125
ssS'etag'
p126
V4n8tNtrw/e/mzJTc6L5R4wlW15U
p127
sg23
Vhttp://feeds.feedburner.com/d0od
p128
sS'version'
p129
Vrss20
p130
sS'entries'
p131
(lp132
g1
(g2
g3
(dp133
S'summary_detail'
p134
g1
(g2
g3
(dp135
g79
Vhttp://feeds.feedburner.com/d0od
p136
sg25
g81
sg73
Nsg82
V<p><img alt="Budgie desktop environment" class="attachment-post-list wp-post-image" height="200" src="http://www.omgubuntu.co.uk/wp-content/uploads/2014/03/68747470733a2f2f7261772e67697468756275736572636f6e74656e742e636f6d2f65766f6c76652d6f732f6275646769652d6465736b746f702f6d61737465722f53637265656e73686f742e706e67-350x200.png" width="350" />If you follow us over on Twitter you may have caught a glimpse of a screenshot we shared recently, along with the invitation to name the desktop environment pictured. </p>\u000a<p>The post <a href="http://www.omgubuntu.co.uk/2014/07/install-budgie-evolve-os-desktop-ubuntu-14-04" rel="nofollow">How to Install Lightweight Budgie Desktop in Ubuntu 14.04</a> first appeared on <a href="http://www.omgubuntu.co.uk" rel="nofollow">OMG! Ubuntu!</a>.</p><div class="feedflare">\u000a<a href="http://feeds.feedburner.com/~ff/d0od?a=awYAY-Hr-QY:MO_Sw_W08DU:wBxX2hOkimM"><img border="0" src="http://feeds.feedburner.com/~ff/d0od?i=awYAY-Hr-QY:MO_Sw_W08DU:wBxX2hOkimM" /></a> <a href="http://feeds.feedburner.com/~ff/d0od?a=awYAY-Hr-QY:MO_Sw_W08DU:I9og5sOYxJI"><img border="0" src="http://feeds.feedburner.com/~ff/d0od?d=I9og5sOYxJI" /></a> <a href="http://feeds.feedburner.com/~ff/d0od?a=awYAY-Hr-QY:MO_Sw_W08DU:qj6IDK7rITs"><img border="0" src="http://feeds.feedburner.com/~ff/d0od?d=qj6IDK7rITs" /></a> <a href="http://feeds.feedburner.com/~ff/d0od?a=awYAY-Hr-QY:MO_Sw_W08DU:V_sGLiPBpWU"><img border="0" src="http://feeds.feedburner.com/~ff/d0od?i=awYAY-Hr-QY:MO_Sw_W08DU:V_sGLiPBpWU" /></a> <a href="http://feeds.feedburner.com/~ff/d0od?a=awYAY-Hr-QY:MO_Sw_W08DU:gIN9vFwOqvQ"><img border="0" src="http://feeds.feedburner.com/~ff/d0od?i=awYAY-Hr-QY:MO_Sw_W08DU:gIN9vFwOqvQ" /></a> <a href="http://feeds.feedburner.com/~ff/d0od?a=awYAY-Hr-QY:MO_Sw_W08DU:yIl2AUoC8zA"><img border="0" src="http://feeds.feedburner.com/~ff/d0od?d=yIl2AUoC8zA" /></a>\u000a</div><img height="1" src="http://feeds.feedburner.com/~r/d0od/~4/awYAY-Hr-QY" width="1" />
p137
stRp138
sg20
(lp139
g1
(g2
g3
(dp140
g23
Vhttp://feedproxy.google.com/~r/d0od/~3/awYAY-Hr-QY/install-budgie-evolve-os-desktop-ubuntu-14-04
p141
sg25
g26
sg27
g28
stRp142
asS'tags'
p143
(lp144
g1
(g2
g3
(dp145
S'term'
p146
VHow To
p147
sS'scheme'
p148
NsS'label'
p149
NstRp150
ag1
(g2
g3
(dp151
g146
Vbudgie
p152
sg148
Nsg149
NstRp153
ag1
(g2
g3
(dp154
g146
Vdesktop environments
p155
sg148
Nsg149
NstRp156
ag1
(g2
g3
(dp157
g146
Vgnome
p158
sg148
Nsg149
NstRp159
asS'feedburner_origlink'
p160
Vhttp://www.omgubuntu.co.uk/2014/07/install-budgie-evolve-os-desktop-ubuntu-14-04?utm_source=rss&utm_medium=rss&utm_campaign=install-budgie-evolve-os-desktop-ubuntu-14-04
p161
sg69
g141
sS'authors'
p162
(lp163
g1
(g2
g3
(dtRp164
asS'id'
p165
Vhttp://www.omgubuntu.co.uk/?p=92585
p166
sS'wfw_commentrss'
p167
Vhttp://www.omgubuntu.co.uk/2014/07/install-budgie-evolve-os-desktop-ubuntu-14-04/feed
p168
sS'author_detail'
p169
g1
(g2
g3
(dp170
g56
VJoey-Elijah Sneddon
p171
stRp172
sS'slash_comments'
p173
V0
sS'published_parsed'
p174
g18
((I2014
I7
I9
I7
I37
I39
I2
I190
I0
t(dtRp175
sS'author'
p176
g171
sg75
VHow to Install Lightweight Budgie Desktop in Ubuntu 14.04
p177
sS'summary'
p178
g137
sS'guidislink'
p179
I00
sS'title_detail'
p180
g1
(g2
g3
(dp181
g79
Vhttp://feeds.feedburner.com/d0od
p182
sg25
g87
sg73
Nsg82
g177
stRp183
sS'published'
p184
VWed, 09 Jul 2014 00:37:39 PDT
p185
stRp186
ag1
(g2
g3
(dp187
S'summary_detail'
p188
g1
(g2
g3
(dp189
g79
Vhttp://feeds.feedburner.com/d0od
p190
sg25
g81
sg73
Nsg82
V<p><img alt="all in one conky circle" class="attachment-post-list wp-post-image" height="200" src="http://www.omgubuntu.co.uk/wp-content/uploads/2014/07/all_in_one_circle_conky__made_for_conky_manager_by_speedracker-d7nvozd.png-350x200.jpeg" width="350" />With a near limitless variety of custom-made themes available for it, Conky has always been one of the best ways to add a splash of personality to any humdrum Linux desktop.</p>\u000a<p>The post <a href="http://www.omgubuntu.co.uk/2014/07/conky-circle-theme-nod-lg-quick-cover" rel="nofollow">LG G3 Style &#8216;All In One Circle&#8217; Conky Theme</a> first appeared on <a href="http://www.omgubuntu.co.uk" rel="nofollow">OMG! Ubuntu!</a>.</p><div class="feedflare">\u000a<a href="http://feeds.feedburner.com/~ff/d0od?a=sFmQ78Mowmo:eMBk44pX3L8:wBxX2hOkimM"><img border="0" src="http://feeds.feedburner.com/~ff/d0od?i=sFmQ78Mowmo:eMBk44pX3L8:wBxX2hOkimM" /></a> <a href="http://feeds.feedburner.com/~ff/d0od?a=sFmQ78Mowmo:eMBk44pX3L8:I9og5sOYxJI"><img border="0" src="http://feeds.feedburner.com/~ff/d0od?d=I9og5sOYxJI" /></a> <a href="http://feeds.feedburner.com/~ff/d0od?a=sFmQ78Mowmo:eMBk44pX3L8:qj6IDK7rITs"><img border="0" src="http://feeds.feedburner.com/~ff/d0od?d=qj6IDK7rITs" /></a> <a href="http://feeds.feedburner.com/~ff/d0od?a=sFmQ78Mowmo:eMBk44pX3L8:V_sGLiPBpWU"><img border="0" src="http://feeds.feedburner.com/~ff/d0od?i=sFmQ78Mowmo:eMBk44pX3L8:V_sGLiPBpWU" /></a> <a href="http://feeds.feedburner.com/~ff/d0od?a=sFmQ78Mowmo:eMBk44pX3L8:gIN9vFwOqvQ"><img border="0" src="http://feeds.feedburner.com/~ff/d0od?i=sFmQ78Mowmo:eMBk44pX3L8:gIN9vFwOqvQ" /></a> <a href="http://feeds.feedburner.com/~ff/d0od?a=sFmQ78Mowmo:eMBk44pX3L8:yIl2AUoC8zA"><img border="0" src="http://feeds.feedburner.com/~ff/d0od?d=yIl2AUoC8zA" /></a>\u000a</div><img height="1" src="http://feeds.feedburner.com/~r/d0od/~4/sFmQ78Mowmo" width="1" />
p191
stRp192
sg20
(lp193
g1
(g2
g3
(dp194
g23
Vhttp://feedproxy.google.com/~r/d0od/~3/sFmQ78Mowmo/conky-circle-theme-nod-lg-quick-cover
p195
sg25
g26
sg27
g28
stRp196
asg143
(lp197
g1
(g2
g3
(dp198
g146
VThemes
p199
sg148
Nsg149
NstRp200
ag1
(g2
g3
(dp201
g146
Vconky
p202
sg148
Nsg149
NstRp203
asS'feedburner_origlink'
p204
Vhttp://www.omgubuntu.co.uk/2014/07/conky-circle-theme-nod-lg-quick-cover?utm_source=rss&utm_medium=rss&utm_campaign=conky-circle-theme-nod-lg-quick-cover
p205
sg69
g195
sg162
(lp206
g1
(g2
g3
(dtRp207
asg165
Vhttp://www.omgubuntu.co.uk/?p=92320
p208
sS'wfw_commentrss'
p209
Vhttp://www.omgubuntu.co.uk/2014/07/conky-circle-theme-nod-lg-quick-cover/feed
p210
sS'author_detail'
p211
g1
(g2
g3
(dp212
g56
VJoey-Elijah Sneddon
p213
stRp214
sS'slash_comments'
p215
V0
sg174
g18
((I2014
I7
I9
I0
I4
I56
I2
I190
I0
t(dtRp216
sg176
g213
sg75
VLG G3 Style \u2018All In One Circle\u2019 Conky Theme
p217
sg178
g191
sg179
I00
sS'title_detail'
p218
g1
(g2
g3
(dp219
g79
Vhttp://feeds.feedburner.com/d0od
p220
sg25
g87
sg73
Nsg82
g217
stRp221
sg184
VTue, 08 Jul 2014 17:04:56 PDT
p222
stRp223
ag1
(g2
g3
(dp224
S'summary_detail'
p225
g1
(g2
g3
(dp226
g79
Vhttp://feeds.feedburner.com/d0od
p227
sg25
g81
sg73
Nsg82
V<p><img alt="cinnamon" class="attachment-post-list wp-post-image" height="200" src="http://www.omgubuntu.co.uk/wp-content/uploads/2014/07/cinnamon-350x200.jpg" width="350" />Last month saw consternation for fans of the 'Cinnamon' desktop, as the pseudo-official PPA providing stable builds on Ubuntu was unexpectedly retired, but a new PPA is here to save the day.</p>\u000a<p>The post <a href="http://www.omgubuntu.co.uk/2014/07/new-cinnamon-ubuntu-14-04-ppa-stable" rel="nofollow">How to Install Cinnamon from a PPA on Ubuntu 14.04</a> first appeared on <a href="http://www.omgubuntu.co.uk" rel="nofollow">OMG! Ubuntu!</a>.</p><div class="feedflare">\u000a<a href="http://feeds.feedburner.com/~ff/d0od?a=WPBS-3lCysA:1z4ZOnM_yPY:wBxX2hOkimM"><img border="0" src="http://feeds.feedburner.com/~ff/d0od?i=WPBS-3lCysA:1z4ZOnM_yPY:wBxX2hOkimM" /></a> <a href="http://feeds.feedburner.com/~ff/d0od?a=WPBS-3lCysA:1z4ZOnM_yPY:I9og5sOYxJI"><img border="0" src="http://feeds.feedburner.com/~ff/d0od?d=I9og5sOYxJI" /></a> <a href="http://feeds.feedburner.com/~ff/d0od?a=WPBS-3lCysA:1z4ZOnM_yPY:qj6IDK7rITs"><img border="0" src="http://feeds.feedburner.com/~ff/d0od?d=qj6IDK7rITs" /></a> <a href="http://feeds.feedburner.com/~ff/d0od?a=WPBS-3lCysA:1z4ZOnM_yPY:V_sGLiPBpWU"><img border="0" src="http://feeds.feedburner.com/~ff/d0od?i=WPBS-3lCysA:1z4ZOnM_yPY:V_sGLiPBpWU" /></a> <a href="http://feeds.feedburner.com/~ff/d0od?a=WPBS-3lCysA:1z4ZOnM_yPY:gIN9vFwOqvQ"><img border="0" src="http://feeds.feedburner.com/~ff/d0od?i=WPBS-3lCysA:1z4ZOnM_yPY:gIN9vFwOqvQ" /></a> <a href="http://feeds.feedburner.com/~ff/d0od?a=WPBS-3lCysA:1z4ZOnM_yPY:yIl2AUoC8zA"><img border="0" src="http://feeds.feedburner.com/~ff/d0od?d=yIl2AUoC8zA" /></a>\u000a</div><img height="1" src="http://feeds.feedburner.com/~r/d0od/~4/WPBS-3lCysA" width="1" />
p228
stRp229
sg20
(lp230
g1
(g2
g3
(dp231
g23
Vhttp://feedproxy.google.com/~r/d0od/~3/WPBS-3lCysA/new-cinnamon-ubuntu-14-04-ppa-stable
p232
sg25
g26
sg27
g28
stRp233
asg143
(lp234
g1
(g2
g3
(dp235
g146
VHow To
p236
sg148
Nsg149
NstRp237
ag1
(g2
g3
(dp238
g146
Vcinnamon
p239
sg148
Nsg149
NstRp240
asS'feedburner_origlink'
p241
Vhttp://www.omgubuntu.co.uk/2014/07/new-cinnamon-ubuntu-14-04-ppa-stable?utm_source=rss&utm_medium=rss&utm_campaign=new-cinnamon-ubuntu-14-04-ppa-stable
p242
sg69
g232
sg162
(lp243
g1
(g2
g3
(dtRp244
asg165
Vhttp://www.omgubuntu.co.uk/?p=92218
p245
sS'wfw_commentrss'
p246
Vhttp://www.omgubuntu.co.uk/2014/07/new-cinnamon-ubuntu-14-04-ppa-stable/feed
p247
sS'author_detail'
p248
g1
(g2
g3
(dp249
g56
VJoey-Elijah Sneddon
p250
stRp251
sS'slash_comments'
p252
V0
sg174
g18
((I2014
I7
I8
I18
I14
I0
I1
I189
I0
t(dtRp253
sg176
g250
sg75
VHow to Install Cinnamon from a PPA on Ubuntu 14.04
p254
sg178
g228
sg179
I00
sS'title_detail'
p255
g1
(g2
g3
(dp256
g79
Vhttp://feeds.feedburner.com/d0od
p257
sg25
g87
sg73
Nsg82
g254
stRp258
sg184
VTue, 08 Jul 2014 11:14:00 PDT
p259
stRp260
ag1
(g2
g3
(dp261
S'summary_detail'
p262
g1
(g2
g3
(dp263
g79
Vhttp://feeds.feedburner.com/d0od
p264
sg25
g81
sg73
Nsg82
V<p><img alt="kde-large-tile" class="attachment-post-list wp-post-image" height="200" src="http://www.omgubuntu.co.uk/wp-content/uploads/2014/04/kde-large-tile-350x200.jpg" width="350" />The release of Frameworks 5 represents three years of work to update KDE's libraries to Qt 5 and to separate the KDE Platform into modularised frameworks.</p>\u000a<p>The post <a href="http://www.omgubuntu.co.uk/2014/07/kde-frameworks-5-sees-first-stable-release" rel="nofollow">KDE Frameworks 5 Sees First Stable Release</a> first appeared on <a href="http://www.omgubuntu.co.uk" rel="nofollow">OMG! Ubuntu!</a>.</p><div class="feedflare">\u000a<a href="http://feeds.feedburner.com/~ff/d0od?a=M0uniq17y70:H9Ut1Z2sAGU:wBxX2hOkimM"><img border="0" src="http://feeds.feedburner.com/~ff/d0od?i=M0uniq17y70:H9Ut1Z2sAGU:wBxX2hOkimM" /></a> <a href="http://feeds.feedburner.com/~ff/d0od?a=M0uniq17y70:H9Ut1Z2sAGU:I9og5sOYxJI"><img border="0" src="http://feeds.feedburner.com/~ff/d0od?d=I9og5sOYxJI" /></a> <a href="http://feeds.feedburner.com/~ff/d0od?a=M0uniq17y70:H9Ut1Z2sAGU:qj6IDK7rITs"><img border="0" src="http://feeds.feedburner.com/~ff/d0od?d=qj6IDK7rITs" /></a> <a href="http://feeds.feedburner.com/~ff/d0od?a=M0uniq17y70:H9Ut1Z2sAGU:V_sGLiPBpWU"><img border="0" src="http://feeds.feedburner.com/~ff/d0od?i=M0uniq17y70:H9Ut1Z2sAGU:V_sGLiPBpWU" /></a> <a href="http://feeds.feedburner.com/~ff/d0od?a=M0uniq17y70:H9Ut1Z2sAGU:gIN9vFwOqvQ"><img border="0" src="http://feeds.feedburner.com/~ff/d0od?i=M0uniq17y70:H9Ut1Z2sAGU:gIN9vFwOqvQ" /></a> <a href="http://feeds.feedburner.com/~ff/d0od?a=M0uniq17y70:H9Ut1Z2sAGU:yIl2AUoC8zA"><img border="0" src="http://feeds.feedburner.com/~ff/d0od?d=yIl2AUoC8zA" /></a>\u000a</div><img height="1" src="http://feeds.feedburner.com/~r/d0od/~4/M0uniq17y70" width="1" />
p265
stRp266
sg20
(lp267
g1
(g2
g3
(dp268
g23
Vhttp://feedproxy.google.com/~r/d0od/~3/M0uniq17y70/kde-frameworks-5-sees-first-stable-release
p269
sg25
g26
sg27
g28
stRp270
asg143
(lp271
g1
(g2
g3
(dp272
g146
VDev
p273
sg148
Nsg149
NstRp274
ag1
(g2
g3
(dp275
g146
Vkde
p276
sg148
Nsg149
NstRp277
asS'feedburner_origlink'
p278
Vhttp://www.omgubuntu.co.uk/2014/07/kde-frameworks-5-sees-first-stable-release?utm_source=rss&utm_medium=rss&utm_campaign=kde-frameworks-5-sees-first-stable-release
p279
sg69
g269
sg162
(lp280
g1
(g2
g3
(dtRp281
asg165
Vhttp://www.omgubuntu.co.uk/?p=92552
p282
sS'wfw_commentrss'
p283
Vhttp://www.omgubuntu.co.uk/2014/07/kde-frameworks-5-sees-first-stable-release/feed
p284
sS'author_detail'
p285
g1
(g2
g3
(dp286
g56
VSam Tran
p287
stRp288
sS'slash_comments'
p289
V0
sg174
g18
((I2014
I7
I7
I23
I41
I39
I0
I188
I0
t(dtRp290
sg176
g287
sg75
VKDE Frameworks 5 Sees First Stable Release
p291
sg178
g265
sg179
I00
sS'title_detail'
p292
g1
(g2
g3
(dp293
g79
Vhttp://feeds.feedburner.com/d0od
p294
sg25
g87
sg73
Nsg82
g291
stRp295
sg184
VMon, 07 Jul 2014 16:41:39 PDT
p296
stRp297
ag1
(g2
g3
(dp298
S'summary_detail'
p299
g1
(g2
g3
(dp300
g79
Vhttp://feeds.feedburner.com/d0od
p301
sg25
g81
sg73
Nsg82
V<p><img alt="munc" class="attachment-post-list wp-post-image" height="200" src="http://www.omgubuntu.co.uk/wp-content/uploads/2013/06/munc.jpg" width="350" />It may have taken the best part of a decade, but the City of Munich says its decision to switch to open-source software has saved an estimated ten million Euros.</p>\u000a<p>The post <a href="http://www.omgubuntu.co.uk/2014/07/munich-city-saves-millions-going-open-source" rel="nofollow">Switching to Linux Saved Munich City Tens of Millions</a> first appeared on <a href="http://www.omgubuntu.co.uk" rel="nofollow">OMG! Ubuntu!</a>.</p><div class="feedflare">\u000a<a href="http://feeds.feedburner.com/~ff/d0od?a=FOKsKUVgPcU:7n2xSWkChPI:wBxX2hOkimM"><img border="0" src="http://feeds.feedburner.com/~ff/d0od?i=FOKsKUVgPcU:7n2xSWkChPI:wBxX2hOkimM" /></a> <a href="http://feeds.feedburner.com/~ff/d0od?a=FOKsKUVgPcU:7n2xSWkChPI:I9og5sOYxJI"><img border="0" src="http://feeds.feedburner.com/~ff/d0od?d=I9og5sOYxJI" /></a> <a href="http://feeds.feedburner.com/~ff/d0od?a=FOKsKUVgPcU:7n2xSWkChPI:qj6IDK7rITs"><img border="0" src="http://feeds.feedburner.com/~ff/d0od?d=qj6IDK7rITs" /></a> <a href="http://feeds.feedburner.com/~ff/d0od?a=FOKsKUVgPcU:7n2xSWkChPI:V_sGLiPBpWU"><img border="0" src="http://feeds.feedburner.com/~ff/d0od?i=FOKsKUVgPcU:7n2xSWkChPI:V_sGLiPBpWU" /></a> <a href="http://feeds.feedburner.com/~ff/d0od?a=FOKsKUVgPcU:7n2xSWkChPI:gIN9vFwOqvQ"><img border="0" src="http://feeds.feedburner.com/~ff/d0od?i=FOKsKUVgPcU:7n2xSWkChPI:gIN9vFwOqvQ" /></a> <a href="http://feeds.feedburner.com/~ff/d0od?a=FOKsKUVgPcU:7n2xSWkChPI:yIl2AUoC8zA"><img border="0" src="http://feeds.feedburner.com/~ff/d0od?d=yIl2AUoC8zA" /></a>\u000a</div><img height="1" src="http://feeds.feedburner.com/~r/d0od/~4/FOKsKUVgPcU" width="1" />
p302
stRp303
sg20
(lp304
g1
(g2
g3
(dp305
g23
Vhttp://feedproxy.google.com/~r/d0od/~3/FOKsKUVgPcU/munich-city-saves-millions-going-open-source
p306
sg25
g26
sg27
g28
stRp307
asg143
(lp308
g1
(g2
g3
(dp309
g146
VNews
p310
sg148
Nsg149
NstRp311
ag1
(g2
g3
(dp312
g146
Vlimux
p313
sg148
Nsg149
NstRp314
ag1
(g2
g3
(dp315
g146
Vmunich
p316
sg148
Nsg149
NstRp317
asS'feedburner_origlink'
p318
Vhttp://www.omgubuntu.co.uk/2014/07/munich-city-saves-millions-going-open-source?utm_source=rss&utm_medium=rss&utm_campaign=munich-city-saves-millions-going-open-source
p319
sg69
g306
sg162
(lp320
g1
(g2
g3
(dtRp321
asg165
Vhttp://www.omgubuntu.co.uk/?p=92527
p322
sS'wfw_commentrss'
p323
Vhttp://www.omgubuntu.co.uk/2014/07/munich-city-saves-millions-going-open-source/feed
p324
sS'author_detail'
p325
g1
(g2
g3
(dp326
g56
VJoey-Elijah Sneddon
p327
stRp328
sS'slash_comments'
p329
V0
sg174
g18
((I2014
I7
I7
I15
I9
I39
I0
I188
I0
t(dtRp330
sg176
g327
sg75
VSwitching to Linux Saved Munich City Tens of Millions
p331
sg178
g302
sg179
I00
sS'title_detail'
p332
g1
(g2
g3
(dp333
g79
Vhttp://feeds.feedburner.com/d0od
p334
sg25
g87
sg73
Nsg82
g331
stRp335
sg184
VMon, 07 Jul 2014 08:09:39 PDT
p336
stRp337
ag1
(g2
g3
(dp338
S'summary_detail'
p339
g1
(g2
g3
(dp340
g79
Vhttp://feeds.feedburner.com/d0od
p341
sg25
g81
sg73
Nsg82
V<p><img alt="moonlight_file_explorer" class="attachment-post-list wp-post-image" height="200" src="http://www.omgubuntu.co.uk/wp-content/uploads/2014/07/moonlight_file_explorer-350x200.png" width="350" />The first alpha of new modular Qt5 desktop environment 'Moonlight' has been released \u2014 despite the current shortcomings it looks promising.</p>\u000a<p>The post <a href="http://www.omgubuntu.co.uk/2014/07/first-alpha-of-moonlight-desktop-available-for-testing" rel="nofollow">First Alpha of Moonlight Desktop Environment Now Available for Testing</a> first appeared on <a href="http://www.omgubuntu.co.uk" rel="nofollow">OMG! Ubuntu!</a>.</p><div class="feedflare">\u000a<a href="http://feeds.feedburner.com/~ff/d0od?a=Soj-aUzd4P4:3D3HPiDIwYw:wBxX2hOkimM"><img border="0" src="http://feeds.feedburner.com/~ff/d0od?i=Soj-aUzd4P4:3D3HPiDIwYw:wBxX2hOkimM" /></a> <a href="http://feeds.feedburner.com/~ff/d0od?a=Soj-aUzd4P4:3D3HPiDIwYw:I9og5sOYxJI"><img border="0" src="http://feeds.feedburner.com/~ff/d0od?d=I9og5sOYxJI" /></a> <a href="http://feeds.feedburner.com/~ff/d0od?a=Soj-aUzd4P4:3D3HPiDIwYw:qj6IDK7rITs"><img border="0" src="http://feeds.feedburner.com/~ff/d0od?d=qj6IDK7rITs" /></a> <a href="http://feeds.feedburner.com/~ff/d0od?a=Soj-aUzd4P4:3D3HPiDIwYw:V_sGLiPBpWU"><img border="0" src="http://feeds.feedburner.com/~ff/d0od?i=Soj-aUzd4P4:3D3HPiDIwYw:V_sGLiPBpWU" /></a> <a href="http://feeds.feedburner.com/~ff/d0od?a=Soj-aUzd4P4:3D3HPiDIwYw:gIN9vFwOqvQ"><img border="0" src="http://feeds.feedburner.com/~ff/d0od?i=Soj-aUzd4P4:3D3HPiDIwYw:gIN9vFwOqvQ" /></a> <a href="http://feeds.feedburner.com/~ff/d0od?a=Soj-aUzd4P4:3D3HPiDIwYw:yIl2AUoC8zA"><img border="0" src="http://feeds.feedburner.com/~ff/d0od?d=yIl2AUoC8zA" /></a>\u000a</div><img height="1" src="http://feeds.feedburner.com/~r/d0od/~4/Soj-aUzd4P4" width="1" />
p342
stRp343
sg20
(lp344
g1
(g2
g3
(dp345
g23
Vhttp://feedproxy.google.com/~r/d0od/~3/Soj-aUzd4P4/first-alpha-of-moonlight-desktop-available-for-testing
p346
sg25
g26
sg27
g28
stRp347
asg143
(lp348
g1
(g2
g3
(dp349
g146
VDev
p350
sg148
Nsg149
NstRp351
ag1
(g2
g3
(dp352
g146
Valternative desktops
p353
sg148
Nsg149
NstRp354
ag1
(g2
g3
(dp355
g146
Vmaynard
p356
sg148
Nsg149
NstRp357
ag1
(g2
g3
(dp358
g146
Vmoonlight
p359
sg148
Nsg149
NstRp360
ag1
(g2
g3
(dp361
g146
Vraspberry
p362
sg148
Nsg149
NstRp363
asS'feedburner_origlink'
p364
Vhttp://www.omgubuntu.co.uk/2014/07/first-alpha-of-moonlight-desktop-available-for-testing?utm_source=rss&utm_medium=rss&utm_campaign=first-alpha-of-moonlight-desktop-available-for-testing
p365
sg69
g346
sg162
(lp366
g1
(g2
g3
(dtRp367
asg165
Vhttp://www.omgubuntu.co.uk/?p=92505
p368
sS'wfw_commentrss'
p369
Vhttp://www.omgubuntu.co.uk/2014/07/first-alpha-of-moonlight-desktop-available-for-testing/feed
p370
sS'author_detail'
p371
g1
(g2
g3
(dp372
g56
VJoey-Elijah Sneddon
p373
stRp374
sS'slash_comments'
p375
V0
sg174
g18
((I2014
I7
I7
I11
I15
I37
I0
I188
I0
t(dtRp376
sg176
g373
sg75
VFirst Alpha of Moonlight Desktop Environment Now Available for Testing
p377
sg178
g342
sg179
I00
sS'title_detail'
p378
g1
(g2
g3
(dp379
g79
Vhttp://feeds.feedburner.com/d0od
p380
sg25
g87
sg73
Nsg82
g377
stRp381
sg184
VMon, 07 Jul 2014 04:15:37 PDT
p382
stRp383
ag1
(g2
g3
(dp384
S'summary_detail'
p385
g1
(g2
g3
(dp386
g79
Vhttp://feeds.feedburner.com/d0od
p387
sg25
g81
sg73
Nsg82
V<p><img alt="deepin 2014 desktop" class="attachment-post-list wp-post-image" height="200" src="http://www.omgubuntu.co.uk/wp-content/uploads/2014/07/deepin-2014-desktop2-350x200.jpg" width="350" />After months of testing the first stable release of Ubuntu-based Linux distro Deepin (previously known as 'Linux Deepin') is now available for download. </p>\u000a<p>The post <a href="http://www.omgubuntu.co.uk/2014/07/deepin-2014-final-released-available-download" rel="nofollow">Linux Distro &#8216;Deepin 2014&#8242; Now Available for Download</a> first appeared on <a href="http://www.omgubuntu.co.uk" rel="nofollow">OMG! Ubuntu!</a>.</p><div class="feedflare">\u000a<a href="http://feeds.feedburner.com/~ff/d0od?a=6R9g_fXxExk:fzkDJUAe0H4:wBxX2hOkimM"><img border="0" src="http://feeds.feedburner.com/~ff/d0od?i=6R9g_fXxExk:fzkDJUAe0H4:wBxX2hOkimM" /></a> <a href="http://feeds.feedburner.com/~ff/d0od?a=6R9g_fXxExk:fzkDJUAe0H4:I9og5sOYxJI"><img border="0" src="http://feeds.feedburner.com/~ff/d0od?d=I9og5sOYxJI" /></a> <a href="http://feeds.feedburner.com/~ff/d0od?a=6R9g_fXxExk:fzkDJUAe0H4:qj6IDK7rITs"><img border="0" src="http://feeds.feedburner.com/~ff/d0od?d=qj6IDK7rITs" /></a> <a href="http://feeds.feedburner.com/~ff/d0od?a=6R9g_fXxExk:fzkDJUAe0H4:V_sGLiPBpWU"><img border="0" src="http://feeds.feedburner.com/~ff/d0od?i=6R9g_fXxExk:fzkDJUAe0H4:V_sGLiPBpWU" /></a> <a href="http://feeds.feedburner.com/~ff/d0od?a=6R9g_fXxExk:fzkDJUAe0H4:gIN9vFwOqvQ"><img border="0" src="http://feeds.feedburner.com/~ff/d0od?i=6R9g_fXxExk:fzkDJUAe0H4:gIN9vFwOqvQ" /></a> <a href="http://feeds.feedburner.com/~ff/d0od?a=6R9g_fXxExk:fzkDJUAe0H4:yIl2AUoC8zA"><img border="0" src="http://feeds.feedburner.com/~ff/d0od?d=yIl2AUoC8zA" /></a>\u000a</div><img height="1" src="http://feeds.feedburner.com/~r/d0od/~4/6R9g_fXxExk" width="1" />
p388
stRp389
sg20
(lp390
g1
(g2
g3
(dp391
g23
Vhttp://feedproxy.google.com/~r/d0od/~3/6R9g_fXxExk/deepin-2014-final-released-available-download
p392
sg25
g26
sg27
g28
stRp393
asg143
(lp394
g1
(g2
g3
(dp395
g146
VDownload
p396
sg148
Nsg149
NstRp397
ag1
(g2
g3
(dp398
g146
Vdistros
p399
sg148
Nsg149
NstRp400
ag1
(g2
g3
(dp401
g146
Vlinuxdeepin
p402
sg148
Nsg149
NstRp403
asS'feedburner_origlink'
p404
Vhttp://www.omgubuntu.co.uk/2014/07/deepin-2014-final-released-available-download?utm_source=rss&utm_medium=rss&utm_campaign=deepin-2014-final-released-available-download
p405
sg69
g392
sg162
(lp406
g1
(g2
g3
(dtRp407
asg165
Vhttp://www.omgubuntu.co.uk/?p=92467
p408
sS'wfw_commentrss'
p409
Vhttp://www.omgubuntu.co.uk/2014/07/deepin-2014-final-released-available-download/feed
p410
sS'author_detail'
p411
g1
(g2
g3
(dp412
g56
VJoey-Elijah Sneddon
p413
stRp414
sS'slash_comments'
p415
V0
sg174
g18
((I2014
I7
I6
I12
I13
I22
I6
I187
I0
t(dtRp416
sg176
g413
sg75
VLinux Distro \u2018Deepin 2014\u2032 Now Available for Download
p417
sg178
g388
sg179
I00
sS'title_detail'
p418
g1
(g2
g3
(dp419
g79
Vhttp://feeds.feedburner.com/d0od
p420
sg25
g87
sg73
Nsg82
g417
stRp421
sg184
VSun, 06 Jul 2014 05:13:22 PDT
p422
stRp423
ag1
(g2
g3
(dp424
S'summary_detail'
p425
g1
(g2
g3
(dp426
g79
Vhttp://feeds.feedburner.com/d0od
p427
sg25
g81
sg73
Nsg82
V<p><img alt="suru for android" class="attachment-post-list wp-post-image" height="200" src="http://www.omgubuntu.co.uk/wp-content/uploads/2014/07/unnamed-350x200.png" width="350" />If you're looking to give your Android device an "ooh" makeover, check out the free Suru Android icons pack from Moka.</p>\u000a<p>The post <a href="http://www.omgubuntu.co.uk/2014/07/moka-android-icons-pack-free-ubuntu-suru-style" rel="nofollow">Suru Icon Pack Brings a Touch of Ubuntu Phone to Android</a> first appeared on <a href="http://www.omgubuntu.co.uk" rel="nofollow">OMG! Ubuntu!</a>.</p><div class="feedflare">\u000a<a href="http://feeds.feedburner.com/~ff/d0od?a=860JwF9LwT0:zcdEGbYPqoc:wBxX2hOkimM"><img border="0" src="http://feeds.feedburner.com/~ff/d0od?i=860JwF9LwT0:zcdEGbYPqoc:wBxX2hOkimM" /></a> <a href="http://feeds.feedburner.com/~ff/d0od?a=860JwF9LwT0:zcdEGbYPqoc:I9og5sOYxJI"><img border="0" src="http://feeds.feedburner.com/~ff/d0od?d=I9og5sOYxJI" /></a> <a href="http://feeds.feedburner.com/~ff/d0od?a=860JwF9LwT0:zcdEGbYPqoc:qj6IDK7rITs"><img border="0" src="http://feeds.feedburner.com/~ff/d0od?d=qj6IDK7rITs" /></a> <a href="http://feeds.feedburner.com/~ff/d0od?a=860JwF9LwT0:zcdEGbYPqoc:V_sGLiPBpWU"><img border="0" src="http://feeds.feedburner.com/~ff/d0od?i=860JwF9LwT0:zcdEGbYPqoc:V_sGLiPBpWU" /></a> <a href="http://feeds.feedburner.com/~ff/d0od?a=860JwF9LwT0:zcdEGbYPqoc:gIN9vFwOqvQ"><img border="0" src="http://feeds.feedburner.com/~ff/d0od?i=860JwF9LwT0:zcdEGbYPqoc:gIN9vFwOqvQ" /></a> <a href="http://feeds.feedburner.com/~ff/d0od?a=860JwF9LwT0:zcdEGbYPqoc:yIl2AUoC8zA"><img border="0" src="http://feeds.feedburner.com/~ff/d0od?d=yIl2AUoC8zA" /></a>\u000a</div><img height="1" src="http://feeds.feedburner.com/~r/d0od/~4/860JwF9LwT0" width="1" />
p428
stRp429
sg20
(lp430
g1
(g2
g3
(dp431
g23
Vhttp://feedproxy.google.com/~r/d0od/~3/860JwF9LwT0/moka-android-icons-pack-free-ubuntu-suru-style
p432
sg25
g26
sg27
g28
stRp433
asg143
(lp434
g1
(g2
g3
(dp435
g146
VNews
p436
sg148
Nsg149
NstRp437
ag1
(g2
g3
(dp438
g146
Vandroid
p439
sg148
Nsg149
NstRp440
ag1
(g2
g3
(dp441
g146
Vsuru
p442
sg148
Nsg149
NstRp443
asS'feedburner_origlink'
p444
Vhttp://www.omgubuntu.co.uk/2014/07/moka-android-icons-pack-free-ubuntu-suru-style?utm_source=rss&utm_medium=rss&utm_campaign=moka-android-icons-pack-free-ubuntu-suru-style
p445
sg69
g432
sg162
(lp446
g1
(g2
g3
(dtRp447
asg165
Vhttp://www.omgubuntu.co.uk/?p=92427
p448
sS'wfw_commentrss'
p449
Vhttp://www.omgubuntu.co.uk/2014/07/moka-android-icons-pack-free-ubuntu-suru-style/feed
p450
sS'author_detail'
p451
g1
(g2
g3
(dp452
g56
VJoey-Elijah Sneddon
p453
stRp454
sS'slash_comments'
p455
V0
sg174
g18
((I2014
I7
I4
I21
I1
I7
I4
I185
I0
t(dtRp456
sg176
g453
sg75
VSuru Icon Pack Brings a Touch of Ubuntu Phone to Android
p457
sg178
g428
sg179
I00
sS'title_detail'
p458
g1
(g2
g3
(dp459
g79
Vhttp://feeds.feedburner.com/d0od
p460
sg25
g87
sg73
Nsg82
g457
stRp461
sg184
VFri, 04 Jul 2014 14:01:07 PDT
p462
stRp463
ag1
(g2
g3
(dp464
S'summary_detail'
p465
g1
(g2
g3
(dp466
g79
Vhttp://feeds.feedburner.com/d0od
p467
sg25
g81
sg73
Nsg82
V<p><img alt="windows 9 desktop rumour" class="attachment-post-list wp-post-image" height="200" src="http://www.omgubuntu.co.uk/wp-content/uploads/2014/07/windows-9-desktop-rumour1-350x200.jpg" width="350" />New rumours suggest that Microsoft's upcoming Windows 9 release will adapt its user interface to suit the type of hardware it's running on.</p>\u000a<p>The post <a href="http://www.omgubuntu.co.uk/2014/07/windows-threshold-convergence-ubuntu-style" rel="nofollow">Is Windows 9 Planned Convergence Feature Similar to Ubuntu?</a> first appeared on <a href="http://www.omgubuntu.co.uk" rel="nofollow">OMG! Ubuntu!</a>.</p><div class="feedflare">\u000a<a href="http://feeds.feedburner.com/~ff/d0od?a=VosASsf72ik:KI1CozBd_IU:wBxX2hOkimM"><img border="0" src="http://feeds.feedburner.com/~ff/d0od?i=VosASsf72ik:KI1CozBd_IU:wBxX2hOkimM" /></a> <a href="http://feeds.feedburner.com/~ff/d0od?a=VosASsf72ik:KI1CozBd_IU:I9og5sOYxJI"><img border="0" src="http://feeds.feedburner.com/~ff/d0od?d=I9og5sOYxJI" /></a> <a href="http://feeds.feedburner.com/~ff/d0od?a=VosASsf72ik:KI1CozBd_IU:qj6IDK7rITs"><img border="0" src="http://feeds.feedburner.com/~ff/d0od?d=qj6IDK7rITs" /></a> <a href="http://feeds.feedburner.com/~ff/d0od?a=VosASsf72ik:KI1CozBd_IU:V_sGLiPBpWU"><img border="0" src="http://feeds.feedburner.com/~ff/d0od?i=VosASsf72ik:KI1CozBd_IU:V_sGLiPBpWU" /></a> <a href="http://feeds.feedburner.com/~ff/d0od?a=VosASsf72ik:KI1CozBd_IU:gIN9vFwOqvQ"><img border="0" src="http://feeds.feedburner.com/~ff/d0od?i=VosASsf72ik:KI1CozBd_IU:gIN9vFwOqvQ" /></a> <a href="http://feeds.feedburner.com/~ff/d0od?a=VosASsf72ik:KI1CozBd_IU:yIl2AUoC8zA"><img border="0" src="http://feeds.feedburner.com/~ff/d0od?d=yIl2AUoC8zA" /></a>\u000a</div><img height="1" src="http://feeds.feedburner.com/~r/d0od/~4/VosASsf72ik" width="1" />
p468
stRp469
sg20
(lp470
g1
(g2
g3
(dp471
g23
Vhttp://feedproxy.google.com/~r/d0od/~3/VosASsf72ik/windows-threshold-convergence-ubuntu-style
p472
sg25
g26
sg27
g28
stRp473
asg143
(lp474
g1
(g2
g3
(dp475
g146
VNews
p476
sg148
Nsg149
NstRp477
ag1
(g2
g3
(dp478
g146
VUbuntu Phone
p479
sg148
Nsg149
NstRp480
ag1
(g2
g3
(dp481
g146
Vconvergence
p482
sg148
Nsg149
NstRp483
ag1
(g2
g3
(dp484
g146
Vmicrosoft
p485
sg148
Nsg149
NstRp486
ag1
(g2
g3
(dp487
g146
Vwindows
p488
sg148
Nsg149
NstRp489
asS'feedburner_origlink'
p490
Vhttp://www.omgubuntu.co.uk/2014/07/windows-threshold-convergence-ubuntu-style?utm_source=rss&utm_medium=rss&utm_campaign=windows-threshold-convergence-ubuntu-style
p491
sg69
g472
sg162
(lp492
g1
(g2
g3
(dtRp493
asg165
Vhttp://www.omgubuntu.co.uk/?p=92342
p494
sS'wfw_commentrss'
p495
Vhttp://www.omgubuntu.co.uk/2014/07/windows-threshold-convergence-ubuntu-style/feed
p496
sS'author_detail'
p497
g1
(g2
g3
(dp498
g56
VJoey-Elijah Sneddon
p499
stRp500
sS'slash_comments'
p501
V0
sg174
g18
((I2014
I7
I4
I14
I0
I37
I4
I185
I0
t(dtRp502
sg176
g499
sg75
VIs Windows 9 Planned Convergence Feature Similar to Ubuntu?
p503
sg178
g468
sg179
I00
sS'title_detail'
p504
g1
(g2
g3
(dp505
g79
Vhttp://feeds.feedburner.com/d0od
p506
sg25
g87
sg73
Nsg82
g503
stRp507
sg184
VFri, 04 Jul 2014 07:00:37 PDT
p508
stRp509
ag1
(g2
g3
(dp510
S'summary_detail'
p511
g1
(g2
g3
(dp512
g79
Vhttp://feeds.feedburner.com/d0od
p513
sg25
g81
sg73
Nsg82
V<p><img alt="apps-wall-1" class="attachment-post-list wp-post-image" height="200" src="http://www.omgubuntu.co.uk/wp-content/uploads/2014/07/apps-wall-1-350x200.jpg" width="350" />More than 100,000 apps have been downloaded from the Ubuntu for devices software store, despite physical hardware running the OS yet to go on sale.</p>\u000a<p>The post <a href="http://www.omgubuntu.co.uk/2014/07/ubuntu-touch-apps-pass-100k-downloads-ahead-first-hardware" rel="nofollow">Ubuntu Touch Apps Pass 100k Downloads Despite No Phones on Sale</a> first appeared on <a href="http://www.omgubuntu.co.uk" rel="nofollow">OMG! Ubuntu!</a>.</p><div class="feedflare">\u000a<a href="http://feeds.feedburner.com/~ff/d0od?a=u5FZoHbfYE4:Y16eQg0KlqE:wBxX2hOkimM"><img border="0" src="http://feeds.feedburner.com/~ff/d0od?i=u5FZoHbfYE4:Y16eQg0KlqE:wBxX2hOkimM" /></a> <a href="http://feeds.feedburner.com/~ff/d0od?a=u5FZoHbfYE4:Y16eQg0KlqE:I9og5sOYxJI"><img border="0" src="http://feeds.feedburner.com/~ff/d0od?d=I9og5sOYxJI" /></a> <a href="http://feeds.feedburner.com/~ff/d0od?a=u5FZoHbfYE4:Y16eQg0KlqE:qj6IDK7rITs"><img border="0" src="http://feeds.feedburner.com/~ff/d0od?d=qj6IDK7rITs" /></a> <a href="http://feeds.feedburner.com/~ff/d0od?a=u5FZoHbfYE4:Y16eQg0KlqE:V_sGLiPBpWU"><img border="0" src="http://feeds.feedburner.com/~ff/d0od?i=u5FZoHbfYE4:Y16eQg0KlqE:V_sGLiPBpWU" /></a> <a href="http://feeds.feedburner.com/~ff/d0od?a=u5FZoHbfYE4:Y16eQg0KlqE:gIN9vFwOqvQ"><img border="0" src="http://feeds.feedburner.com/~ff/d0od?i=u5FZoHbfYE4:Y16eQg0KlqE:gIN9vFwOqvQ" /></a> <a href="http://feeds.feedburner.com/~ff/d0od?a=u5FZoHbfYE4:Y16eQg0KlqE:yIl2AUoC8zA"><img border="0" src="http://feeds.feedburner.com/~ff/d0od?d=yIl2AUoC8zA" /></a>\u000a</div><img height="1" src="http://feeds.feedburner.com/~r/d0od/~4/u5FZoHbfYE4" width="1" />
p514
stRp515
sg20
(lp516
g1
(g2
g3
(dp517
g23
Vhttp://feedproxy.google.com/~r/d0od/~3/u5FZoHbfYE4/ubuntu-touch-apps-pass-100k-downloads-ahead-first-hardware
p518
sg25
g26
sg27
g28
stRp519
asg143
(lp520
g1
(g2
g3
(dp521
g146
VUbuntu Phone
p522
sg148
Nsg149
NstRp523
ag1
(g2
g3
(dp524
g146
Vclick packages
p525
sg148
Nsg149
NstRp526
ag1
(g2
g3
(dp527
g146
Vtouch apps
p528
sg148
Nsg149
NstRp529
asS'feedburner_origlink'
p530
Vhttp://www.omgubuntu.co.uk/2014/07/ubuntu-touch-apps-pass-100k-downloads-ahead-first-hardware?utm_source=rss&utm_medium=rss&utm_campaign=ubuntu-touch-apps-pass-100k-downloads-ahead-first-hardware
p531
sg69
g518
sg162
(lp532
g1
(g2
g3
(dtRp533
asg165
Vhttp://www.omgubuntu.co.uk/?p=92376
p534
sS'wfw_commentrss'
p535
Vhttp://www.omgubuntu.co.uk/2014/07/ubuntu-touch-apps-pass-100k-downloads-ahead-first-hardware/feed
p536
sS'author_detail'
p537
g1
(g2
g3
(dp538
g56
VJoey-Elijah Sneddon
p539
stRp540
sS'slash_comments'
p541
V0
sg174
g18
((I2014
I7
I3
I17
I11
I12
I3
I184
I0
t(dtRp542
sg176
g539
sg75
VUbuntu Touch Apps Pass 100k Downloads Despite No Phones on Sale
p543
sg178
g514
sg179
I00
sS'title_detail'
p544
g1
(g2
g3
(dp545
g79
Vhttp://feeds.feedburner.com/d0od
p546
sg25
g87
sg73
Nsg82
g543
stRp547
sg184
VThu, 03 Jul 2014 10:11:12 PDT
p548
stRp549
ag1
(g2
g3
(dp550
S'summary_detail'
p551
g1
(g2
g3
(dp552
g79
Vhttp://feeds.feedburner.com/d0od
p553
sg25
g81
sg73
Nsg82
V<p><img alt="Spark KDE Plasma Active Tablet" class="attachment-post-list wp-post-image" height="200" src="http://www.omgubuntu.co.uk/wp-content/uploads/2012/01/tablet-350x200.jpg" width="350" />In news that few following the saga will find surprising, the team behind a highly publicised open-source hardware effort has announced that it is calling time on the project.</p>\u000a<p>The post <a href="http://www.omgubuntu.co.uk/2014/07/kde-improv-tablet-projects-officially-axed" rel="nofollow">KDE Improv, Tablet Projects Officially Axed</a> first appeared on <a href="http://www.omgubuntu.co.uk" rel="nofollow">OMG! Ubuntu!</a>.</p><div class="feedflare">\u000a<a href="http://feeds.feedburner.com/~ff/d0od?a=o02CEmUDOgs:rqfq19Oxx5g:wBxX2hOkimM"><img border="0" src="http://feeds.feedburner.com/~ff/d0od?i=o02CEmUDOgs:rqfq19Oxx5g:wBxX2hOkimM" /></a> <a href="http://feeds.feedburner.com/~ff/d0od?a=o02CEmUDOgs:rqfq19Oxx5g:I9og5sOYxJI"><img border="0" src="http://feeds.feedburner.com/~ff/d0od?d=I9og5sOYxJI" /></a> <a href="http://feeds.feedburner.com/~ff/d0od?a=o02CEmUDOgs:rqfq19Oxx5g:qj6IDK7rITs"><img border="0" src="http://feeds.feedburner.com/~ff/d0od?d=qj6IDK7rITs" /></a> <a href="http://feeds.feedburner.com/~ff/d0od?a=o02CEmUDOgs:rqfq19Oxx5g:V_sGLiPBpWU"><img border="0" src="http://feeds.feedburner.com/~ff/d0od?i=o02CEmUDOgs:rqfq19Oxx5g:V_sGLiPBpWU" /></a> <a href="http://feeds.feedburner.com/~ff/d0od?a=o02CEmUDOgs:rqfq19Oxx5g:gIN9vFwOqvQ"><img border="0" src="http://feeds.feedburner.com/~ff/d0od?i=o02CEmUDOgs:rqfq19Oxx5g:gIN9vFwOqvQ" /></a> <a href="http://feeds.feedburner.com/~ff/d0od?a=o02CEmUDOgs:rqfq19Oxx5g:yIl2AUoC8zA"><img border="0" src="http://feeds.feedburner.com/~ff/d0od?d=yIl2AUoC8zA" /></a>\u000a</div><img height="1" src="http://feeds.feedburner.com/~r/d0od/~4/o02CEmUDOgs" width="1" />
p554
stRp555
sg20
(lp556
g1
(g2
g3
(dp557
g23
Vhttp://feedproxy.google.com/~r/d0od/~3/o02CEmUDOgs/kde-improv-tablet-projects-officially-axed
p558
sg25
g26
sg27
g28
stRp559
asg143
(lp560
g1
(g2
g3
(dp561
g146
VHardware
p562
sg148
Nsg149
NstRp563
ag1
(g2
g3
(dp564
g146
VNews
p565
sg148
Nsg149
NstRp566
ag1
(g2
g3
(dp567
g146
Vimprov
p568
sg148
Nsg149
NstRp569
ag1
(g2
g3
(dp570
g146
Vkde
p571
sg148
Nsg149
NstRp572
ag1
(g2
g3
(dp573
g146
Vvivaldi
p574
sg148
Nsg149
NstRp575
asS'feedburner_origlink'
p576
Vhttp://www.omgubuntu.co.uk/2014/07/kde-improv-tablet-projects-officially-axed?utm_source=rss&utm_medium=rss&utm_campaign=kde-improv-tablet-projects-officially-axed
p577
sg69
g558
sg162
(lp578
g1
(g2
g3
(dtRp579
asg165
Vhttp://www.omgubuntu.co.uk/?p=92306
p580
sS'wfw_commentrss'
p581
Vhttp://www.omgubuntu.co.uk/2014/07/kde-improv-tablet-projects-officially-axed/feed
p582
sS'author_detail'
p583
g1
(g2
g3
(dp584
g56
VJoey-Elijah Sneddon
p585
stRp586
sS'slash_comments'
p587
V0
sg174
g18
((I2014
I7
I1
I13
I42
I19
I1
I182
I0
t(dtRp588
sg176
g585
sg75
VKDE Improv, Tablet Projects Officially Axed
p589
sg178
g554
sg179
I00
sS'title_detail'
p590
g1
(g2
g3
(dp591
g79
Vhttp://feeds.feedburner.com/d0od
p592
sg25
g87
sg73
Nsg82
g589
stRp593
sg184
VTue, 01 Jul 2014 06:42:19 PDT
p594
stRp595
ag1
(g2
g3
(dp596
S'summary_detail'
p597
g1
(g2
g3
(dp598
g79
Vhttp://feeds.feedburner.com/d0od
p599
sg25
g81
sg73
Nsg82
V<p><img alt="Screen Shot 2014-06-29 at 18.01.14" class="attachment-post-list wp-post-image" height="200" src="http://www.omgubuntu.co.uk/wp-content/uploads/2014/06/Screen-Shot-2014-06-29-at-18.01.14-350x200.png" width="350" />Fans of the Rhythmbox CoverArt Browser plugin will find plenty of new features in its latest beta, which is now available for testing.</p>\u000a<p>The post <a href="http://www.omgubuntu.co.uk/2014/06/rhythmbox-plugin-coverart-browser-beta" rel="nofollow">Rhythmbox Cover Art Browser Plugin 2.0 Hits Beta</a> first appeared on <a href="http://www.omgubuntu.co.uk" rel="nofollow">OMG! Ubuntu!</a>.</p><div class="feedflare">\u000a<a href="http://feeds.feedburner.com/~ff/d0od?a=O5mCRz1Co2g:T8yiN7zKzEg:wBxX2hOkimM"><img border="0" src="http://feeds.feedburner.com/~ff/d0od?i=O5mCRz1Co2g:T8yiN7zKzEg:wBxX2hOkimM" /></a> <a href="http://feeds.feedburner.com/~ff/d0od?a=O5mCRz1Co2g:T8yiN7zKzEg:I9og5sOYxJI"><img border="0" src="http://feeds.feedburner.com/~ff/d0od?d=I9og5sOYxJI" /></a> <a href="http://feeds.feedburner.com/~ff/d0od?a=O5mCRz1Co2g:T8yiN7zKzEg:qj6IDK7rITs"><img border="0" src="http://feeds.feedburner.com/~ff/d0od?d=qj6IDK7rITs" /></a> <a href="http://feeds.feedburner.com/~ff/d0od?a=O5mCRz1Co2g:T8yiN7zKzEg:V_sGLiPBpWU"><img border="0" src="http://feeds.feedburner.com/~ff/d0od?i=O5mCRz1Co2g:T8yiN7zKzEg:V_sGLiPBpWU" /></a> <a href="http://feeds.feedburner.com/~ff/d0od?a=O5mCRz1Co2g:T8yiN7zKzEg:gIN9vFwOqvQ"><img border="0" src="http://feeds.feedburner.com/~ff/d0od?i=O5mCRz1Co2g:T8yiN7zKzEg:gIN9vFwOqvQ" /></a> <a href="http://feeds.feedburner.com/~ff/d0od?a=O5mCRz1Co2g:T8yiN7zKzEg:yIl2AUoC8zA"><img border="0" src="http://feeds.feedburner.com/~ff/d0od?d=yIl2AUoC8zA" /></a>\u000a</div><img height="1" src="http://feeds.feedburner.com/~r/d0od/~4/O5mCRz1Co2g" width="1" />
p600
stRp601
sg20
(lp602
g1
(g2
g3
(dp603
g23
Vhttp://feedproxy.google.com/~r/d0od/~3/O5mCRz1Co2g/rhythmbox-plugin-coverart-browser-beta
p604
sg25
g26
sg27
g28
stRp605
asg143
(lp606
g1
(g2
g3
(dp607
g146
VApp
p608
sg148
Nsg149
NstRp609
ag1
(g2
g3
(dp610
g146
Vcoverart
p611
sg148
Nsg149
NstRp612
ag1
(g2
g3
(dp613
g146
Vrhythmbox
p614
sg148
Nsg149
NstRp615
asS'feedburner_origlink'
p616
Vhttp://www.omgubuntu.co.uk/2014/06/rhythmbox-plugin-coverart-browser-beta?utm_source=rss&utm_medium=rss&utm_campaign=rhythmbox-plugin-coverart-browser-beta
p617
sg69
g604
sg162
(lp618
g1
(g2
g3
(dtRp619
asg165
Vhttp://www.omgubuntu.co.uk/?p=92248
p620
sS'wfw_commentrss'
p621
Vhttp://www.omgubuntu.co.uk/2014/06/rhythmbox-plugin-coverart-browser-beta/feed
p622
sS'author_detail'
p623
g1
(g2
g3
(dp624
g56
VJoey-Elijah Sneddon
p625
stRp626
sS'slash_comments'
p627
V0
sg174
g18
((I2014
I6
I30
I11
I5
I23
I0
I181
I0
t(dtRp628
sg176
g625
sg75
VRhythmbox Cover Art Browser Plugin 2.0 Hits Beta
p629
sg178
g600
sg179
I00
sS'title_detail'
p630
g1
(g2
g3
(dp631
g79
Vhttp://feeds.feedburner.com/d0od
p632
sg25
g87
sg73
Nsg82
g629
stRp633
sg184
VMon, 30 Jun 2014 04:05:23 PDT
p634
stRp635
ag1
(g2
g3
(dp636
S'summary_detail'
p637
g1
(g2
g3
(dp638
g79
Vhttp://feeds.feedburner.com/d0od
p639
sg25
g81
sg73
Nsg82
V<p><img alt="vocal tile" class="attachment-post-list wp-post-image" height="200" src="http://www.omgubuntu.co.uk/wp-content/uploads/2014/06/coxl-350x200.jpg" width="350" />Back in April we found ourselves enamoured by a promising new podcast app for Ubuntu called 'Vocal', and now you can help test it.</p>\u000a<p>The post <a href="http://www.omgubuntu.co.uk/2014/06/linux-podcast-app-vocal-hits-preview-kicker" rel="nofollow">New Linux Podcast App &#8216;Vocal&#8217; Hits Beta, Ready for Testing</a> first appeared on <a href="http://www.omgubuntu.co.uk" rel="nofollow">OMG! Ubuntu!</a>.</p><div class="feedflare">\u000a<a href="http://feeds.feedburner.com/~ff/d0od?a=7-o0OCXz0hM:hUEFha1k-Yk:wBxX2hOkimM"><img border="0" src="http://feeds.feedburner.com/~ff/d0od?i=7-o0OCXz0hM:hUEFha1k-Yk:wBxX2hOkimM" /></a> <a href="http://feeds.feedburner.com/~ff/d0od?a=7-o0OCXz0hM:hUEFha1k-Yk:I9og5sOYxJI"><img border="0" src="http://feeds.feedburner.com/~ff/d0od?d=I9og5sOYxJI" /></a> <a href="http://feeds.feedburner.com/~ff/d0od?a=7-o0OCXz0hM:hUEFha1k-Yk:qj6IDK7rITs"><img border="0" src="http://feeds.feedburner.com/~ff/d0od?d=qj6IDK7rITs" /></a> <a href="http://feeds.feedburner.com/~ff/d0od?a=7-o0OCXz0hM:hUEFha1k-Yk:V_sGLiPBpWU"><img border="0" src="http://feeds.feedburner.com/~ff/d0od?i=7-o0OCXz0hM:hUEFha1k-Yk:V_sGLiPBpWU" /></a> <a href="http://feeds.feedburner.com/~ff/d0od?a=7-o0OCXz0hM:hUEFha1k-Yk:gIN9vFwOqvQ"><img border="0" src="http://feeds.feedburner.com/~ff/d0od?i=7-o0OCXz0hM:hUEFha1k-Yk:gIN9vFwOqvQ" /></a> <a href="http://feeds.feedburner.com/~ff/d0od?a=7-o0OCXz0hM:hUEFha1k-Yk:yIl2AUoC8zA"><img border="0" src="http://feeds.feedburner.com/~ff/d0od?d=yIl2AUoC8zA" /></a>\u000a</div><img height="1" src="http://feeds.feedburner.com/~r/d0od/~4/7-o0OCXz0hM" width="1" />
p640
stRp641
sg20
(lp642
g1
(g2
g3
(dp643
g23
Vhttp://feedproxy.google.com/~r/d0od/~3/7-o0OCXz0hM/linux-podcast-app-vocal-hits-preview-kicker
p644
sg25
g26
sg27
g28
stRp645
asg143
(lp646
g1
(g2
g3
(dp647
g146
VApp
p648
sg148
Nsg149
NstRp649
ag1
(g2
g3
(dp650
g146
Vpodcasts
p651
sg148
Nsg149
NstRp652
ag1
(g2
g3
(dp653
g146
Vvocal
p654
sg148
Nsg149
NstRp655
asS'feedburner_origlink'
p656
Vhttp://www.omgubuntu.co.uk/2014/06/linux-podcast-app-vocal-hits-preview-kicker?utm_source=rss&utm_medium=rss&utm_campaign=linux-podcast-app-vocal-hits-preview-kicker
p657
sg69
g644
sg162
(lp658
g1
(g2
g3
(dtRp659
asg165
Vhttp://www.omgubuntu.co.uk/?p=92265
p660
sS'wfw_commentrss'
p661
Vhttp://www.omgubuntu.co.uk/2014/06/linux-podcast-app-vocal-hits-preview-kicker/feed
p662
sS'author_detail'
p663
g1
(g2
g3
(dp664
g56
VJoey-Elijah Sneddon
p665
stRp666
sS'slash_comments'
p667
V0
sg174
g18
((I2014
I6
I29
I17
I53
I0
I6
I180
I0
t(dtRp668
sg176
g665
sg75
VNew Linux Podcast App \u2018Vocal\u2019 Hits Beta, Ready for Testing
p669
sg178
g640
sg179
I00
sS'title_detail'
p670
g1
(g2
g3
(dp671
g79
Vhttp://feeds.feedburner.com/d0od
p672
sg25
g87
sg73
Nsg82
g669
stRp673
sg184
VSun, 29 Jun 2014 10:53:00 PDT
p674
stRp675
ag1
(g2
g3
(dp676
S'summary_detail'
p677
g1
(g2
g3
(dp678
g79
Vhttp://feeds.feedburner.com/d0od
p679
sg25
g81
sg73
Nsg82
V<p><img alt="kde connect" class="attachment-post-list wp-post-image" height="200" src="http://www.omgubuntu.co.uk/wp-content/uploads/2013/09/kde-connect.jpg" width="350" />A new version of KDE Connect for Android and the Plasma desktop has been released and adds a number of new features, including file sending.</p>\u000a<p>The post <a href="http://www.omgubuntu.co.uk/2014/06/kde-connect-android-notifications-linux-desktop" rel="nofollow">KDE Connect Adds Android File Sending, Touchpad Emulation</a> first appeared on <a href="http://www.omgubuntu.co.uk" rel="nofollow">OMG! Ubuntu!</a>.</p><div class="feedflare">\u000a<a href="http://feeds.feedburner.com/~ff/d0od?a=_kberTv8X68:O43fly4BGQg:wBxX2hOkimM"><img border="0" src="http://feeds.feedburner.com/~ff/d0od?i=_kberTv8X68:O43fly4BGQg:wBxX2hOkimM" /></a> <a href="http://feeds.feedburner.com/~ff/d0od?a=_kberTv8X68:O43fly4BGQg:I9og5sOYxJI"><img border="0" src="http://feeds.feedburner.com/~ff/d0od?d=I9og5sOYxJI" /></a> <a href="http://feeds.feedburner.com/~ff/d0od?a=_kberTv8X68:O43fly4BGQg:qj6IDK7rITs"><img border="0" src="http://feeds.feedburner.com/~ff/d0od?d=qj6IDK7rITs" /></a> <a href="http://feeds.feedburner.com/~ff/d0od?a=_kberTv8X68:O43fly4BGQg:V_sGLiPBpWU"><img border="0" src="http://feeds.feedburner.com/~ff/d0od?i=_kberTv8X68:O43fly4BGQg:V_sGLiPBpWU" /></a> <a href="http://feeds.feedburner.com/~ff/d0od?a=_kberTv8X68:O43fly4BGQg:gIN9vFwOqvQ"><img border="0" src="http://feeds.feedburner.com/~ff/d0od?i=_kberTv8X68:O43fly4BGQg:gIN9vFwOqvQ" /></a> <a href="http://feeds.feedburner.com/~ff/d0od?a=_kberTv8X68:O43fly4BGQg:yIl2AUoC8zA"><img border="0" src="http://feeds.feedburner.com/~ff/d0od?d=yIl2AUoC8zA" /></a>\u000a</div><img height="1" src="http://feeds.feedburner.com/~r/d0od/~4/_kberTv8X68" width="1" />
p680
stRp681
sg20
(lp682
g1
(g2
g3
(dp683
g23
Vhttp://feedproxy.google.com/~r/d0od/~3/_kberTv8X68/kde-connect-android-notifications-linux-desktop
p684
sg25
g26
sg27
g28
stRp685
asg143
(lp686
g1
(g2
g3
(dp687
g146
VApp
p688
sg148
Nsg149
NstRp689
ag1
(g2
g3
(dp690
g146
Vandroid
p691
sg148
Nsg149
NstRp692
ag1
(g2
g3
(dp693
g146
Vkde connect
p694
sg148
Nsg149
NstRp695
asS'feedburner_origlink'
p696
Vhttp://www.omgubuntu.co.uk/2014/06/kde-connect-android-notifications-linux-desktop?utm_source=rss&utm_medium=rss&utm_campaign=kde-connect-android-notifications-linux-desktop
p697
sg69
g684
sg162
(lp698
g1
(g2
g3
(dtRp699
asg165
Vhttp://www.omgubuntu.co.uk/?p=92227
p700
sS'wfw_commentrss'
p701
Vhttp://www.omgubuntu.co.uk/2014/06/kde-connect-android-notifications-linux-desktop/feed
p702
sS'author_detail'
p703
g1
(g2
g3
(dp704
g56
VJoey-Elijah Sneddon
p705
stRp706
sS'slash_comments'
p707
V0
sg174
g18
((I2014
I6
I29
I15
I7
I2
I6
I180
I0
t(dtRp708
sg176
g705
sg75
VKDE Connect Adds Android File Sending, Touchpad Emulation
p709
sg178
g680
sg179
I00
sS'title_detail'
p710
g1
(g2
g3
(dp711
g79
Vhttp://feeds.feedburner.com/d0od
p712
sg25
g87
sg73
Nsg82
g709
stRp713
sg184
VSun, 29 Jun 2014 08:07:02 PDT
p714
stRp715
ag1
(g2
g3
(dp716
S'summary_detail'
p717
g1
(g2
g3
(dp718
g79
Vhttp://feeds.feedburner.com/d0od
p719
sg25
g81
sg73
Nsg82
V<p><img alt="utopic-unicorn-350x200" class="attachment-post-list wp-post-image" height="200" src="http://www.omgubuntu.co.uk/wp-content/uploads/2014/06/utopic-unicorn-350x200.jpg" width="350" />It's that time of year again: the first alpha of the Utopic Unicorn has been released.</p>\u000a<p>The post <a href="http://www.omgubuntu.co.uk/2014/06/first-alpha-ubuntu-14-10-flavours-released" rel="nofollow">First Alpha for Ubuntu 14.10 Flavours Released</a> first appeared on <a href="http://www.omgubuntu.co.uk" rel="nofollow">OMG! Ubuntu!</a>.</p><div class="feedflare">\u000a<a href="http://feeds.feedburner.com/~ff/d0od?a=0hsMf_Hce7c:5LASzJHnw6Q:wBxX2hOkimM"><img border="0" src="http://feeds.feedburner.com/~ff/d0od?i=0hsMf_Hce7c:5LASzJHnw6Q:wBxX2hOkimM" /></a> <a href="http://feeds.feedburner.com/~ff/d0od?a=0hsMf_Hce7c:5LASzJHnw6Q:I9og5sOYxJI"><img border="0" src="http://feeds.feedburner.com/~ff/d0od?d=I9og5sOYxJI" /></a> <a href="http://feeds.feedburner.com/~ff/d0od?a=0hsMf_Hce7c:5LASzJHnw6Q:qj6IDK7rITs"><img border="0" src="http://feeds.feedburner.com/~ff/d0od?d=qj6IDK7rITs" /></a> <a href="http://feeds.feedburner.com/~ff/d0od?a=0hsMf_Hce7c:5LASzJHnw6Q:V_sGLiPBpWU"><img border="0" src="http://feeds.feedburner.com/~ff/d0od?i=0hsMf_Hce7c:5LASzJHnw6Q:V_sGLiPBpWU" /></a> <a href="http://feeds.feedburner.com/~ff/d0od?a=0hsMf_Hce7c:5LASzJHnw6Q:gIN9vFwOqvQ"><img border="0" src="http://feeds.feedburner.com/~ff/d0od?i=0hsMf_Hce7c:5LASzJHnw6Q:gIN9vFwOqvQ" /></a> <a href="http://feeds.feedburner.com/~ff/d0od?a=0hsMf_Hce7c:5LASzJHnw6Q:yIl2AUoC8zA"><img border="0" src="http://feeds.feedburner.com/~ff/d0od?d=yIl2AUoC8zA" /></a>\u000a</div><img height="1" src="http://feeds.feedburner.com/~r/d0od/~4/0hsMf_Hce7c" width="1" />
p720
stRp721
sg20
(lp722
g1
(g2
g3
(dp723
g23
Vhttp://feedproxy.google.com/~r/d0od/~3/0hsMf_Hce7c/first-alpha-ubuntu-14-10-flavours-released
p724
sg25
g26
sg27
g28
stRp725
asg143
(lp726
g1
(g2
g3
(dp727
g146
VNews
p728
sg148
Nsg149
NstRp729
ag1
(g2
g3
(dp730
g146
Vutopic unicorn
p731
sg148
Nsg149
NstRp732
asS'feedburner_origlink'
p733
Vhttp://www.omgubuntu.co.uk/2014/06/first-alpha-ubuntu-14-10-flavours-released?utm_source=rss&utm_medium=rss&utm_campaign=first-alpha-ubuntu-14-10-flavours-released
p734
sg69
g724
sg162
(lp735
g1
(g2
g3
(dtRp736
asg165
Vhttp://www.omgubuntu.co.uk/?p=92208
p737
sS'wfw_commentrss'
p738
Vhttp://www.omgubuntu.co.uk/2014/06/first-alpha-ubuntu-14-10-flavours-released/feed
p739
sS'author_detail'
p740
g1
(g2
g3
(dp741
g56
VSam Tran
p742
stRp743
sS'slash_comments'
p744
V0
sg174
g18
((I2014
I6
I26
I20
I22
I18
I3
I177
I0
t(dtRp745
sg176
g742
sg75
VFirst Alpha for Ubuntu 14.10 Flavours Released
p746
sg178
g720
sg179
I00
sS'title_detail'
p747
g1
(g2
g3
(dp748
g79
Vhttp://feeds.feedburner.com/d0od
p749
sg25
g87
sg73
Nsg82
g746
stRp750
sg184
VThu, 26 Jun 2014 13:22:18 PDT
p751
stRp752
ag1
(g2
g3
(dp753
S'summary_detail'
p754
g1
(g2
g3
(dp755
g79
Vhttp://feeds.feedburner.com/d0od
p756
sg25
g81
sg73
Nsg82
V<p><img alt="vlc" class="attachment-post-list wp-post-image" height="200" src="http://www.omgubuntu.co.uk/wp-content/uploads/2013/04/vlc2.jpg" width="350" />Getting VLC to use Ubuntu's native desktop system is really simple \u2014 no add-ons are required. In this quick guide will show you how.</p>\u000a<p>The post <a href="http://www.omgubuntu.co.uk/2014/06/make-ubuntu-apps-use-notification-notify-osd" rel="nofollow">Make VLC Use Native Ubuntu Notifications in 5 Quick Clicks</a> first appeared on <a href="http://www.omgubuntu.co.uk" rel="nofollow">OMG! Ubuntu!</a>.</p><div class="feedflare">\u000a<a href="http://feeds.feedburner.com/~ff/d0od?a=kxFG8SzVpzY:TrKCB5-8r8w:wBxX2hOkimM"><img border="0" src="http://feeds.feedburner.com/~ff/d0od?i=kxFG8SzVpzY:TrKCB5-8r8w:wBxX2hOkimM" /></a> <a href="http://feeds.feedburner.com/~ff/d0od?a=kxFG8SzVpzY:TrKCB5-8r8w:I9og5sOYxJI"><img border="0" src="http://feeds.feedburner.com/~ff/d0od?d=I9og5sOYxJI" /></a> <a href="http://feeds.feedburner.com/~ff/d0od?a=kxFG8SzVpzY:TrKCB5-8r8w:qj6IDK7rITs"><img border="0" src="http://feeds.feedburner.com/~ff/d0od?d=qj6IDK7rITs" /></a> <a href="http://feeds.feedburner.com/~ff/d0od?a=kxFG8SzVpzY:TrKCB5-8r8w:V_sGLiPBpWU"><img border="0" src="http://feeds.feedburner.com/~ff/d0od?i=kxFG8SzVpzY:TrKCB5-8r8w:V_sGLiPBpWU" /></a> <a href="http://feeds.feedburner.com/~ff/d0od?a=kxFG8SzVpzY:TrKCB5-8r8w:gIN9vFwOqvQ"><img border="0" src="http://feeds.feedburner.com/~ff/d0od?i=kxFG8SzVpzY:TrKCB5-8r8w:gIN9vFwOqvQ" /></a> <a href="http://feeds.feedburner.com/~ff/d0od?a=kxFG8SzVpzY:TrKCB5-8r8w:yIl2AUoC8zA"><img border="0" src="http://feeds.feedburner.com/~ff/d0od?d=yIl2AUoC8zA" /></a>\u000a</div><img height="1" src="http://feeds.feedburner.com/~r/d0od/~4/kxFG8SzVpzY" width="1" />
p757
stRp758
sg20
(lp759
g1
(g2
g3
(dp760
g23
Vhttp://feedproxy.google.com/~r/d0od/~3/kxFG8SzVpzY/make-ubuntu-apps-use-notification-notify-osd
p761
sg25
g26
sg27
g28
stRp762
asg143
(lp763
g1
(g2
g3
(dp764
g146
VHow To
p765
sg148
Nsg149
NstRp766
ag1
(g2
g3
(dp767
g146
Vvlc
p768
sg148
Nsg149
NstRp769
asS'feedburner_origlink'
p770
Vhttp://www.omgubuntu.co.uk/2014/06/make-ubuntu-apps-use-notification-notify-osd?utm_source=rss&utm_medium=rss&utm_campaign=make-ubuntu-apps-use-notification-notify-osd
p771
sg69
g761
sg162
(lp772
g1
(g2
g3
(dtRp773
asg165
Vhttp://www.omgubuntu.co.uk/?p=87433
p774
sS'wfw_commentrss'
p775
Vhttp://www.omgubuntu.co.uk/2014/06/make-ubuntu-apps-use-notification-notify-osd/feed
p776
sS'author_detail'
p777
g1
(g2
g3
(dp778
g56
VJoey-Elijah Sneddon
p779
stRp780
sS'slash_comments'
p781
V0
sg174
g18
((I2014
I6
I26
I18
I50
I31
I3
I177
I0
t(dtRp782
sg176
g779
sg75
VMake VLC Use Native Ubuntu Notifications in 5 Quick Clicks
p783
sg178
g757
sg179
I00
sS'title_detail'
p784
g1
(g2
g3
(dp785
g79
Vhttp://feeds.feedburner.com/d0od
p786
sg25
g87
sg73
Nsg82
g783
stRp787
sg184
VThu, 26 Jun 2014 11:50:31 PDT
p788
stRp789
ag1
(g2
g3
(dp790
S'summary_detail'
p791
g1
(g2
g3
(dp792
g79
Vhttp://feeds.feedburner.com/d0od
p793
sg25
g81
sg73
Nsg82
V<p><img alt="one-drive" class="attachment-post-list wp-post-image" height="200" src="http://www.omgubuntu.co.uk/wp-content/uploads/2014/06/one-drive-350x200.jpg" width="350" />onedrive-d brings Microsoft OneDrive to Ubuntu, making it another viable alternative for former Ubuntu One users.</p>\u000a<p>The post <a href="http://www.omgubuntu.co.uk/2014/06/one-drive-ubuntu-integration" rel="nofollow">OneDrive-D Syncs Files to and from Microsoft OneDrive on Ubuntu</a> first appeared on <a href="http://www.omgubuntu.co.uk" rel="nofollow">OMG! Ubuntu!</a>.</p><div class="feedflare">\u000a<a href="http://feeds.feedburner.com/~ff/d0od?a=M5I3m4XrO0g:M1P6HQbGY14:wBxX2hOkimM"><img border="0" src="http://feeds.feedburner.com/~ff/d0od?i=M5I3m4XrO0g:M1P6HQbGY14:wBxX2hOkimM" /></a> <a href="http://feeds.feedburner.com/~ff/d0od?a=M5I3m4XrO0g:M1P6HQbGY14:I9og5sOYxJI"><img border="0" src="http://feeds.feedburner.com/~ff/d0od?d=I9og5sOYxJI" /></a> <a href="http://feeds.feedburner.com/~ff/d0od?a=M5I3m4XrO0g:M1P6HQbGY14:qj6IDK7rITs"><img border="0" src="http://feeds.feedburner.com/~ff/d0od?d=qj6IDK7rITs" /></a> <a href="http://feeds.feedburner.com/~ff/d0od?a=M5I3m4XrO0g:M1P6HQbGY14:V_sGLiPBpWU"><img border="0" src="http://feeds.feedburner.com/~ff/d0od?i=M5I3m4XrO0g:M1P6HQbGY14:V_sGLiPBpWU" /></a> <a href="http://feeds.feedburner.com/~ff/d0od?a=M5I3m4XrO0g:M1P6HQbGY14:gIN9vFwOqvQ"><img border="0" src="http://feeds.feedburner.com/~ff/d0od?i=M5I3m4XrO0g:M1P6HQbGY14:gIN9vFwOqvQ" /></a> <a href="http://feeds.feedburner.com/~ff/d0od?a=M5I3m4XrO0g:M1P6HQbGY14:yIl2AUoC8zA"><img border="0" src="http://feeds.feedburner.com/~ff/d0od?d=yIl2AUoC8zA" /></a>\u000a</div><img height="1" src="http://feeds.feedburner.com/~r/d0od/~4/M5I3m4XrO0g" width="1" />
p794
stRp795
sg20
(lp796
g1
(g2
g3
(dp797
g23
Vhttp://feedproxy.google.com/~r/d0od/~3/M5I3m4XrO0g/one-drive-ubuntu-integration
p798
sg25
g26
sg27
g28
stRp799
asg143
(lp800
g1
(g2
g3
(dp801
g146
VApp
p802
sg148
Nsg149
NstRp803
ag1
(g2
g3
(dp804
g146
Vmicrosoft
p805
sg148
Nsg149
NstRp806
ag1
(g2
g3
(dp807
g146
Vonedrive
p808
sg148
Nsg149
NstRp809
asS'feedburner_origlink'
p810
Vhttp://www.omgubuntu.co.uk/2014/06/one-drive-ubuntu-integration?utm_source=rss&utm_medium=rss&utm_campaign=one-drive-ubuntu-integration
p811
sg69
g798
sg162
(lp812
g1
(g2
g3
(dtRp813
asg165
Vhttp://www.omgubuntu.co.uk/?p=92159
p814
sS'wfw_commentrss'
p815
Vhttp://www.omgubuntu.co.uk/2014/06/one-drive-ubuntu-integration/feed
p816
sS'author_detail'
p817
g1
(g2
g3
(dp818
g56
VJoey-Elijah Sneddon
p819
stRp820
sS'slash_comments'
p821
V0
sg174
g18
((I2014
I6
I24
I14
I58
I29
I1
I175
I0
t(dtRp822
sg176
g819
sg75
VOneDrive-D Syncs Files to and from Microsoft OneDrive on Ubuntu
p823
sg178
g794
sg179
I00
sS'title_detail'
p824
g1
(g2
g3
(dp825
g79
Vhttp://feeds.feedburner.com/d0od
p826
sg25
g87
sg73
Nsg82
g823
stRp827
sg184
VTue, 24 Jun 2014 07:58:29 PDT
p828
stRp829
ag1
(g2
g3
(dp830
S'summary_detail'
p831
g1
(g2
g3
(dp832
g79
Vhttp://feeds.feedburner.com/d0od
p833
sg25
g81
sg73
Nsg82
V<p><img alt="feedly" class="attachment-post-list wp-post-image" height="200" src="http://www.omgubuntu.co.uk/wp-content/uploads/2014/06/feedly-350x200.png" width="350" />Most of us appreciate that the command line is a versatile, powerful tool, but few are aware that it can be used to do more than just run a package, development and system-orientated tasks. </p>\u000a<p>The post <a href="http://www.omgubuntu.co.uk/2014/06/feednix-feedly-terminal-linux-app" rel="nofollow">Feednix is a Command Line RSS Reader for Feedly</a> first appeared on <a href="http://www.omgubuntu.co.uk" rel="nofollow">OMG! Ubuntu!</a>.</p><div class="feedflare">\u000a<a href="http://feeds.feedburner.com/~ff/d0od?a=fKK3xhncg1g:3gxxwRR7PrA:wBxX2hOkimM"><img border="0" src="http://feeds.feedburner.com/~ff/d0od?i=fKK3xhncg1g:3gxxwRR7PrA:wBxX2hOkimM" /></a> <a href="http://feeds.feedburner.com/~ff/d0od?a=fKK3xhncg1g:3gxxwRR7PrA:I9og5sOYxJI"><img border="0" src="http://feeds.feedburner.com/~ff/d0od?d=I9og5sOYxJI" /></a> <a href="http://feeds.feedburner.com/~ff/d0od?a=fKK3xhncg1g:3gxxwRR7PrA:qj6IDK7rITs"><img border="0" src="http://feeds.feedburner.com/~ff/d0od?d=qj6IDK7rITs" /></a> <a href="http://feeds.feedburner.com/~ff/d0od?a=fKK3xhncg1g:3gxxwRR7PrA:V_sGLiPBpWU"><img border="0" src="http://feeds.feedburner.com/~ff/d0od?i=fKK3xhncg1g:3gxxwRR7PrA:V_sGLiPBpWU" /></a> <a href="http://feeds.feedburner.com/~ff/d0od?a=fKK3xhncg1g:3gxxwRR7PrA:gIN9vFwOqvQ"><img border="0" src="http://feeds.feedburner.com/~ff/d0od?i=fKK3xhncg1g:3gxxwRR7PrA:gIN9vFwOqvQ" /></a> <a href="http://feeds.feedburner.com/~ff/d0od?a=fKK3xhncg1g:3gxxwRR7PrA:yIl2AUoC8zA"><img border="0" src="http://feeds.feedburner.com/~ff/d0od?d=yIl2AUoC8zA" /></a>\u000a</div><img height="1" src="http://feeds.feedburner.com/~r/d0od/~4/fKK3xhncg1g" width="1" />
p834
stRp835
sg20
(lp836
g1
(g2
g3
(dp837
g23
Vhttp://feedproxy.google.com/~r/d0od/~3/fKK3xhncg1g/feednix-feedly-terminal-linux-app
p838
sg25
g26
sg27
g28
stRp839
asg143
(lp840
g1
(g2
g3
(dp841
g146
VPro User
p842
sg148
Nsg149
NstRp843
ag1
(g2
g3
(dp844
g146
Vcommandline
p845
sg148
Nsg149
NstRp846
ag1
(g2
g3
(dp847
g146
Vterminal
p848
sg148
Nsg149
NstRp849
asS'feedburner_origlink'
p850
Vhttp://www.omgubuntu.co.uk/2014/06/feednix-feedly-terminal-linux-app?utm_source=rss&utm_medium=rss&utm_campaign=feednix-feedly-terminal-linux-app
p851
sg69
g838
sg162
(lp852
g1
(g2
g3
(dtRp853
asg165
Vhttp://www.omgubuntu.co.uk/?p=91823
p854
sS'wfw_commentrss'
p855
Vhttp://www.omgubuntu.co.uk/2014/06/feednix-feedly-terminal-linux-app/feed
p856
sS'author_detail'
p857
g1
(g2
g3
(dp858
g56
VJoey-Elijah Sneddon
p859
stRp860
sS'slash_comments'
p861
V0
sg174
g18
((I2014
I6
I23
I14
I55
I50
I0
I174
I0
t(dtRp862
sg176
g859
sg75
VFeednix is a Command Line RSS Reader for Feedly
p863
sg178
g834
sg179
I00
sS'title_detail'
p864
g1
(g2
g3
(dp865
g79
Vhttp://feeds.feedburner.com/d0od
p866
sg25
g87
sg73
Nsg82
g863
stRp867
sg184
VMon, 23 Jun 2014 07:55:50 PDT
p868
stRp869
asS'namespaces'
p870
(dp871
S''
Vhttp://pipes.yahoo.com
p872
sS'sy'
p873
Vhttp://purl.org/rss/1.0/modules/syndication/
p874
sS'dc'
p875
Vhttp://purl.org/dc/elements/1.1/
p876
sS'slash'
p877
Vhttp://purl.org/rss/1.0/modules/slash/
p878
sS'xhtml'
p879
Vhttp://www.w3.org/1999/xhtml
p880
sS'feedburner'
p881
Vhttp://rssnamespace.org/feedburner/ext/1.0
p882
sS'wfw'
p883
Vhttp://wellformedweb.org/CommentAPI/
p884
sstRp885
.