ccopy_reg
_reconstructor
p1
(cfeedparser
FeedParserDict
p2
c__builtin__
dict
p3
(dp4
S'feed'
p5
g1
(g2
g3
(dp6
S'updated'
p7
VThu, 10 Jul 2014 17:24:20 -0000
p8
sS'subtitle'
p9
VPosts from Blog
p10
sS'links'
p11
(lp12
g1
(g2
g3
(dp13
S'href'
p14
Vhttp://day9.tv/d/b/blog/
p15
sS'type'
p16
Vtext/html
p17
sS'rel'
p18
Valternate
p19
stRp20
ag1
(g2
g3
(dp21
S'href'
p22
Vhttp://day9.tv/d/b/blog/rss/
p23
sg16
Vapplication/atom+xml
p24
sS'rel'
p25
Vself
p26
stRp27
asS'language'
p28
Ven
p29
sS'title'
p30
VBlog : Day[9]TV
p31
sS'subtitle_detail'
p32
g1
(g2
g3
(dp33
S'base'
p34
Vhttp://day9.tv/d/b/blog/rss/
p35
sg16
Vtext/html
p36
sg28
NsS'value'
p37
g10
stRp38
sS'title_detail'
p39
g1
(g2
g3
(dp40
g34
Vhttp://day9.tv/d/b/blog/rss/
p41
sg16
Vtext/plain
p42
sg28
Nsg37
g31
stRp43
sS'link'
p44
g15
sS'updated_parsed'
p45
ctime
struct_time
p46
((I2014
I7
I10
I17
I24
I20
I3
I191
I0
t(dtRp47
stRp48
sS'status'
p49
I200
sg7
S'Fri, 11 Jul 2014 00:24:20 GMT'
p50
sg45
g46
((I2014
I7
I11
I0
I24
I20
I4
I192
I0
t(dtRp51
sS'encoding'
p52
Vutf-8
p53
sS'bozo'
p54
I0
sS'headers'
p55
(dp56
S'content-length'
p57
S'1818'
p58
sS'content-encoding'
p59
S'gzip'
p60
sS'expires'
p61
S'Fri, 11 Jul 2014 00:25:20 GMT'
p62
sS'vary'
p63
S'Cookie, Accept-Encoding'
p64
sS'server'
p65
S'gunicorn/0.17.2'
p66
sS'last-modified'
p67
g50
sS'connection'
p68
S'Close'
p69
sS'cache-control'
p70
S'max-age=60'
p71
sS'date'
p72
S'Fri, 11 Jul 2014 00:24:24 GMT'
p73
sS'x-frame-options'
p74
S'SAMEORIGIN'
p75
sS'content-type'
p76
S'application/rss+xml; charset=utf-8'
p77
ssg14
Vhttp://day9.tv/d/b/blog/rss/
p78
sS'version'
p79
Vrss20
p80
sS'entries'
p81
(lp82
g1
(g2
g3
(dp83
S'summary_detail'
p84
g1
(g2
g3
(dp85
g34
Vhttp://day9.tv/d/b/blog/rss/
p86
sg16
g36
sg28
Nsg37
VIt is my fist-pumpingly-delighted pleasure to reveal a demo of Artillery\u2019s technology platform! See why I\u2019m so excited? All the above tech demos were running in a browser. Without having to download or install a client. With an empty browser ...
p87
stRp88
sg11
(lp89
g1
(g2
g3
(dp90
g14
Vhttp://day9.tv/d/Day9/blog-9-artillerys-gaming-platform-a-video-demo/
p91
sg16
g17
sg18
g19
stRp92
asg30
VBlog #9: Artillery's Gaming Platform - A Video Demo! by Day9
p93
sS'summary'
p94
g87
sS'guidislink'
p95
I00
sS'title_detail'
p96
g1
(g2
g3
(dp97
g34
Vhttp://day9.tv/d/b/blog/rss/
p98
sg16
Vtext/html
p99
sg28
Nsg37
g93
stRp100
sg44
g91
sS'id'
p101
Vhttp://day9.tv/d/Day9/blog-9-artillerys-gaming-platform-a-video-demo/
p102
stRp103
ag1
(g2
g3
(dp104
S'summary_detail'
p105
g1
(g2
g3
(dp106
g34
Vhttp://day9.tv/d/b/blog/rss/
p107
sg16
g36
sg28
Nsg37
Vl\u2019m thrilled to announce that I\u2019m working on a game with a lovely group of people called Artillery Games! I\u2019ve always loved playing games and competing in StarCraft. So, after college I applied for and was accepted to an Interactive ...
p108
stRp109
sg11
(lp110
g1
(g2
g3
(dp111
g14
Vhttp://day9.tv/d/Day9/blog-8-day9-is-making-a-game-with-artillery-games/
p112
sg16
g17
sg18
g19
stRp113
asg30
VBlog #8: Day[9] Is Making a game with Artillery Games by Day9
p114
sg94
g108
sg95
I00
sS'title_detail'
p115
g1
(g2
g3
(dp116
g34
Vhttp://day9.tv/d/b/blog/rss/
p117
sg16
g42
sg28
Nsg37
g114
stRp118
sg44
g112
sg101
Vhttp://day9.tv/d/Day9/blog-8-day9-is-making-a-game-with-artillery-games/
p119
stRp120
ag1
(g2
g3
(dp121
S'summary_detail'
p122
g1
(g2
g3
(dp123
g34
Vhttp://day9.tv/d/b/blog/rss/
p124
sg16
g36
sg28
Nsg37
VSo I\u2019ve been on the road and away from this blog. Let\u2019s recap what we\u2019ve learned so far before we go on with our discussion of how to produce eSports tournaments.
p125
stRp126
sg11
(lp127
g1
(g2
g3
(dp128
g14
Vhttp://day9.tv/d/Day9/blog-70-tournaments-101-continued/
p129
sg16
g17
sg18
g19
stRp130
asg30
VBlog #7.0: Tournaments 101 Continued by Day9
p131
sg94
g125
sg95
I00
sS'title_detail'
p132
g1
(g2
g3
(dp133
g34
Vhttp://day9.tv/d/b/blog/rss/
p134
sg16
g42
sg28
Nsg37
g131
stRp135
sg44
g129
sg101
Vhttp://day9.tv/d/Day9/blog-70-tournaments-101-continued/
p136
stRp137
ag1
(g2
g3
(dp138
S'summary_detail'
p139
g1
(g2
g3
(dp140
g34
Vhttp://day9.tv/d/b/blog/rss/
p141
sg16
g36
sg28
Nsg37
VWe are twin brothers in our final year studying aeronautics engineering at the University of Texas. TeSPA is a student eSports club that we started when we were juniors. It is best known as the group behind the LoneStar Clash, ...
p142
stRp143
sg11
(lp144
g1
(g2
g3
(dp145
g14
Vhttp://day9.tv/d/Day9/blog-6-tournaments-tespa-and-the-lonestar-clash/
p146
sg16
g17
sg18
g19
stRp147
asg30
VBlog #6 Tournaments: TeSPA and the LoneStar Clash by Day9
p148
sg94
g142
sg95
I00
sS'title_detail'
p149
g1
(g2
g3
(dp150
g34
Vhttp://day9.tv/d/b/blog/rss/
p151
sg16
g42
sg28
Nsg37
g148
stRp152
sg44
g146
sg101
Vhttp://day9.tv/d/Day9/blog-6-tournaments-tespa-and-the-lonestar-clash/
p153
stRp154
ag1
(g2
g3
(dp155
S'summary_detail'
p156
g1
(g2
g3
(dp157
g34
Vhttp://day9.tv/d/b/blog/rss/
p158
sg16
g36
sg28
Nsg37
VOver the next several posts, I am going to be discussing tournaments: what they cost, how they are produced, how they are broadcast. I am going to do this by telling you the tale of two tournaments: the LoneStar Clash ...
p159
stRp160
sg11
(lp161
g1
(g2
g3
(dp162
g14
Vhttp://day9.tv/d/Day9/blog-50-esport-tournaments-101/
p163
sg16
g17
sg18
g19
stRp164
asg30
VBlog #5.0  eSport Tournaments 101 by Day9
p165
sg94
g159
sg95
I00
sS'title_detail'
p166
g1
(g2
g3
(dp167
g34
Vhttp://day9.tv/d/b/blog/rss/
p168
sg16
g42
sg28
Nsg37
g165
stRp169
sg44
g163
sg101
Vhttp://day9.tv/d/Day9/blog-50-esport-tournaments-101/
p170
stRp171
ag1
(g2
g3
(dp172
S'summary_detail'
p173
g1
(g2
g3
(dp174
g34
Vhttp://day9.tv/d/b/blog/rss/
p175
sg16
g36
sg28
Nsg37
VSo you\u2019re ready to step up to the plate and begin growing your own eSports career. Awesome! Before you take too many steps, allow me to stress a couple of lessons I wish I knew before I started!
p176
stRp177
sg11
(lp178
g1
(g2
g3
(dp179
g14
Vhttp://day9.tv/d/Day9/blog-40-what-esports-business-should-i-launch/
p180
sg16
g17
sg18
g19
stRp181
asg30
VBlog #4.0:  What eSports Business should I launch? by Day9
p182
sg94
g176
sg95
I00
sS'title_detail'
p183
g1
(g2
g3
(dp184
g34
Vhttp://day9.tv/d/b/blog/rss/
p185
sg16
g42
sg28
Nsg37
g182
stRp186
sg44
g180
sg101
Vhttp://day9.tv/d/Day9/blog-40-what-esports-business-should-i-launch/
p187
stRp188
ag1
(g2
g3
(dp189
S'summary_detail'
p190
g1
(g2
g3
(dp191
g34
Vhttp://day9.tv/d/b/blog/rss/
p192
sg16
g36
sg28
Nsg37
VI\u2019m still learning a lot about how to make my way in eSports. I spend a lot of time reading to keep up on eSports news, new media news, and tech news and I spend a lot of time reading ...
p193
stRp194
sg11
(lp195
g1
(g2
g3
(dp196
g14
Vhttp://day9.tv/d/Day9/blog-30-a-weekend-reading-list-for-esports-entrepreneurship/
p197
sg16
g17
sg18
g19
stRp198
asg30
VBlog #3.0: A weekend reading list for eSports entrepreneurship by Day9
p199
sg94
g193
sg95
I00
sS'title_detail'
p200
g1
(g2
g3
(dp201
g34
Vhttp://day9.tv/d/b/blog/rss/
p202
sg16
g42
sg28
Nsg37
g199
stRp203
sg44
g197
sg101
Vhttp://day9.tv/d/Day9/blog-30-a-weekend-reading-list-for-esports-entrepreneurship/
p204
stRp205
ag1
(g2
g3
(dp206
S'summary_detail'
p207
g1
(g2
g3
(dp208
g34
Vhttp://day9.tv/d/b/blog/rss/
p209
sg16
g36
sg28
Nsg37
VI was so intrigued by your responses to Blog #2 (\u201cGetting a Job in eSports\u201d) that I decided to bump back Blog #3 and jump into the current discussion. I\u2019m calling this Blog 2.5.
p210
stRp211
sg11
(lp212
g1
(g2
g3
(dp213
g14
Vhttp://day9.tv/d/Day9/blog-25-your-responses-to-blog-20/
p214
sg16
g17
sg18
g19
stRp215
asg30
VBlog #2.5:  Your responses to Blog 2.0 by Day9
p216
sg94
g210
sg95
I00
sS'title_detail'
p217
g1
(g2
g3
(dp218
g34
Vhttp://day9.tv/d/b/blog/rss/
p219
sg16
g42
sg28
Nsg37
g216
stRp220
sg44
g214
sg101
Vhttp://day9.tv/d/Day9/blog-25-your-responses-to-blog-20/
p221
stRp222
ag1
(g2
g3
(dp223
S'summary_detail'
p224
g1
(g2
g3
(dp225
g34
Vhttp://day9.tv/d/b/blog/rss/
p226
sg16
g36
sg28
Nsg37
VSo you want to get a job in eSports. F*** yeah! As I indicated in my last blog, you have been emailing me in droves telling me so. Well, I have to be honest with you. The chances of your ...
p227
stRp228
sg11
(lp229
g1
(g2
g3
(dp230
g14
Vhttp://day9.tv/d/Day9/blog-2-getting-a-job-in-esports/
p231
sg16
g17
sg18
g19
stRp232
asg30
VBlog #2: Getting a job in eSports. by Day9
p233
sg94
g227
sg95
I00
sS'title_detail'
p234
g1
(g2
g3
(dp235
g34
Vhttp://day9.tv/d/b/blog/rss/
p236
sg16
g42
sg28
Nsg37
g233
stRp237
sg44
g231
sg101
Vhttp://day9.tv/d/Day9/blog-2-getting-a-job-in-esports/
p238
stRp239
ag1
(g2
g3
(dp240
S'summary_detail'
p241
g1
(g2
g3
(dp242
g34
Vhttp://day9.tv/d/b/blog/rss/
p243
sg16
g36
sg28
Nsg37
VFirst of all, let me start by thanking you all for watching the show and supporting me for the last three years. It\u2019s been an amazing and breathtaking ride and it all happened because of you!
p244
stRp245
sg11
(lp246
g1
(g2
g3
(dp247
g14
Vhttp://day9.tv/d/Day9/blog-1-why-im-making-this-blog/
p248
sg16
g17
sg18
g19
stRp249
asg30
VBlog #1: Why I\u2019m making this blog. by Day9
p250
sg94
g244
sg95
I00
sS'title_detail'
p251
g1
(g2
g3
(dp252
g34
Vhttp://day9.tv/d/b/blog/rss/
p253
sg16
g42
sg28
Nsg37
g250
stRp254
sg44
g248
sg101
Vhttp://day9.tv/d/Day9/blog-1-why-im-making-this-blog/
p255
stRp256
asS'namespaces'
p257
(dp258
S''
Vhttp://www.w3.org/2005/Atom
p259
sstRp260
.