ccopy_reg
_reconstructor
p1
(cfeedparser
FeedParserDict
p2
c__builtin__
dict
p3
(dp4
S'feed'
p5
g1
(g2
g3
(dp6
S'subtitle'
p7
VMokslo, technikos, IT, elektronikos, telekomunikacij\u0173, technologij\u0173, fizikos, automobili\u0173, motocikl\u0173, statyb\u0173, karini\u0173 technologij\u0173, astronomijos, gamtos, medicinos naujienos ir straipsniai. Produkt\u0173 ap\u017evalgos, naujausi \u017eaidimai, patarimai perkantiems ir perduodantiems, diskusijos forume, nuotraukos, elektroniniai sveikinimai (elektroniniai atvirukai, \u017einu\u010di\u0173 tekstai), citatos, \u012fdom\u016bs faktai, darbastalio fonai, nemokamos programos - visa tai rasite mokslo ir technologij\u0173 pasaulyje. Raktiniai \u017eod\u017eiai - technologijos, technologij\u0173 naujienos, elektronika ir elektronikos naujienos, informacin\u0117s technologijos ir IT naujienos, ry\u0161i\u0173 technologijos, auk\u0161tosios technologijos, astronomija, informatika, mokslas ir mokslo naujienos, technikos naujienos, skaitmeniniai fotoaparatai, skaitmenin\u0117s kameros, fizika, chemija, medicina, kosmosas, ginklai, karin\u0117s technologijos, medicina, \u017emogus ir gamta, statybos, automobiliai ir motociklai...
p8
sS'links'
p9
(lp10
g1
(g2
g3
(dp11
S'href'
p12
Vhttp://www.technologijos.lt
p13
sS'type'
p14
Vtext/html
p15
sS'rel'
p16
Valternate
p17
stRp18
ag1
(g2
g3
(dp19
S'href'
p20
Vhttp://feeds.feedburner.com/technologijos-visos-publikacijos
p21
sS'type'
p22
Vapplication/rdf+xml
p23
sS'rel'
p24
Vself
p25
stRp26
ag1
(g2
g3
(dp27
S'href'
p28
Vhttp://pubsubhubbub.appspot.com/
p29
sg14
g15
sS'rel'
p30
Vhub
p31
stRp32
asS'title'
p33
Vwww.technologijos.lt - NewsRSS-bendras
p34
sS'rdf_seq'
p35
V
sS'rdf_li'
p36
(dp37
S'rdf:resource'
p38
Vhttp://www.technologijos.lt/n/zmoniu_pasaulis/redakcijos_akiratis/S-41486/straipsnis?name=S-41486&l=2&p=1
p39
ssS'feedburner_info'
p40
(dp41
S'uri'
p42
Vtechnologijos-visos-publikacijos
p43
ssS'subtitle_detail'
p44
g1
(g2
g3
(dp45
S'base'
p46
Vhttp://feeds2.feedburner.com/technologijos-visos-publikacijos
p47
sg14
Vtext/html
p48
sS'language'
p49
NsS'value'
p50
g8
stRp51
sS'title_detail'
p52
g1
(g2
g3
(dp53
g46
Vhttp://feeds2.feedburner.com/technologijos-visos-publikacijos
p54
sg14
Vtext/plain
p55
sg49
Nsg50
g34
stRp56
sS'link'
p57
g13
sS'entries'
p58
V
stRp59
sS'status'
p60
I200
sS'updated'
p61
S'Fri, 11 Jul 2014 00:11:25 GMT'
p62
sS'updated_parsed'
p63
ctime
struct_time
p64
((I2014
I7
I11
I0
I11
I25
I4
I192
I0
t(dtRp65
sS'encoding'
p66
VUTF-8
p67
sS'bozo'
p68
I0
sS'headers'
p69
(dp70
S'alternate-protocol'
p71
S'80:quic'
p72
sS'x-xss-protection'
p73
S'1; mode=block'
p74
sS'x-content-type-options'
p75
S'nosniff'
p76
sS'content-encoding'
p77
S'gzip'
p78
sS'transfer-encoding'
p79
S'chunked'
p80
sS'expires'
p81
S'Fri, 11 Jul 2014 00:24:23 GMT'
p82
sS'server'
p83
S'GSE'
p84
sS'last-modified'
p85
g62
sS'connection'
p86
S'close'
p87
sS'etag'
p88
S'AdrqixkWqTCbrrHXygY2n4ysWME'
p89
sS'cache-control'
p90
S'private, max-age=0'
p91
sS'date'
p92
S'Fri, 11 Jul 2014 00:24:23 GMT'
p93
sS'content-type'
p94
S'text/xml; charset=UTF-8'
p95
ssS'etag'
p96
VAdrqixkWqTCbrrHXygY2n4ysWME
p97
sg12
Vhttp://feeds2.feedburner.com/technologijos-visos-publikacijos
p98
sS'version'
p99
Vrss10
p100
sg58
(lp101
g1
(g2
g3
(dp102
S'summary_detail'
p103
g1
(g2
g3
(dp104
g46
Vhttp://feeds2.feedburner.com/technologijos-visos-publikacijos
p105
sg14
g48
sg49
Nsg50
V<p>Tibetie\u010diai puikiai jau\u010diasi auk\u0161tai, kur oras retas. Regis, tok\u012f prana\u0161um\u0105 suteikiantis genas kilo i\u0161 i\u0161nykusios Denisovo \u017emoni\u0173 r\u016b\u0161ies.</p><img height="1" src="http://feeds.feedburner.com/~r/technologijos-visos-publikacijos/~4/P0e6N_nnU1c" width="1" />
p106
stRp107
sg63
g64
((I2014
I7
I11
I0
I25
I0
I4
I192
I0
t(dtRp108
sg9
(lp109
g1
(g2
g3
(dp110
g12
Vhttp://feedproxy.google.com/~r/technologijos-visos-publikacijos/~3/P0e6N_nnU1c/straipsnis
p111
sg14
g15
sg16
g17
stRp112
asg33
VI\u0161nyk\u0119 \u017emon\u0117s padeda tibetie\u010diams i\u0161gyventi auk\u0161tikaln\u0117se
p113
sS'feedburner_origlink'
p114
Vhttp://www.technologijos.lt/n/mokslas/istorija_ir_archeologija/S-41443/straipsnis?name=S-41443&l=2&p=1
p115
sg61
V2014-07-11T00:25:00
p116
sS'summary'
p117
g106
sS'title_detail'
p118
g1
(g2
g3
(dp119
g46
Vhttp://feeds2.feedburner.com/technologijos-visos-publikacijos
p120
sg14
g55
sg49
Nsg50
g113
stRp121
sg57
g111
sS'id'
p122
Vhttp://www.technologijos.lt/n/mokslas/istorija_ir_archeologija/S-41443/straipsnis?name=S-41443&l=2&p=1
p123
stRp124
ag1
(g2
g3
(dp125
S'summary_detail'
p126
g1
(g2
g3
(dp127
g46
Vhttp://feeds2.feedburner.com/technologijos-visos-publikacijos
p128
sg14
g48
sg49
Nsg50
VRaketa-ne\u0161\u0117ja "Saturn V" \u2013 kol kas galingiausia \u012f kosmos\u0105 skridusi \u017emoni\u0173 sukurta raketa, kuri \u012f M\u0117nul\u012f nuskraidino pirmuosius \u017emones. Nors visi technologiniai sprendimai pasiteisino ir technika nepaved\u0117, vis d\u0117lto kai kurie \u0161ios mil\u017eini\u0161kos dyd\u017eio raketos testai buvo vykdomi i\u0161ties kuriozi\u0161kai :) Jie u\u017efiksuoti dokumentiniuose kadruose.<img height="1" src="http://feeds.feedburner.com/~r/technologijos-visos-publikacijos/~4/hET40HpPat8" width="1" />
p129
stRp130
sg63
g64
((I2014
I7
I10
I14
I5
I0
I3
I191
I0
t(dtRp131
sg9
(lp132
g1
(g2
g3
(dp133
g12
Vhttp://feedproxy.google.com/~r/technologijos-visos-publikacijos/~3/hET40HpPat8/straipsnis
p134
sg14
g15
sg16
g17
stRp135
asg33
VGalingiausi\u0105 \u017emonijos istorijoje raket\u0105 NASA in\u017einieriai testavo si\u016bbuodami rankomis ir kojomis (Video)
p136
sS'feedburner_origlink'
p137
Vhttp://www.technologijos.lt/n/mokslas/astronomija_ir_kosmonautika/S-41492/straipsnis?name=S-41492&l=2&p=1
p138
sg61
V2014-07-10T14:05:00
p139
sg117
g129
sS'title_detail'
p140
g1
(g2
g3
(dp141
g46
Vhttp://feeds2.feedburner.com/technologijos-visos-publikacijos
p142
sg14
g55
sg49
Nsg50
g136
stRp143
sg57
g134
sg122
Vhttp://www.technologijos.lt/n/mokslas/astronomija_ir_kosmonautika/S-41492/straipsnis?name=S-41492&l=2&p=1
p144
stRp145
ag1
(g2
g3
(dp146
S'summary_detail'
p147
g1
(g2
g3
(dp148
g46
Vhttp://feeds2.feedburner.com/technologijos-visos-publikacijos
p149
sg14
g48
sg49
Nsg50
VNuo mirtino Saul\u0117s v\u0117jo ir \u017eybsni\u0173 \u017dem\u0119 saugantis magnetinis laukas intensyviau silpsta jau pastaruosius 6 m\u0117nesius. Apie tai byloja ESA palydovin\u0117s sistemos \u201eSwarm\u201c duomenys. Vis d\u0117lto labiausiai nerim\u0105 kelia tai, kad magnetosfera dabar silpsta 10 kart\u0173 spar\u010diau nei manyta iki \u0161iol, informuoja \u201eLiveScience.com\u201c.<img height="1" src="http://feeds.feedburner.com/~r/technologijos-visos-publikacijos/~4/s_pvst_HmpQ" width="1" />
p150
stRp151
sg63
g64
((I2014
I7
I10
I13
I45
I0
I3
I191
I0
t(dtRp152
sg9
(lp153
g1
(g2
g3
(dp154
g12
Vhttp://feedproxy.google.com/~r/technologijos-visos-publikacijos/~3/s_pvst_HmpQ/straipsnis
p155
sg14
g15
sg16
g17
stRp156
asg33
V\u017dem\u0117s magnetinis laukas prad\u0117jo silpti 10 kart\u0173 spar\u010diau
p157
sS'feedburner_origlink'
p158
Vhttp://www.technologijos.lt/n/mokslas/astronomija_ir_kosmonautika/S-41491/straipsnis?name=S-41491&l=2&p=1
p159
sg61
V2014-07-10T13:45:00
p160
sg117
g150
sS'title_detail'
p161
g1
(g2
g3
(dp162
g46
Vhttp://feeds2.feedburner.com/technologijos-visos-publikacijos
p163
sg14
g55
sg49
Nsg50
g157
stRp164
sg57
g155
sg122
Vhttp://www.technologijos.lt/n/mokslas/astronomija_ir_kosmonautika/S-41491/straipsnis?name=S-41491&l=2&p=1
p165
stRp166
ag1
(g2
g3
(dp167
S'summary_detail'
p168
g1
(g2
g3
(dp169
g46
Vhttp://feeds2.feedburner.com/technologijos-visos-publikacijos
p170
sg14
g48
sg49
Nsg50
VKol niekas nei\u0161rado sklandlent\u0117s (sklandan\u010dios riedlent\u0117s), vienas Los And\u017eelo i\u0161rad\u0117jas pasi\u016bl\u0117 tarpin\u012f variant\u0105 \u2013 motorizuotus riedu\u010dius "Rocket Skates" ("Raketiniai riedu\u010diai"). \u012edomu tai, kad jais naudotis itin patogu \u2013 jais riedama avint \u012fprasta avalyne. O norint sustoti (pvz., pasiekus laiptus), riedutininkui pakaks pasvirti \u012f priek\u012f.<img height="1" src="http://feeds.feedburner.com/~r/technologijos-visos-publikacijos/~4/j6094N00OmY" width="1" />
p171
stRp172
sg63
g64
((I2014
I7
I10
I13
I25
I0
I3
I191
I0
t(dtRp173
sg9
(lp174
g1
(g2
g3
(dp175
g12
Vhttp://feedproxy.google.com/~r/technologijos-visos-publikacijos/~3/j6094N00OmY/straipsnis
p176
sg14
g15
sg16
g17
stRp177
asg33
VSvajojantiems po miest\u0105 nardyti su v\u0117jeliu \u2013 "Raketiniai riedu\u010diai" (Video)
p178
sS'feedburner_origlink'
p179
Vhttp://www.technologijos.lt/n/technologijos/technologiju_rinka/S-41490/straipsnis?name=S-41490&l=2&p=1
p180
sg61
V2014-07-10T13:25:00
p181
sg117
g171
sS'title_detail'
p182
g1
(g2
g3
(dp183
g46
Vhttp://feeds2.feedburner.com/technologijos-visos-publikacijos
p184
sg14
g55
sg49
Nsg50
g178
stRp185
sg57
g176
sg122
Vhttp://www.technologijos.lt/n/technologijos/technologiju_rinka/S-41490/straipsnis?name=S-41490&l=2&p=1
p186
stRp187
ag1
(g2
g3
(dp188
S'summary_detail'
p189
g1
(g2
g3
(dp190
g46
Vhttp://feeds2.feedburner.com/technologijos-visos-publikacijos
p191
sg14
g48
sg49
Nsg50
VKompanija Google paskutiniu metu aktyviai domisi robotais. Ma\u0161inos gali b\u016bti naudingos, ta\u010diau tam tikros s\u0105mokslo teorijos teigia, jog ateis laikas, ir \u017emonija bus sunaikinta j\u0173 pa\u010di\u0173 sukurto dirbtinio intelekto, valdan\u010dio robotizuotas sistemas. Ta\u010diau pana\u0161u, jog mirtino susid\u016brimo su robotais i\u0161vengs Google \u012fk\u016br\u0117jai Sergey Brin ir Larry Page.<img height="1" src="http://feeds.feedburner.com/~r/technologijos-visos-publikacijos/~4/jWXAx7AYbGM" width="1" />
p192
stRp193
sg63
g64
((I2014
I7
I10
I13
I5
I0
I3
I191
I0
t(dtRp194
sg9
(lp195
g1
(g2
g3
(dp196
g12
Vhttp://feedproxy.google.com/~r/technologijos-visos-publikacijos/~3/jWXAx7AYbGM/straipsnis
p197
sg14
g15
sg16
g17
stRp198
asg33
VAteities robotams \u017eudikams u\u017edrausta skriausti Google \u012fk\u016br\u0117jus
p199
sS'feedburner_origlink'
p200
Vhttp://www.technologijos.lt/n/technologijos/elektronika/S-41484/straipsnis?name=S-41484&l=2&p=1
p201
sg61
V2014-07-10T13:05:00
p202
sg117
g192
sS'title_detail'
p203
g1
(g2
g3
(dp204
g46
Vhttp://feeds2.feedburner.com/technologijos-visos-publikacijos
p205
sg14
g55
sg49
Nsg50
g199
stRp206
sg57
g197
sg122
Vhttp://www.technologijos.lt/n/technologijos/elektronika/S-41484/straipsnis?name=S-41484&l=2&p=1
p207
stRp208
ag1
(g2
g3
(dp209
S'summary_detail'
p210
g1
(g2
g3
(dp211
g46
Vhttp://feeds2.feedburner.com/technologijos-visos-publikacijos
p212
sg14
g48
sg49
Nsg50
VD\u0117mesio visi muzikos myl\u0117tojai! \u201eYouTube\u201c buvo \u012fkelta giganti\u0161ka gyv\u0173 koncert\u0173 \u012fra\u0161\u0173 fonoteka \u2013 joje galima rasti apie 13 t\u016bkstan\u010di\u0173 skirting\u0173 muzikini\u0173 pasirodym\u0173.<img height="1" src="http://feeds.feedburner.com/~r/technologijos-visos-publikacijos/~4/bfIJNB3gPVQ" width="1" />
p213
stRp214
sg63
g64
((I2014
I7
I10
I12
I45
I0
I3
I191
I0
t(dtRp215
sg9
(lp216
g1
(g2
g3
(dp217
g12
Vhttp://feedproxy.google.com/~r/technologijos-visos-publikacijos/~3/bfIJNB3gPVQ/straipsnis
p218
sg14
g15
sg16
g17
stRp219
asg33
V\u201eYouTube\u201c patalpinta mil\u017eini\u0161ka koncertini\u0173 \u012fra\u0161\u0173 kolekcija
p220
sS'feedburner_origlink'
p221
Vhttp://www.technologijos.lt/n/technologijos/it/S-41489/straipsnis?name=S-41489&l=2&p=1
p222
sg61
V2014-07-10T12:45:00
p223
sg117
g213
sS'title_detail'
p224
g1
(g2
g3
(dp225
g46
Vhttp://feeds2.feedburner.com/technologijos-visos-publikacijos
p226
sg14
g55
sg49
Nsg50
g220
stRp227
sg57
g218
sg122
Vhttp://www.technologijos.lt/n/technologijos/it/S-41489/straipsnis?name=S-41489&l=2&p=1
p228
stRp229
ag1
(g2
g3
(dp230
S'summary_detail'
p231
g1
(g2
g3
(dp232
g46
Vhttp://feeds2.feedburner.com/technologijos-visos-publikacijos
p233
sg14
g48
sg49
Nsg50
VD\u0117l amerikie\u010di\u0173 karo meno s\u0105jungininkai i\u0161gelb\u0117jo t\u016bkstan\u010dius gyvybi\u0173. Billas Blassas buvo vienas t\u0173 amerikie\u010di\u0173. Kaip ir Ellsworth\u2019as Kelly. Ir Arhuras Singeris. Ir Artas Kane\u2019as. \u0160ie \u017emon\u0117s, prie\u0161 u\u017esiimdami k\u016brybine veikla, kartu kariavo Antrajame pasauliniame kare.<img height="1" src="http://feeds.feedburner.com/~r/technologijos-visos-publikacijos/~4/DSA3euIAaOQ" width="1" />
p234
stRp235
sg63
g64
((I2014
I7
I10
I12
I25
I0
I3
I191
I0
t(dtRp236
sg9
(lp237
g1
(g2
g3
(dp238
g12
Vhttp://feedproxy.google.com/~r/technologijos-visos-publikacijos/~3/DSA3euIAaOQ/straipsnis
p239
sg14
g15
sg16
g17
stRp240
asg33
V\u0160m\u0117kl\u0173 armija arba \u201eTrojos arkliai\u201c Antrojo pasaulinio karo metais
p241
sS'feedburner_origlink'
p242
Vhttp://www.technologijos.lt/n/mokslas/istorija_ir_archeologija/S-41485/straipsnis?name=S-41485&l=2&p=1
p243
sg61
V2014-07-10T12:25:00
p244
sg117
g234
sS'title_detail'
p245
g1
(g2
g3
(dp246
g46
Vhttp://feeds2.feedburner.com/technologijos-visos-publikacijos
p247
sg14
g55
sg49
Nsg50
g241
stRp248
sg57
g239
sg122
Vhttp://www.technologijos.lt/n/mokslas/istorija_ir_archeologija/S-41485/straipsnis?name=S-41485&l=2&p=1
p249
stRp250
ag1
(g2
g3
(dp251
S'summary_detail'
p252
g1
(g2
g3
(dp253
g46
Vhttp://feeds2.feedburner.com/technologijos-visos-publikacijos
p254
sg14
g48
sg49
Nsg50
VPana\u0161u, kad kompanija AMD i\u0161 tikr\u0173j\u0173 ketina suma\u017einti vaizdo plok\u0161\u010di\u0173 Radeon R9 280X ir Radeon R9 280 kainas, o apie pirmuosius bandymus galima spr\u0119sti jau dabar.<img height="1" src="http://feeds.feedburner.com/~r/technologijos-visos-publikacijos/~4/v6NX77fn3m8" width="1" />
p255
stRp256
sg63
g64
((I2014
I7
I10
I12
I5
I0
I3
I191
I0
t(dtRp257
sg9
(lp258
g1
(g2
g3
(dp259
g12
Vhttp://feedproxy.google.com/~r/technologijos-visos-publikacijos/~3/v6NX77fn3m8/straipsnis
p260
sg14
g15
sg16
g17
stRp261
asg33
VPrad\u0117jo pigti AMD vaizdo plok\u0161t\u0117s
p262
sS'feedburner_origlink'
p263
Vhttp://www.technologijos.lt/n/technologijos/it/S-41483/straipsnis?name=S-41483&l=2&p=1
p264
sg61
V2014-07-10T12:05:00
p265
sg117
g255
sS'title_detail'
p266
g1
(g2
g3
(dp267
g46
Vhttp://feeds2.feedburner.com/technologijos-visos-publikacijos
p268
sg14
g55
sg49
Nsg50
g262
stRp269
sg57
g260
sg122
Vhttp://www.technologijos.lt/n/technologijos/it/S-41483/straipsnis?name=S-41483&l=2&p=1
p270
stRp271
ag1
(g2
g3
(dp272
S'summary_detail'
p273
g1
(g2
g3
(dp274
g46
Vhttp://feeds2.feedburner.com/technologijos-visos-publikacijos
p275
sg14
g48
sg49
Nsg50
VAtrodo, geopolitin\u0117 situacija pasaulyje pastaruoju metu tik blog\u0117ja. Kol vis\u0173 d\u0117mesys buvo nukreiptas \u012f Ukrain\u0105, pavojuje atsid\u016br\u0117 Irakas. Ir, sprend\u017eiant i\u0161 situacijos dinamikos, tai ne \u0161iaip sau gr\u0117sm\u0117, tai (lygiai kaip ir Ukrainos atveju) \u2013 valstyb\u0117s i\u0161likimo klausimas.<img height="1" src="http://feeds.feedburner.com/~r/technologijos-visos-publikacijos/~4/qR06q_hxyns" width="1" />
p276
stRp277
sg63
g64
((I2014
I7
I10
I11
I45
I0
I3
I191
I0
t(dtRp278
sg9
(lp279
g1
(g2
g3
(dp280
g12
Vhttp://feedproxy.google.com/~r/technologijos-visos-publikacijos/~3/qR06q_hxyns/straipsnis
p281
sg14
g15
sg16
g17
stRp282
asg33
VIrako pabaiga?
p283
sS'feedburner_origlink'
p284
Vhttp://www.technologijos.lt/n/zmoniu_pasaulis/redakcijos_akiratis/S-41487/straipsnis?name=S-41487&l=2&p=1
p285
sg61
V2014-07-10T11:45:00
p286
sg117
g276
sS'title_detail'
p287
g1
(g2
g3
(dp288
g46
Vhttp://feeds2.feedburner.com/technologijos-visos-publikacijos
p289
sg14
g55
sg49
Nsg50
g283
stRp290
sg57
g281
sg122
Vhttp://www.technologijos.lt/n/zmoniu_pasaulis/redakcijos_akiratis/S-41487/straipsnis?name=S-41487&l=2&p=1
p291
stRp292
ag1
(g2
g3
(dp293
S'summary_detail'
p294
g1
(g2
g3
(dp295
g46
Vhttp://feeds2.feedburner.com/technologijos-visos-publikacijos
p296
sg14
g48
sg49
Nsg50
VTaif\u016bnui \u201eNeoguri\u201c antradien\u012f pasiekus Japonijos pietines Okinavos salas, du \u017emon\u0117s \u017euvo ir daugiau nei pus\u0117 milijono gyventoj\u0173 buvo priversti palikti namus bei ie\u0161koti prieglobs\u010dio, buvo sustabdytas oro ir j\u016br\u0173 laiv\u0173 eismas, itin smarkiam v\u0117jui ir li\u016b\u010diai niokojant pastatus ir ver\u010diant med\u017eius.<img height="1" src="http://feeds.feedburner.com/~r/technologijos-visos-publikacijos/~4/3vqStiPvK_c" width="1" />
p297
stRp298
sg63
g64
((I2014
I7
I10
I11
I25
I0
I3
I191
I0
t(dtRp299
sg9
(lp300
g1
(g2
g3
(dp301
g12
Vhttp://feedproxy.google.com/~r/technologijos-visos-publikacijos/~3/3vqStiPvK_c/straipsnis
p302
sg14
g15
sg16
g17
stRp303
asg33
VJaponij\u0105 niokojant\u012f galing\u0105 taif\u016bn\u0105 nufotografavo TKS astronautai
p304
sS'feedburner_origlink'
p305
Vhttp://www.technologijos.lt/n/mokslas/gamta_ir_biologija/S-41473/straipsnis?name=S-41473&l=2&p=1
p306
sg61
V2014-07-10T11:25:00
p307
sg117
g297
sS'title_detail'
p308
g1
(g2
g3
(dp309
g46
Vhttp://feeds2.feedburner.com/technologijos-visos-publikacijos
p310
sg14
g55
sg49
Nsg50
g304
stRp311
sg57
g302
sg122
Vhttp://www.technologijos.lt/n/mokslas/gamta_ir_biologija/S-41473/straipsnis?name=S-41473&l=2&p=1
p312
stRp313
ag1
(g2
g3
(dp314
S'summary_detail'
p315
g1
(g2
g3
(dp316
g46
Vhttp://feeds2.feedburner.com/technologijos-visos-publikacijos
p317
sg14
g48
sg49
Nsg50
VNors Samsung i\u0161lieka did\u017eiausiu pasaulyje i\u0161mani\u0173j\u0173 ir paprast\u0173 mobil\u0173 telefon\u0173 gamintoju, kompanija jau ne pirm\u0105 ketvirt\u012f i\u0161 eil\u0117s pa\u017eymi, jog jai pradeda nesisekti biud\u017eetini\u0173 ir vidutin\u0117s kain\u0173 kategorijos segmentuose.<img height="1" src="http://feeds.feedburner.com/~r/technologijos-visos-publikacijos/~4/bXUXJ3B1zvQ" width="1" />
p318
stRp319
sg63
g64
((I2014
I7
I10
I11
I5
I0
I3
I191
I0
t(dtRp320
sg9
(lp321
g1
(g2
g3
(dp322
g12
Vhttp://feedproxy.google.com/~r/technologijos-visos-publikacijos/~3/bXUXJ3B1zvQ/straipsnis
p323
sg14
g15
sg16
g17
stRp324
asg33
VSamsung pradeda nesisekti i\u0161mani\u0173j\u0173 telefon\u0173 rinkoje
p325
sS'feedburner_origlink'
p326
Vhttp://www.technologijos.lt/n/technologijos/gsm/S-41482/straipsnis?name=S-41482&l=2&p=1
p327
sg61
V2014-07-10T11:05:00
p328
sg117
g318
sS'title_detail'
p329
g1
(g2
g3
(dp330
g46
Vhttp://feeds2.feedburner.com/technologijos-visos-publikacijos
p331
sg14
g55
sg49
Nsg50
g325
stRp332
sg57
g323
sg122
Vhttp://www.technologijos.lt/n/technologijos/gsm/S-41482/straipsnis?name=S-41482&l=2&p=1
p333
stRp334
ag1
(g2
g3
(dp335
S'summary_detail'
p336
g1
(g2
g3
(dp337
g46
Vhttp://feeds2.feedburner.com/technologijos-visos-publikacijos
p338
sg14
g48
sg49
Nsg50
VPra\u0117jusio m\u0117nesio pabaigoje JAV korporacija \u201eApple\u201c savo internetin\u0117s parduotuv\u0117s asortiment\u0105 papild\u0117 pigesniu \u201eiMac\u201c AIO kompiuterio modeliu. \u017dinoma, pigesnis rei\u0161kia ir techni\u0161kai silpnesnis. \u0160i \u201eiMac\u201c kompiuterio versija pasi\u017eymi 21,5 colio ekranu, 1,4 GHz taktinio da\u017enio dviej\u0173 branduoli\u0173 centriniu procesoriumi, 8 GB operatyviosios RAM atminties bei kainuoja 1099 JAV doleri\u0173.<img height="1" src="http://feeds.feedburner.com/~r/technologijos-visos-publikacijos/~4/Gx9w7y4wkkw" width="1" />
p339
stRp340
sg63
g64
((I2014
I7
I10
I10
I40
I0
I3
I191
I0
t(dtRp341
sg9
(lp342
g1
(g2
g3
(dp343
g12
Vhttp://feedproxy.google.com/~r/technologijos-visos-publikacijos/~3/Gx9w7y4wkkw/straipsnis
p344
sg14
g15
sg16
g17
stRp345
asg33
VBiud\u017eetiniame \u201eiMac\u201c kompiuteryje nebeliko galimyb\u0117s didinti RAM atmint\u012f
p346
sS'feedburner_origlink'
p347
Vhttp://www.technologijos.lt/n/technologijos/it/S-41468/straipsnis?name=S-41468&l=2&p=1
p348
sg61
V2014-07-10T10:40:00
p349
sg117
g339
sS'title_detail'
p350
g1
(g2
g3
(dp351
g46
Vhttp://feeds2.feedburner.com/technologijos-visos-publikacijos
p352
sg14
g55
sg49
Nsg50
g346
stRp353
sg57
g344
sg122
Vhttp://www.technologijos.lt/n/technologijos/it/S-41468/straipsnis?name=S-41468&l=2&p=1
p354
stRp355
ag1
(g2
g3
(dp356
S'summary_detail'
p357
g1
(g2
g3
(dp358
g46
Vhttp://feeds2.feedburner.com/technologijos-visos-publikacijos
p359
sg14
g48
sg49
Nsg50
VTokie stamb\u016bs sporto renginiai kaip FIFA Pasaulio futbolo \u010dempionatas suvienija \u017emones visame pasaulyje. Piemenys atokiame Kirgizijos kaln\u0173 sl\u0117nyje n\u0117ra \u0161ios taisykl\u0117s i\u0161imtis. Karkyros ganyklose \u0161alimais savo palapini\u0173 jie turi pasistat\u0119 palydovin\u0117s televizijos l\u0117k\u0161t\u0119 bei energijos generatori\u0173 ir stebi rungtynes per savo senus televizorius.<img height="1" src="http://feeds.feedburner.com/~r/technologijos-visos-publikacijos/~4/pAN6F3YacGY" width="1" />
p360
stRp361
sg63
g64
((I2014
I7
I10
I10
I25
I0
I3
I191
I0
t(dtRp362
sg9
(lp363
g1
(g2
g3
(dp364
g12
Vhttp://feedproxy.google.com/~r/technologijos-visos-publikacijos/~3/pAN6F3YacGY/straipsnis
p365
sg14
g15
sg16
g17
stRp366
asg33
VPasaulio futbolo \u010dempionato aistros - ir Kirgizijos piemen\u0173 palapin\u0117se (Video)
p367
sS'feedburner_origlink'
p368
Vhttp://www.technologijos.lt/n/zmoniu_pasaulis/kaip_mes_gyvename/S-41478/straipsnis?name=S-41478&l=2&p=1
p369
sg61
V2014-07-10T10:25:00
p370
sg117
g360
sS'title_detail'
p371
g1
(g2
g3
(dp372
g46
Vhttp://feeds2.feedburner.com/technologijos-visos-publikacijos
p373
sg14
g55
sg49
Nsg50
g367
stRp374
sg57
g365
sg122
Vhttp://www.technologijos.lt/n/zmoniu_pasaulis/kaip_mes_gyvename/S-41478/straipsnis?name=S-41478&l=2&p=1
p375
stRp376
ag1
(g2
g3
(dp377
S'summary_detail'
p378
g1
(g2
g3
(dp379
g46
Vhttp://feeds2.feedburner.com/technologijos-visos-publikacijos
p380
sg14
g48
sg49
Nsg50
V<p>Liepos 1 d. pasigirdo kolektyvinis vis\u0173 pranc\u016bz\u0173 palengv\u0117jimo atod\u016bsis, kai Europos \u017dmogaus teisi\u0173 teismas (E\u017dTT) palaik\u0117 \u0161alies 2010 m. draudim\u0105 vie\u0161ose vietose d\u0117v\u0117ti vis\u0105 veid\u0105 dengian\u010dius galvos apdangalus. Jis paskelbtas po Auk\u0161\u010diausiojo apeliacino teismo atskiro potvarkio bir\u017eel\u012f, nurodan\u010dio, kad privatus dienos prie\u017ei\u016bros centras tur\u0117jo teis\u0119 atleisti darbuotoj\u0105, atsisakiusi\u0105 ned\u0117v\u0117ti savo musulmoni\u0161ko galvos apdangalo darbe. Pranc\u016bzijoje tokie nutarimai nekelia dideli\u0173 kontroversij\u0173. Ta\u010diau jie da\u017enai neteisingai suprantami kra\u0161tuose, kur \u012fsigal\u0117j\u0119s liberalus daugiakult\u016bri\u0161kumas. Kod\u0117l pranc\u016bzai taip grie\u017etai \u017ei\u016bri \u012f islami\u0161kus galvos apdangalus?</p><img height="1" src="http://feeds.feedburner.com/~r/technologijos-visos-publikacijos/~4/qAmHUzBw9c8" width="1" />
p381
stRp382
sg63
g64
((I2014
I7
I10
I10
I10
I0
I3
I191
I0
t(dtRp383
sg9
(lp384
g1
(g2
g3
(dp385
g12
Vhttp://feedproxy.google.com/~r/technologijos-visos-publikacijos/~3/qAmHUzBw9c8/straipsnis
p386
sg14
g15
sg16
g17
stRp387
asg33
VKod\u0117l pranc\u016bzai taip grie\u017etai vertina islami\u0161kus galvos apdangalus
p388
sS'feedburner_origlink'
p389
Vhttp://www.technologijos.lt/n/zmoniu_pasaulis/redakcijos_akiratis/S-41481/straipsnis?name=S-41481&l=2&p=1
p390
sg61
V2014-07-10T10:10:00
p391
sg117
g381
sS'title_detail'
p392
g1
(g2
g3
(dp393
g46
Vhttp://feeds2.feedburner.com/technologijos-visos-publikacijos
p394
sg14
g55
sg49
Nsg50
g388
stRp395
sg57
g386
sg122
Vhttp://www.technologijos.lt/n/zmoniu_pasaulis/redakcijos_akiratis/S-41481/straipsnis?name=S-41481&l=2&p=1
p396
stRp397
ag1
(g2
g3
(dp398
S'summary_detail'
p399
g1
(g2
g3
(dp400
g46
Vhttp://feeds2.feedburner.com/technologijos-visos-publikacijos
p401
sg14
g48
sg49
Nsg50
VLietuvoje nuo kit\u0173 met\u0173 gyventojai tarpusavyje grynaisiais grei\u010diausiai gal\u0117s atsiskaityti iki 15 t\u016bkst. eur\u0173 (51,8 t\u016bkst. lit\u0173), o atsiskaitant su \u012fmone arba komercine veikla u\u017esiiman\u010diu gyventoju - iki 5 t\u016bkst. eur\u0173 (17,3 t\u016bkst. lit\u0173).<img height="1" src="http://feeds.feedburner.com/~r/technologijos-visos-publikacijos/~4/AGI5NxRfgDk" width="1" />
p402
stRp403
sg63
g64
((I2014
I7
I10
I9
I45
I0
I3
I191
I0
t(dtRp404
sg9
(lp405
g1
(g2
g3
(dp406
g12
Vhttp://feedproxy.google.com/~r/technologijos-visos-publikacijos/~3/AGI5NxRfgDk/straipsnis
p407
sg14
g15
sg16
g17
stRp408
asg33
VAntras bandymas Lietuvoje riboti atsiskaitymus grynaisiais
p409
sS'feedburner_origlink'
p410
Vhttp://www.technologijos.lt/n/zmoniu_pasaulis/redakcijos_akiratis/S-41486/straipsnis?name=S-41486&l=2&p=1
p411
sg61
V2014-07-10T09:45:00
p412
sg117
g402
sS'title_detail'
p413
g1
(g2
g3
(dp414
g46
Vhttp://feeds2.feedburner.com/technologijos-visos-publikacijos
p415
sg14
g55
sg49
Nsg50
g409
stRp416
sg57
g407
sg122
Vhttp://www.technologijos.lt/n/zmoniu_pasaulis/redakcijos_akiratis/S-41486/straipsnis?name=S-41486&l=2&p=1
p417
stRp418
asS'namespaces'
p419
(dp420
S''
Vhttp://www.w3.org/2005/Atom
p421
sS'sy'
p422
Vhttp://purl.org/rss/1.0/modules/syndication/
p423
sS'rdf'
p424
Vhttp://www.w3.org/1999/02/22-rdf-syntax-ns#
p425
sS'feedburner'
p426
Vhttp://rssnamespace.org/feedburner/ext/1.0
p427
sS'dc'
p428
Vhttp://purl.org/dc/elements/1.1/
p429
sstRp430
.