ccopy_reg
_reconstructor
p1
(cfeedparser
FeedParserDict
p2
c__builtin__
dict
p3
(dp4
S'feed'
p5
g1
(g2
g3
(dp6
S'updated'
p7
VThu, 10 Jul 2014 22:04:39 +0000
p8
sS'subtitle'
p9
VFACEIT.LT - kar\u0161\u010diausios IT Naujienos, mokslo ir technologij\u0173 pasiekimai, hardware ap\u017evalgos ir testai.
p10
sS'updated_parsed'
p11
ctime
struct_time
p12
((I2014
I7
I10
I22
I4
I39
I3
I191
I0
t(dtRp13
sS'links'
p14
(lp15
g1
(g2
g3
(dp16
S'href'
p17
Vhttp://faceit.lt
p18
sS'type'
p19
Vtext/html
p20
sS'rel'
p21
Valternate
p22
stRp23
ag1
(g2
g3
(dp24
S'href'
p25
Vhttp://feeds.feedburner.com/faceit_lt
p26
sS'type'
p27
Vapplication/rss+xml
p28
sS'rel'
p29
Vself
p30
stRp31
ag1
(g2
g3
(dp32
S'href'
p33
Vhttp://pubsubhubbub.appspot.com/
p34
sg19
g20
sS'rel'
p35
Vhub
p36
stRp37
asS'feedburner_emailserviceid'
p38
Vfaceit_lt
p39
sS'generator_detail'
p40
g1
(g2
g3
(dp41
S'name'
p42
Vhttp://wordpress.org/?v=3.9.1
p43
stRp44
sS'feedburner_info'
p45
(dp46
S'uri'
p47
Vfaceit_lt
p48
ssS'link'
p49
g18
sS'feedburner_feedflare'
p50
(dp51
S'src'
p52
Vhttp://www.dailyrotation.com/rss-dr2.gif
p53
sS'href'
p54
Vhttp://www.dailyrotation.com/index.php?feed=http%3A%2F%2Ffeeds.feedburner.com%2Ffaceit_lt
p55
ssS'feedburner_feedburnerhostname'
p56
Vhttp://feedburner.google.com
p57
sS'language'
p58
Vlt-LT
p59
sS'generator'
p60
g43
sS'title'
p61
VFACEIT.LT | IT naujienos
p62
sS'subtitle_detail'
p63
g1
(g2
g3
(dp64
S'base'
p65
Vhttp://feeds.feedburner.com/faceit_lt
p66
sg19
Vtext/html
p67
sg58
NsS'value'
p68
g10
stRp69
sS'title_detail'
p70
g1
(g2
g3
(dp71
g65
Vhttp://feeds.feedburner.com/faceit_lt
p72
sg19
Vtext/plain
p73
sg58
Nsg68
g62
stRp74
sS'sy_updateperiod'
p75
Vhourly
p76
sS'sy_updatefrequency'
p77
V1
stRp78
sS'status'
p79
I200
sg7
S'Fri, 11 Jul 2014 00:00:56 GMT'
p80
sg11
g12
((I2014
I7
I11
I0
I0
I56
I4
I192
I0
t(dtRp81
sS'encoding'
p82
VUTF-8
p83
sS'bozo'
p84
I0
sS'headers'
p85
(dp86
S'alternate-protocol'
p87
S'80:quic'
p88
sS'x-xss-protection'
p89
S'1; mode=block'
p90
sS'x-content-type-options'
p91
S'nosniff'
p92
sS'content-encoding'
p93
S'gzip'
p94
sS'transfer-encoding'
p95
S'chunked'
p96
sS'expires'
p97
S'Fri, 11 Jul 2014 00:24:23 GMT'
p98
sS'server'
p99
S'GSE'
p100
sS'last-modified'
p101
g80
sS'connection'
p102
S'close'
p103
sS'etag'
p104
S'+hyDWWMLDf5obLM1c2R+k7ff8Fs'
p105
sS'cache-control'
p106
S'private, max-age=0'
p107
sS'date'
p108
S'Fri, 11 Jul 2014 00:24:23 GMT'
p109
sS'content-type'
p110
S'text/xml; charset=UTF-8'
p111
ssS'etag'
p112
V+hyDWWMLDf5obLM1c2R+k7ff8Fs
p113
sg17
Vhttp://feeds.feedburner.com/faceit_lt
p114
sS'version'
p115
Vrss20
p116
sS'entries'
p117
(lp118
g1
(g2
g3
(dp119
S'summary_detail'
p120
g1
(g2
g3
(dp121
g65
Vhttp://feeds.feedburner.com/faceit_lt
p122
sg19
g67
sg58
Nsg68
V<p><img alt="google-glass-brainwave-200" class="attachment-post-thumbnail wp-post-image" height="150" src="http://faceit.lt/wp-content/uploads/2014/07/google-glass-brainwave-200.jpg" width="200" /></p>I\u0161maniesiems akiniams \u201eGoogle Glass\u201c sukurta program\u0117l\u0117 praple\u010dia j\u0173 galimybes. \u201eGoogle Glass\u201c sujungus su encefalografijos \u012frenginiu, programin\u0117 \u012franga leid\u017eia daryti nuotraukas be balso komandos ir neprilie\u010diant \u012frenginio, ra\u0161o BBC. \u0160i\u0105 naujov\u0119 [&hellip;]<div class="feedflare">\u000a<a href="http://feeds.feedburner.com/~ff/faceit_lt?a=hVv_cRJNM58:4ZSxzKaaCvI:yIl2AUoC8zA"><img border="0" src="http://feeds.feedburner.com/~ff/faceit_lt?d=yIl2AUoC8zA" /></a> <a href="http://feeds.feedburner.com/~ff/faceit_lt?a=hVv_cRJNM58:4ZSxzKaaCvI:qj6IDK7rITs"><img border="0" src="http://feeds.feedburner.com/~ff/faceit_lt?d=qj6IDK7rITs" /></a>\u000a</div><img height="1" src="http://feeds.feedburner.com/~r/faceit_lt/~4/hVv_cRJNM58" width="1" />
p123
stRp124
sg14
(lp125
g1
(g2
g3
(dp126
g17
Vhttp://feedproxy.google.com/~r/faceit_lt/~3/hVv_cRJNM58/
p127
sg19
g20
sg21
g22
stRp128
asS'tags'
p129
(lp130
g1
(g2
g3
(dp131
S'term'
p132
VHARDWARE
p133
sS'scheme'
p134
NsS'label'
p135
NstRp136
ag1
(g2
g3
(dp137
g132
VPeriferija
p138
sg134
Nsg135
NstRp139
ag1
(g2
g3
(dp140
g132
VGoogle Glass
p141
sg134
Nsg135
NstRp142
ag1
(g2
g3
(dp143
g132
VMindRDR
p144
sg134
Nsg135
NstRp145
asS'feedburner_origlink'
p146
Vhttp://faceit.lt/2014/07/google-glass-galima-valdyti-ir-mintimis/
p147
sg49
g127
sS'authors'
p148
(lp149
g1
(g2
g3
(dtRp150
asS'id'
p151
Vhttp://faceit.lt/?p=59721
p152
sS'author_detail'
p153
g1
(g2
g3
(dp154
g42
VFACEIT Team
p155
stRp156
sS'wfw_commentrss'
p157
Vhttp://faceit.lt/2014/07/google-glass-galima-valdyti-ir-mintimis/feed/
p158
sS'slash_comments'
p159
V0
sS'published_parsed'
p160
g12
((I2014
I7
I10
I10
I40
I52
I3
I191
I0
t(dtRp161
sg61
VGoogle Glass galima valdyti ir mintimis
p162
sS'author'
p163
g155
sS'comments'
p164
Vhttp://faceit.lt/2014/07/google-glass-galima-valdyti-ir-mintimis/#comments
p165
sS'summary'
p166
g123
sS'guidislink'
p167
I00
sS'title_detail'
p168
g1
(g2
g3
(dp169
g65
Vhttp://feeds.feedburner.com/faceit_lt
p170
sg19
g73
sg58
Nsg68
g162
stRp171
sS'published'
p172
VThu, 10 Jul 2014 10:40:52 +0000
p173
stRp174
ag1
(g2
g3
(dp175
S'summary_detail'
p176
g1
(g2
g3
(dp177
g65
Vhttp://feeds.feedburner.com/faceit_lt
p178
sg19
g67
sg58
Nsg68
V<p><img alt="dragon-age-inquisition-200" class="attachment-post-thumbnail wp-post-image" height="150" src="http://faceit.lt/wp-content/uploads/2013/06/dragon-age-inquisition-200.jpg" width="200" /></p>Liepos m\u0117nuo tradici\u0161kai yra vienas nykiausi\u0173, kalbant apie \u017eaidim\u0173 naujienas, kadangi visi ilsisi po bir\u017eelio m\u0117nesio E3, o kartu ruo\u0161iasi rugpj\u016b\u010dio m\u0117nesio renginiui Games\u0441om. Vis tik save gerbiantys k\u016br\u0117jai \u017eaid\u0117j\u0173 [&hellip;]<div class="feedflare">\u000a<a href="http://feeds.feedburner.com/~ff/faceit_lt?a=AQ4Thh6DfxE:Hp9DFW2d3WA:yIl2AUoC8zA"><img border="0" src="http://feeds.feedburner.com/~ff/faceit_lt?d=yIl2AUoC8zA" /></a> <a href="http://feeds.feedburner.com/~ff/faceit_lt?a=AQ4Thh6DfxE:Hp9DFW2d3WA:qj6IDK7rITs"><img border="0" src="http://feeds.feedburner.com/~ff/faceit_lt?d=qj6IDK7rITs" /></a>\u000a</div><img height="1" src="http://feeds.feedburner.com/~r/faceit_lt/~4/AQ4Thh6DfxE" width="1" />
p179
stRp180
sg14
(lp181
g1
(g2
g3
(dp182
g17
Vhttp://feedproxy.google.com/~r/faceit_lt/~3/AQ4Thh6DfxE/
p183
sg19
g20
sg21
g22
stRp184
asg129
(lp185
g1
(g2
g3
(dp186
g132
V\u017dAIDIMAI / PRAMOGOS
p187
sg134
Nsg135
NstRp188
ag1
(g2
g3
(dp189
g132
VBioWare
p190
sg134
Nsg135
NstRp191
ag1
(g2
g3
(dp192
g132
VDragon Age: Inquisition
p193
sg134
Nsg135
NstRp194
asS'feedburner_origlink'
p195
Vhttp://faceit.lt/2014/07/16-minuciu-trukmes-dragon-age-inquisition-vaizdo-klipas/
p196
sg49
g183
sg148
(lp197
g1
(g2
g3
(dtRp198
asg151
Vhttp://faceit.lt/?p=59720
p199
sS'author_detail'
p200
g1
(g2
g3
(dp201
g42
VFACEIT Team
p202
stRp203
sS'wfw_commentrss'
p204
Vhttp://faceit.lt/2014/07/16-minuciu-trukmes-dragon-age-inquisition-vaizdo-klipas/feed/
p205
sS'slash_comments'
p206
V0
sg160
g12
((I2014
I7
I10
I10
I20
I38
I3
I191
I0
t(dtRp207
sg61
V16 minu\u010di\u0173 trukm\u0117s Dragon Age: Inquisition vaizdo klipas
p208
sg163
g202
sS'comments'
p209
Vhttp://faceit.lt/2014/07/16-minuciu-trukmes-dragon-age-inquisition-vaizdo-klipas/#comments
p210
sg166
g179
sg167
I00
sS'title_detail'
p211
g1
(g2
g3
(dp212
g65
Vhttp://feeds.feedburner.com/faceit_lt
p213
sg19
g73
sg58
Nsg68
g208
stRp214
sg172
VThu, 10 Jul 2014 10:20:38 +0000
p215
stRp216
ag1
(g2
g3
(dp217
S'summary_detail'
p218
g1
(g2
g3
(dp219
g65
Vhttp://feeds.feedburner.com/faceit_lt
p220
sg19
g67
sg58
Nsg68
V<p><img alt="Destiny_200" class="attachment-post-thumbnail wp-post-image" height="150" src="http://faceit.lt/wp-content/uploads/2014/07/Destiny_200.jpg" width="200" /></p>Kompiuteriniai \u017eaidimai tampa ne k\u0105 ma\u017eiau brang\u016bs nei Holivudo filmai. Tiksliau, kai kuri\u0173 \u017eaidim\u0173 k\u016brimas kainuoja daugiau nei \u017ei\u016brimiausi\u0173 film\u0173. Tik, skirtingai nei film\u0173, kompiuterini\u0173 \u017eaidim\u0173 k\u016brimo kaina laikoma paslaptyje [&hellip;]<div class="feedflare">\u000a<a href="http://feeds.feedburner.com/~ff/faceit_lt?a=PnVgW1cVhuQ:7Gg4kvypcYI:yIl2AUoC8zA"><img border="0" src="http://feeds.feedburner.com/~ff/faceit_lt?d=yIl2AUoC8zA" /></a> <a href="http://feeds.feedburner.com/~ff/faceit_lt?a=PnVgW1cVhuQ:7Gg4kvypcYI:qj6IDK7rITs"><img border="0" src="http://feeds.feedburner.com/~ff/faceit_lt?d=qj6IDK7rITs" /></a>\u000a</div><img height="1" src="http://feeds.feedburner.com/~r/faceit_lt/~4/PnVgW1cVhuQ" width="1" />
p221
stRp222
sg14
(lp223
g1
(g2
g3
(dp224
g17
Vhttp://feedproxy.google.com/~r/faceit_lt/~3/PnVgW1cVhuQ/
p225
sg19
g20
sg21
g22
stRp226
asg129
(lp227
g1
(g2
g3
(dp228
g132
V\u017dAIDIMAI / PRAMOGOS
p229
sg134
Nsg135
NstRp230
ag1
(g2
g3
(dp231
g132
VCall of Duty: Modern Warfare 2
p232
sg134
Nsg135
NstRp233
ag1
(g2
g3
(dp234
g132
VDestiny
p235
sg134
Nsg135
NstRp236
ag1
(g2
g3
(dp237
g132
VFinal Fantasy VII
p238
sg134
Nsg135
NstRp239
ag1
(g2
g3
(dp240
g132
VGrand Theft Auto IV
p241
sg134
Nsg135
NstRp242
ag1
(g2
g3
(dp243
g132
VGrand Theft Auto V
p244
sg134
Nsg135
NstRp245
ag1
(g2
g3
(dp246
g132
VInfinity
p247
sg134
Nsg135
NstRp248
ag1
(g2
g3
(dp249
g132
Vmax payne 3
p250
sg134
Nsg135
NstRp251
ag1
(g2
g3
(dp252
g132
VRed Ded Redemption
p253
sg134
Nsg135
NstRp254
ag1
(g2
g3
(dp255
g132
VStar Wars The Old Republic
p256
sg134
Nsg135
NstRp257
ag1
(g2
g3
(dp258
g132
VTomb Raider
p259
sg134
Nsg135
NstRp260
asS'feedburner_origlink'
p261
Vhttp://faceit.lt/2014/07/10-brangiausiu-visu-laiku-kompiuteriniu-zaidimu/
p262
sg49
g225
sg148
(lp263
g1
(g2
g3
(dtRp264
asg151
Vhttp://faceit.lt/?p=59709
p265
sS'author_detail'
p266
g1
(g2
g3
(dp267
g42
VFACEIT Team
p268
stRp269
sS'wfw_commentrss'
p270
Vhttp://faceit.lt/2014/07/10-brangiausiu-visu-laiku-kompiuteriniu-zaidimu/feed/
p271
sS'slash_comments'
p272
V1
sg160
g12
((I2014
I7
I10
I10
I0
I58
I3
I191
I0
t(dtRp273
sg61
V10 brangiausi\u0173 vis\u0173 laik\u0173 kompiuterini\u0173 \u017eaidim\u0173
p274
sg163
g268
sS'comments'
p275
Vhttp://faceit.lt/2014/07/10-brangiausiu-visu-laiku-kompiuteriniu-zaidimu/#comments
p276
sg166
g221
sg167
I00
sS'title_detail'
p277
g1
(g2
g3
(dp278
g65
Vhttp://feeds.feedburner.com/faceit_lt
p279
sg19
g73
sg58
Nsg68
g274
stRp280
sg172
VThu, 10 Jul 2014 10:00:58 +0000
p281
stRp282
ag1
(g2
g3
(dp283
S'summary_detail'
p284
g1
(g2
g3
(dp285
g65
Vhttp://feeds.feedburner.com/faceit_lt
p286
sg19
g67
sg58
Nsg68
V<p><img alt="win7-200" class="attachment-post-thumbnail wp-post-image" height="150" src="http://faceit.lt/wp-content/uploads/2013/10/win7-200.jpg" width="200" /></p>Nesusp\u0117jo vartotojai atsigauti po naujienos apie Windows XP palaikymo nutraukim\u0105, o kompanija Microsoft jau prane\u0161\u0117 apie analogi\u0161kus veiksmus kit\u0173 produkt\u0173 at\u017evilgiu. Remiantis oficialiu prane\u0161imu, kuris publikuotas kompanijos puslapyje, jau 2015 [&hellip;]<div class="feedflare">\u000a<a href="http://feeds.feedburner.com/~ff/faceit_lt?a=SFT2DW9mYAc:6z-O0qthnTA:yIl2AUoC8zA"><img border="0" src="http://feeds.feedburner.com/~ff/faceit_lt?d=yIl2AUoC8zA" /></a> <a href="http://feeds.feedburner.com/~ff/faceit_lt?a=SFT2DW9mYAc:6z-O0qthnTA:qj6IDK7rITs"><img border="0" src="http://feeds.feedburner.com/~ff/faceit_lt?d=qj6IDK7rITs" /></a>\u000a</div><img height="1" src="http://feeds.feedburner.com/~r/faceit_lt/~4/SFT2DW9mYAc" width="1" />
p287
stRp288
sg14
(lp289
g1
(g2
g3
(dp290
g17
Vhttp://feedproxy.google.com/~r/faceit_lt/~3/SFT2DW9mYAc/
p291
sg19
g20
sg21
g22
stRp292
asg129
(lp293
g1
(g2
g3
(dp294
g132
VSOFTWARE
p295
sg134
Nsg135
NstRp296
ag1
(g2
g3
(dp297
g132
Vwindows 7
p298
sg134
Nsg135
NstRp299
asS'feedburner_origlink'
p300
Vhttp://faceit.lt/2014/07/windows-7-bazinis-palaikymas-pasibaigs-2015-m-sausio-menesi/
p301
sg49
g291
sg148
(lp302
g1
(g2
g3
(dtRp303
asg151
Vhttp://faceit.lt/?p=59705
p304
sS'author_detail'
p305
g1
(g2
g3
(dp306
g42
VFACEIT Team
p307
stRp308
sS'wfw_commentrss'
p309
Vhttp://faceit.lt/2014/07/windows-7-bazinis-palaikymas-pasibaigs-2015-m-sausio-menesi/feed/
p310
sS'slash_comments'
p311
V6
sg160
g12
((I2014
I7
I10
I9
I40
I57
I3
I191
I0
t(dtRp312
sg61
VWindows 7 bazinis palaikymas pasibaigs 2015 m. sausio m\u0117nes\u012f
p313
sg163
g307
sS'comments'
p314
Vhttp://faceit.lt/2014/07/windows-7-bazinis-palaikymas-pasibaigs-2015-m-sausio-menesi/#comments
p315
sg166
g287
sg167
I00
sS'title_detail'
p316
g1
(g2
g3
(dp317
g65
Vhttp://feeds.feedburner.com/faceit_lt
p318
sg19
g73
sg58
Nsg68
g313
stRp319
sg172
VThu, 10 Jul 2014 09:40:57 +0000
p320
stRp321
ag1
(g2
g3
(dp322
S'summary_detail'
p323
g1
(g2
g3
(dp324
g65
Vhttp://feeds.feedburner.com/faceit_lt
p325
sg19
g67
sg58
Nsg68
V<p><img alt="piracy-200" class="attachment-post-thumbnail wp-post-image" height="150" src="http://faceit.lt/wp-content/uploads/2013/12/piracy-200.jpg" width="200" /></p>Bir\u017eelio prad\u017eioje \u201etorrent\u201c byl\u0173 dalijimosi tinklalapis \u201eLinkomanija\u201c pasira\u0161\u0117 taikos susitarim\u0105 su JAV programin\u0117s \u012frangos k\u016br\u0117ja \u201eMicrosoft\u201c, ta\u010diau susitarimo s\u0105lyg\u0173 vie\u0161ai neskelb\u0117. \u201eMicrosoft\u201c piratiniu vadinam\u0105 tinklalap\u012f administruojan\u010diai bendrovei \u201en5\u201c bei jos [&hellip;]<div class="feedflare">\u000a<a href="http://feeds.feedburner.com/~ff/faceit_lt?a=Rx7_lbshWwo:mLPu_wXN-7Q:yIl2AUoC8zA"><img border="0" src="http://feeds.feedburner.com/~ff/faceit_lt?d=yIl2AUoC8zA" /></a> <a href="http://feeds.feedburner.com/~ff/faceit_lt?a=Rx7_lbshWwo:mLPu_wXN-7Q:qj6IDK7rITs"><img border="0" src="http://feeds.feedburner.com/~ff/faceit_lt?d=qj6IDK7rITs" /></a>\u000a</div><img height="1" src="http://feeds.feedburner.com/~r/faceit_lt/~4/Rx7_lbshWwo" width="1" />
p326
stRp327
sg14
(lp328
g1
(g2
g3
(dp329
g17
Vhttp://feedproxy.google.com/~r/faceit_lt/~3/Rx7_lbshWwo/
p330
sg19
g20
sg21
g22
stRp331
asg129
(lp332
g1
(g2
g3
(dp333
g132
VSOFTWARE
p334
sg134
Nsg135
NstRp335
ag1
(g2
g3
(dp336
g132
Vlinkomanija
p337
sg134
Nsg135
NstRp338
ag1
(g2
g3
(dp339
g132
Vmicrosoft
p340
sg134
Nsg135
NstRp341
ag1
(g2
g3
(dp342
g132
Vpiratavimas
p343
sg134
Nsg135
NstRp344
ag1
(g2
g3
(dp345
g132
Vtorrent
p346
sg134
Nsg135
NstRp347
asS'feedburner_origlink'
p348
Vhttp://faceit.lt/2014/07/linkomanija-susitare-su-microsoft/
p349
sg49
g330
sg148
(lp350
g1
(g2
g3
(dtRp351
asg151
Vhttp://faceit.lt/?p=59707
p352
sS'author_detail'
p353
g1
(g2
g3
(dp354
g42
VFACEIT Team
p355
stRp356
sS'wfw_commentrss'
p357
Vhttp://faceit.lt/2014/07/linkomanija-susitare-su-microsoft/feed/
p358
sS'slash_comments'
p359
V0
sg160
g12
((I2014
I7
I10
I9
I20
I28
I3
I191
I0
t(dtRp360
sg61
VLinkomanija susitar\u0117 su Microsoft: svetain\u0117je neliko Windows ir Office
p361
sg163
g355
sS'comments'
p362
Vhttp://faceit.lt/2014/07/linkomanija-susitare-su-microsoft/#comments
p363
sg166
g326
sg167
I00
sS'title_detail'
p364
g1
(g2
g3
(dp365
g65
Vhttp://feeds.feedburner.com/faceit_lt
p366
sg19
g73
sg58
Nsg68
g361
stRp367
sg172
VThu, 10 Jul 2014 09:20:28 +0000
p368
stRp369
ag1
(g2
g3
(dp370
S'summary_detail'
p371
g1
(g2
g3
(dp372
g65
Vhttp://feeds.feedburner.com/faceit_lt
p373
sg19
g67
sg58
Nsg68
V<p><img alt="steve-jobs_2007-iphone-200" class="attachment-post-thumbnail wp-post-image" height="150" src="http://faceit.lt/wp-content/uploads/2013/12/steve-jobs_2007-iphone-200.jpg" width="200" /></p>Suomijos ministro pirmininko Aleksandro Stubo (Alexander Stubb) apkaltino vien\u0105 i\u0161 Apple \u012fk\u016br\u0117j\u0173 Steve Jobs, kad \u0161is sunaikino \u0161ios \u0160. Europos \u0161alies darbo rink\u0105 bei sugriov\u0117 ekonomik\u0105, pardavin\u0117damas inovacijas, kurioms suomi\u0173 [&hellip;]<div class="feedflare">\u000a<a href="http://feeds.feedburner.com/~ff/faceit_lt?a=_3KCp_n1CMc:_sCV1BZhkZ8:yIl2AUoC8zA"><img border="0" src="http://feeds.feedburner.com/~ff/faceit_lt?d=yIl2AUoC8zA" /></a> <a href="http://feeds.feedburner.com/~ff/faceit_lt?a=_3KCp_n1CMc:_sCV1BZhkZ8:qj6IDK7rITs"><img border="0" src="http://feeds.feedburner.com/~ff/faceit_lt?d=qj6IDK7rITs" /></a>\u000a</div><img height="1" src="http://feeds.feedburner.com/~r/faceit_lt/~4/_3KCp_n1CMc" width="1" />
p374
stRp375
sg14
(lp376
g1
(g2
g3
(dp377
g17
Vhttp://feedproxy.google.com/~r/faceit_lt/~3/_3KCp_n1CMc/
p378
sg19
g20
sg21
g22
stRp379
asg129
(lp380
g1
(g2
g3
(dp381
g132
VIT VERSLAS
p382
sg134
Nsg135
NstRp383
ag1
(g2
g3
(dp384
g132
Vsteve jobs
p385
sg134
Nsg135
NstRp386
asS'feedburner_origlink'
p387
Vhttp://faceit.lt/2014/07/suomijos-premjeras-apkaltino-steve-jobs-sugriovus-salies-ekonomika/
p388
sg49
g378
sg148
(lp389
g1
(g2
g3
(dtRp390
asg151
Vhttp://faceit.lt/?p=59704
p391
sS'author_detail'
p392
g1
(g2
g3
(dp393
g42
VFACEIT Team
p394
stRp395
sS'wfw_commentrss'
p396
Vhttp://faceit.lt/2014/07/suomijos-premjeras-apkaltino-steve-jobs-sugriovus-salies-ekonomika/feed/
p397
sS'slash_comments'
p398
V5
sg160
g12
((I2014
I7
I10
I9
I0
I53
I3
I191
I0
t(dtRp399
sg61
VSuomijos premjeras apkaltino Steve Jobs sugriovus \u0161alies ekonomik\u0105
p400
sg163
g394
sS'comments'
p401
Vhttp://faceit.lt/2014/07/suomijos-premjeras-apkaltino-steve-jobs-sugriovus-salies-ekonomika/#comments
p402
sg166
g374
sg167
I00
sS'title_detail'
p403
g1
(g2
g3
(dp404
g65
Vhttp://feeds.feedburner.com/faceit_lt
p405
sg19
g73
sg58
Nsg68
g400
stRp406
sg172
VThu, 10 Jul 2014 09:00:53 +0000
p407
stRp408
ag1
(g2
g3
(dp409
S'summary_detail'
p410
g1
(g2
g3
(dp411
g65
Vhttp://feeds.feedburner.com/faceit_lt
p412
sg19
g67
sg58
Nsg68
V<p><img alt="jonney-shih-asus-200" class="attachment-post-thumbnail wp-post-image" height="150" src="http://faceit.lt/wp-content/uploads/2013/07/jonney-shih-asus-200.jpg" width="200" /></p>Taivanie\u010di\u0173 kompanijos ASUS pajamos \u0161i\u0173 met\u0173 bir\u017eelio m\u0117nes\u012f sudar\u0117 apie $1.13 mlrd., o tai yra \u0161iek tiek daugiau, nei per t\u0105 pat\u012f laikotarp\u012f prie\u0161 metus, prane\u0161a puslapis DigiTimes. Leidinio teigimu, [&hellip;]<div class="feedflare">\u000a<a href="http://feeds.feedburner.com/~ff/faceit_lt?a=DA12XUd9SH0:2czyz_k6QlM:yIl2AUoC8zA"><img border="0" src="http://feeds.feedburner.com/~ff/faceit_lt?d=yIl2AUoC8zA" /></a> <a href="http://feeds.feedburner.com/~ff/faceit_lt?a=DA12XUd9SH0:2czyz_k6QlM:qj6IDK7rITs"><img border="0" src="http://feeds.feedburner.com/~ff/faceit_lt?d=qj6IDK7rITs" /></a>\u000a</div><img height="1" src="http://feeds.feedburner.com/~r/faceit_lt/~4/DA12XUd9SH0" width="1" />
p413
stRp414
sg14
(lp415
g1
(g2
g3
(dp416
g17
Vhttp://feedproxy.google.com/~r/faceit_lt/~3/DA12XUd9SH0/
p417
sg19
g20
sg21
g22
stRp418
asg129
(lp419
g1
(g2
g3
(dp420
g132
VIT VERSLAS
p421
sg134
Nsg135
NstRp422
ag1
(g2
g3
(dp423
g132
Vasus
p424
sg134
Nsg135
NstRp425
asS'feedburner_origlink'
p426
Vhttp://faceit.lt/2014/07/asus-uzlipo-ant-ismaniuju-telefonu-ir-planseciu-greblio/
p427
sg49
g417
sg148
(lp428
g1
(g2
g3
(dtRp429
asg151
Vhttp://faceit.lt/?p=59702
p430
sS'author_detail'
p431
g1
(g2
g3
(dp432
g42
VFACEIT Team
p433
stRp434
sS'wfw_commentrss'
p435
Vhttp://faceit.lt/2014/07/asus-uzlipo-ant-ismaniuju-telefonu-ir-planseciu-greblio/feed/
p436
sS'slash_comments'
p437
V0
sg160
g12
((I2014
I7
I10
I8
I40
I26
I3
I191
I0
t(dtRp438
sg61
VASUS u\u017elipo ant i\u0161mani\u0173j\u0173 telefon\u0173 ir plan\u0161e\u010di\u0173 gr\u0117blio
p439
sg163
g433
sS'comments'
p440
Vhttp://faceit.lt/2014/07/asus-uzlipo-ant-ismaniuju-telefonu-ir-planseciu-greblio/#comments
p441
sg166
g413
sg167
I00
sS'title_detail'
p442
g1
(g2
g3
(dp443
g65
Vhttp://feeds.feedburner.com/faceit_lt
p444
sg19
g73
sg58
Nsg68
g439
stRp445
sg172
VThu, 10 Jul 2014 08:40:26 +0000
p446
stRp447
ag1
(g2
g3
(dp448
S'summary_detail'
p449
g1
(g2
g3
(dp450
g65
Vhttp://feeds.feedburner.com/faceit_lt
p451
sg19
g67
sg58
Nsg68
V<p><img alt="tablet-youtube-200" class="attachment-post-thumbnail wp-post-image" height="150" src="http://faceit.lt/wp-content/uploads/2013/08/tablet-youtube-200.jpg" width="200" /></p>Populiariausia pasaulyje vaizdin\u0117s med\u017eiagos tarnyba Youtube, kaip \u017einia, priklauso Google. Vis tik nepaisant \u0161ios tarnybos dominavimo atitinkamame rinkos segmente, jis atne\u0161a ne tiek jau daug pajam\u0173, kaip nor\u0117t\u0173si matyti kai [&hellip;]<div class="feedflare">\u000a<a href="http://feeds.feedburner.com/~ff/faceit_lt?a=H2mv9RlZd0I:URUurDUOUos:yIl2AUoC8zA"><img border="0" src="http://feeds.feedburner.com/~ff/faceit_lt?d=yIl2AUoC8zA" /></a> <a href="http://feeds.feedburner.com/~ff/faceit_lt?a=H2mv9RlZd0I:URUurDUOUos:qj6IDK7rITs"><img border="0" src="http://feeds.feedburner.com/~ff/faceit_lt?d=qj6IDK7rITs" /></a>\u000a</div><img height="1" src="http://feeds.feedburner.com/~r/faceit_lt/~4/H2mv9RlZd0I" width="1" />
p452
stRp453
sg14
(lp454
g1
(g2
g3
(dp455
g17
Vhttp://feedproxy.google.com/~r/faceit_lt/~3/H2mv9RlZd0I/
p456
sg19
g20
sg21
g22
stRp457
asg129
(lp458
g1
(g2
g3
(dp459
g132
VIT VERSLAS
p460
sg134
Nsg135
NstRp461
ag1
(g2
g3
(dp462
g132
Vyoutube
p463
sg134
Nsg135
NstRp464
asS'feedburner_origlink'
p465
Vhttp://faceit.lt/2014/07/youtube-uzdirba-7-visu-google-pajamu/
p466
sg49
g456
sg148
(lp467
g1
(g2
g3
(dtRp468
asg151
Vhttp://faceit.lt/?p=59701
p469
sS'author_detail'
p470
g1
(g2
g3
(dp471
g42
VFACEIT Team
p472
stRp473
sS'wfw_commentrss'
p474
Vhttp://faceit.lt/2014/07/youtube-uzdirba-7-visu-google-pajamu/feed/
p475
sS'slash_comments'
p476
V0
sg160
g12
((I2014
I7
I10
I8
I20
I17
I3
I191
I0
t(dtRp477
sg61
VYoutube u\u017edirba 7% vis\u0173 Google pajam\u0173
p478
sg163
g472
sS'comments'
p479
Vhttp://faceit.lt/2014/07/youtube-uzdirba-7-visu-google-pajamu/#comments
p480
sg166
g452
sg167
I00
sS'title_detail'
p481
g1
(g2
g3
(dp482
g65
Vhttp://feeds.feedburner.com/faceit_lt
p483
sg19
g73
sg58
Nsg68
g478
stRp484
sg172
VThu, 10 Jul 2014 08:20:17 +0000
p485
stRp486
ag1
(g2
g3
(dp487
S'summary_detail'
p488
g1
(g2
g3
(dp489
g65
Vhttp://feeds.feedburner.com/faceit_lt
p490
sg19
g67
sg58
Nsg68
V<p><img alt="delete-200" class="attachment-post-thumbnail wp-post-image" height="150" src="http://faceit.lt/wp-content/uploads/2014/07/delete-200.jpg" width="200" /></p>Nema\u017eai i\u0161mani\u0173j\u0173 telefon\u0173 savinink\u0173 anks\u010diau ar v\u0117liau ry\u017etasi padovanoti arba parduoti sen\u0105 \u012frengin\u012f ir \u012fsigyti nauj\u0105. Nat\u016bralu, kad prie\u0161 tai \u017emon\u0117s i\u0161trina asmenin\u0119 informacij\u0105, vaizdo klipus, fotografijas, slapta\u017eod\u017eius. Ta\u010diau neseniai [&hellip;]<div class="feedflare">\u000a<a href="http://feeds.feedburner.com/~ff/faceit_lt?a=MSQkq3oxE1U:7Kf0HFeXYsw:yIl2AUoC8zA"><img border="0" src="http://feeds.feedburner.com/~ff/faceit_lt?d=yIl2AUoC8zA" /></a> <a href="http://feeds.feedburner.com/~ff/faceit_lt?a=MSQkq3oxE1U:7Kf0HFeXYsw:qj6IDK7rITs"><img border="0" src="http://feeds.feedburner.com/~ff/faceit_lt?d=qj6IDK7rITs" /></a>\u000a</div><img height="1" src="http://feeds.feedburner.com/~r/faceit_lt/~4/MSQkq3oxE1U" width="1" />
p491
stRp492
sg14
(lp493
g1
(g2
g3
(dp494
g17
Vhttp://feedproxy.google.com/~r/faceit_lt/~3/MSQkq3oxE1U/
p495
sg19
g20
sg21
g22
stRp496
asg129
(lp497
g1
(g2
g3
(dp498
g132
VSOFTWARE
p499
sg134
Nsg135
NstRp500
ag1
(g2
g3
(dp501
g132
Vandroid
p502
sg134
Nsg135
NstRp503
asS'feedburner_origlink'
p504
Vhttp://faceit.lt/2014/07/android-telefone-istrintus-duomenis-gana-lengva-atstatyti/
p505
sg49
g495
sg148
(lp506
g1
(g2
g3
(dtRp507
asg151
Vhttp://faceit.lt/?p=59698
p508
sS'author_detail'
p509
g1
(g2
g3
(dp510
g42
VFACEIT Team
p511
stRp512
sS'wfw_commentrss'
p513
Vhttp://faceit.lt/2014/07/android-telefone-istrintus-duomenis-gana-lengva-atstatyti/feed/
p514
sS'slash_comments'
p515
V0
sg160
g12
((I2014
I7
I10
I8
I0
I29
I3
I191
I0
t(dtRp516
sg61
VAndroid telefone i\u0161trintus duomenis gana lengva atstatyti
p517
sg163
g511
sS'comments'
p518
Vhttp://faceit.lt/2014/07/android-telefone-istrintus-duomenis-gana-lengva-atstatyti/#comments
p519
sg166
g491
sg167
I00
sS'title_detail'
p520
g1
(g2
g3
(dp521
g65
Vhttp://feeds.feedburner.com/faceit_lt
p522
sg19
g73
sg58
Nsg68
g517
stRp523
sg172
VThu, 10 Jul 2014 08:00:29 +0000
p524
stRp525
ag1
(g2
g3
(dp526
S'summary_detail'
p527
g1
(g2
g3
(dp528
g65
Vhttp://feeds.feedburner.com/faceit_lt
p529
sg19
g67
sg58
Nsg68
V<p><img alt="google-maps-200" class="attachment-post-thumbnail wp-post-image" height="150" src="http://faceit.lt/wp-content/uploads/2014/07/google-maps-200.jpg" width="200" /></p>Klaidos \u017eem\u0117lapi\u0173 tarnybose brangiai kainuoja ne tik j\u0173 k\u016br\u0117jams (Apple tikrai neduos sumeluoti), ta\u010diau ir klientams. Eiliniu patvirtinimu tapo Vird\u017einijos valstijoje (JAV) \u012fsik\u016brusio restorano \u201eSerbian Crown\u201c istorija. Restorano savininkas Rene [&hellip;]<div class="feedflare">\u000a<a href="http://feeds.feedburner.com/~ff/faceit_lt?a=ze6UQNBmaQo:GvL1QBwFz-A:yIl2AUoC8zA"><img border="0" src="http://feeds.feedburner.com/~ff/faceit_lt?d=yIl2AUoC8zA" /></a> <a href="http://feeds.feedburner.com/~ff/faceit_lt?a=ze6UQNBmaQo:GvL1QBwFz-A:qj6IDK7rITs"><img border="0" src="http://feeds.feedburner.com/~ff/faceit_lt?d=qj6IDK7rITs" /></a>\u000a</div><img height="1" src="http://feeds.feedburner.com/~r/faceit_lt/~4/ze6UQNBmaQo" width="1" />
p530
stRp531
sg14
(lp532
g1
(g2
g3
(dp533
g17
Vhttp://feedproxy.google.com/~r/faceit_lt/~3/ze6UQNBmaQo/
p534
sg19
g20
sg21
g22
stRp535
asg129
(lp536
g1
(g2
g3
(dp537
g132
VIT VERSLAS
p538
sg134
Nsg135
NstRp539
ag1
(g2
g3
(dp540
g132
Vgoogle
p541
sg134
Nsg135
NstRp542
ag1
(g2
g3
(dp543
g132
Vgoogle maps
p544
sg134
Nsg135
NstRp545
ag1
(g2
g3
(dp546
g132
Vteismai
p547
sg134
Nsg135
NstRp548
asS'feedburner_origlink'
p549
Vhttp://faceit.lt/2014/07/google-paduota-i-teisma-del-restorano-bankroto/
p550
sg49
g534
sg148
(lp551
g1
(g2
g3
(dtRp552
asg151
Vhttp://faceit.lt/?p=59695
p553
sS'author_detail'
p554
g1
(g2
g3
(dp555
g42
VFACEIT Team
p556
stRp557
sS'wfw_commentrss'
p558
Vhttp://faceit.lt/2014/07/google-paduota-i-teisma-del-restorano-bankroto/feed/
p559
sS'slash_comments'
p560
V0
sg160
g12
((I2014
I7
I10
I7
I40
I47
I3
I191
I0
t(dtRp561
sg61
VGoogle paduota \u012f teism\u0105 d\u0117l restorano bankroto
p562
sg163
g556
sS'comments'
p563
Vhttp://faceit.lt/2014/07/google-paduota-i-teisma-del-restorano-bankroto/#comments
p564
sg166
g530
sg167
I00
sS'title_detail'
p565
g1
(g2
g3
(dp566
g65
Vhttp://feeds.feedburner.com/faceit_lt
p567
sg19
g73
sg58
Nsg68
g562
stRp568
sg172
VThu, 10 Jul 2014 07:40:47 +0000
p569
stRp570
ag1
(g2
g3
(dp571
S'summary_detail'
p572
g1
(g2
g3
(dp573
g65
Vhttp://feeds.feedburner.com/faceit_lt
p574
sg19
g67
sg58
Nsg68
V<p><img alt="iphone6-sapphire-panel-200" class="attachment-post-thumbnail wp-post-image" height="150" src="http://faceit.lt/wp-content/uploads/2014/07/iphone6-sapphire-panel-200.jpg" width="200" /></p>Tinklara\u0161tininkas Marques Brownlee publikavo vaizdo klip\u0105, kuriame, kaip teigiama, matyti iPhone 6 ekranas su safyro dang\u0105. Tvirtinama, kad naujojo Apple i\u0161maniojo telefono apsauginis stiklas atvyko i\u0161 vienos Azijoje \u012fsik\u016brusi\u0173 gamykl\u0173. [&hellip;]<div class="feedflare">\u000a<a href="http://feeds.feedburner.com/~ff/faceit_lt?a=Cy5kDh92svA:2mzv4PonTq4:yIl2AUoC8zA"><img border="0" src="http://feeds.feedburner.com/~ff/faceit_lt?d=yIl2AUoC8zA" /></a> <a href="http://feeds.feedburner.com/~ff/faceit_lt?a=Cy5kDh92svA:2mzv4PonTq4:qj6IDK7rITs"><img border="0" src="http://feeds.feedburner.com/~ff/faceit_lt?d=qj6IDK7rITs" /></a>\u000a</div><img height="1" src="http://feeds.feedburner.com/~r/faceit_lt/~4/Cy5kDh92svA" width="1" />
p575
stRp576
sg14
(lp577
g1
(g2
g3
(dp578
g17
Vhttp://feedproxy.google.com/~r/faceit_lt/~3/Cy5kDh92svA/
p579
sg19
g20
sg21
g22
stRp580
asg129
(lp581
g1
(g2
g3
(dp582
g132
VHARDWARE
p583
sg134
Nsg135
NstRp584
ag1
(g2
g3
(dp585
g132
VTelefonai
p586
sg134
Nsg135
NstRp587
ag1
(g2
g3
(dp588
g132
ViPhone 6
p589
sg134
Nsg135
NstRp590
asS'feedburner_origlink'
p591
Vhttp://faceit.lt/2014/07/iphone-6-safyrine-ekrano-danga-nesulauzysi-nesubraizysi/
p592
sg49
g579
sg148
(lp593
g1
(g2
g3
(dtRp594
asg151
Vhttp://faceit.lt/?p=59693
p595
sS'author_detail'
p596
g1
(g2
g3
(dp597
g42
VFACEIT Team
p598
stRp599
sS'wfw_commentrss'
p600
Vhttp://faceit.lt/2014/07/iphone-6-safyrine-ekrano-danga-nesulauzysi-nesubraizysi/feed/
p601
sS'slash_comments'
p602
V0
sg160
g12
((I2014
I7
I10
I7
I20
I36
I3
I191
I0
t(dtRp603
sg61
ViPhone 6 safyrin\u0117 ekrano danga \u2013 nesulau\u017eysi, nesubrai\u017eysi
p604
sg163
g598
sS'comments'
p605
Vhttp://faceit.lt/2014/07/iphone-6-safyrine-ekrano-danga-nesulauzysi-nesubraizysi/#comments
p606
sg166
g575
sg167
I00
sS'title_detail'
p607
g1
(g2
g3
(dp608
g65
Vhttp://feeds.feedburner.com/faceit_lt
p609
sg19
g73
sg58
Nsg68
g604
stRp610
sg172
VThu, 10 Jul 2014 07:20:36 +0000
p611
stRp612
ag1
(g2
g3
(dp613
S'summary_detail'
p614
g1
(g2
g3
(dp615
g65
Vhttp://feeds.feedburner.com/faceit_lt
p616
sg19
g67
sg58
Nsg68
V<p><img alt="A model displays Japanese electronics co" class="attachment-post-thumbnail wp-post-image" height="150" src="http://faceit.lt/wp-content/uploads/2011/11/Toshiba-Dynabook-R631-presentation.jpg" width="200" /></p>Kadangi plan\u0161etini\u0173 kompiuteri\u0173 rinka jau arti prisotinimo ribos, daugelis \u0161ios rinkos \u017eaid\u0117j\u0173 atkreip\u0117 d\u0117mes\u012f \u012f kitus produktus, kurie turi didesn\u012f potencial\u0105. Vis\u0173 pirma, tai bus d\u0117vima elektronika, kurios tiekimas iki [&hellip;]<div class="feedflare">\u000a<a href="http://feeds.feedburner.com/~ff/faceit_lt?a=8se5GkOgBpw:2g3xCqzO6b0:yIl2AUoC8zA"><img border="0" src="http://feeds.feedburner.com/~ff/faceit_lt?d=yIl2AUoC8zA" /></a> <a href="http://feeds.feedburner.com/~ff/faceit_lt?a=8se5GkOgBpw:2g3xCqzO6b0:qj6IDK7rITs"><img border="0" src="http://feeds.feedburner.com/~ff/faceit_lt?d=qj6IDK7rITs" /></a>\u000a</div><img height="1" src="http://feeds.feedburner.com/~r/faceit_lt/~4/8se5GkOgBpw" width="1" />
p617
stRp618
sg14
(lp619
g1
(g2
g3
(dp620
g17
Vhttp://feedproxy.google.com/~r/faceit_lt/~3/8se5GkOgBpw/
p621
sg19
g20
sg21
g22
stRp622
asg129
(lp623
g1
(g2
g3
(dp624
g132
VHARDWARE
p625
sg134
Nsg135
NstRp626
ag1
(g2
g3
(dp627
g132
VNe\u0161iojami kompiuteriai
p628
sg134
Nsg135
NstRp629
asS'feedburner_origlink'
p630
Vhttp://faceit.lt/2014/07/virs-nesiojamu-kompiuteriu-daliu-gamintoju-telkiasi-juodi-debesys/
p631
sg49
g621
sg148
(lp632
g1
(g2
g3
(dtRp633
asg151
Vhttp://faceit.lt/?p=59692
p634
sS'author_detail'
p635
g1
(g2
g3
(dp636
g42
VFACEIT Team
p637
stRp638
sS'wfw_commentrss'
p639
Vhttp://faceit.lt/2014/07/virs-nesiojamu-kompiuteriu-daliu-gamintoju-telkiasi-juodi-debesys/feed/
p640
sS'slash_comments'
p641
V0
sg160
g12
((I2014
I7
I10
I7
I0
I16
I3
I191
I0
t(dtRp642
sg61
VVir\u0161 ne\u0161iojam\u0173 kompiuteri\u0173 dali\u0173 gamintoj\u0173 telkiasi juodi debesys
p643
sg163
g637
sS'comments'
p644
Vhttp://faceit.lt/2014/07/virs-nesiojamu-kompiuteriu-daliu-gamintoju-telkiasi-juodi-debesys/#comments
p645
sg166
g617
sg167
I00
sS'title_detail'
p646
g1
(g2
g3
(dp647
g65
Vhttp://feeds.feedburner.com/faceit_lt
p648
sg19
g73
sg58
Nsg68
g643
stRp649
sg172
VThu, 10 Jul 2014 07:00:16 +0000
p650
stRp651
ag1
(g2
g3
(dp652
S'summary_detail'
p653
g1
(g2
g3
(dp654
g65
Vhttp://feeds.feedburner.com/faceit_lt
p655
sg19
g67
sg58
Nsg68
V<p><img alt="man-google-glass-200" class="attachment-post-thumbnail wp-post-image" height="150" src="http://faceit.lt/wp-content/uploads/2014/07/man-google-glass-200.jpg" width="200" /></p>Portale CNet pasirod\u0117 i\u0161traukos i\u0161 Babak Parviz pasirodymo viename i\u0161 rengini\u0173. \u0160is \u017emogus nuo nesen\u0173 laik\u0173 vadovauja Google Glass k\u016br\u0117j\u0173 komandai. I\u0161 vyriausiojo k\u016br\u0117jo i\u0161sakyt\u0173 frazi\u0173 galima padaryti i\u0161vad\u0105, jog [&hellip;]<div class="feedflare">\u000a<a href="http://feeds.feedburner.com/~ff/faceit_lt?a=u6u-yzGZ7MA:nl-I3qyPNsM:yIl2AUoC8zA"><img border="0" src="http://feeds.feedburner.com/~ff/faceit_lt?d=yIl2AUoC8zA" /></a> <a href="http://feeds.feedburner.com/~ff/faceit_lt?a=u6u-yzGZ7MA:nl-I3qyPNsM:qj6IDK7rITs"><img border="0" src="http://feeds.feedburner.com/~ff/faceit_lt?d=qj6IDK7rITs" /></a>\u000a</div><img height="1" src="http://feeds.feedburner.com/~r/faceit_lt/~4/u6u-yzGZ7MA" width="1" />
p656
stRp657
sg14
(lp658
g1
(g2
g3
(dp659
g17
Vhttp://feedproxy.google.com/~r/faceit_lt/~3/u6u-yzGZ7MA/
p660
sg19
g20
sg21
g22
stRp661
asg129
(lp662
g1
(g2
g3
(dp663
g132
VHARDWARE
p664
sg134
Nsg135
NstRp665
ag1
(g2
g3
(dp666
g132
VPeriferija
p667
sg134
Nsg135
NstRp668
ag1
(g2
g3
(dp669
g132
VGoogle Glass
p670
sg134
Nsg135
NstRp671
asS'feedburner_origlink'
p672
Vhttp://faceit.lt/2014/07/google-glass-kurejas-pripazino-kad-akiniai-dar-nera-tobuli/
p673
sg49
g660
sg148
(lp674
g1
(g2
g3
(dtRp675
asg151
Vhttp://faceit.lt/?p=59689
p676
sS'author_detail'
p677
g1
(g2
g3
(dp678
g42
VFACEIT Team
p679
stRp680
sS'wfw_commentrss'
p681
Vhttp://faceit.lt/2014/07/google-glass-kurejas-pripazino-kad-akiniai-dar-nera-tobuli/feed/
p682
sS'slash_comments'
p683
V0
sg160
g12
((I2014
I7
I10
I6
I40
I9
I3
I191
I0
t(dtRp684
sg61
VGoogle Glass k\u016br\u0117jas pripa\u017eino, kad akiniai dar n\u0117ra tobuli
p685
sg163
g679
sS'comments'
p686
Vhttp://faceit.lt/2014/07/google-glass-kurejas-pripazino-kad-akiniai-dar-nera-tobuli/#comments
p687
sg166
g656
sg167
I00
sS'title_detail'
p688
g1
(g2
g3
(dp689
g65
Vhttp://feeds.feedburner.com/faceit_lt
p690
sg19
g73
sg58
Nsg68
g685
stRp691
sg172
VThu, 10 Jul 2014 06:40:09 +0000
p692
stRp693
ag1
(g2
g3
(dp694
S'summary_detail'
p695
g1
(g2
g3
(dp696
g65
Vhttp://feeds.feedburner.com/faceit_lt
p697
sg19
g67
sg58
Nsg68
V<p><img alt="intel-z87klt-200" class="attachment-post-thumbnail wp-post-image" height="150" src="http://faceit.lt/wp-content/uploads/2013/07/intel-z87klt-200.jpg" width="200" /></p>Intel nuo pat savo veiklos prad\u017eios laikosi tradicijos, jog sand\u0117lius ir konvejerius reikia atlaisvinti ne tik nuo pasenusi\u0173 procesori\u0173, bet ir jiems skirt\u0173 mikroschem\u0173 rinkini\u0173. \u0160\u012f kart\u0105 Intel i\u0161siunt\u0117 savo [&hellip;]<div class="feedflare">\u000a<a href="http://feeds.feedburner.com/~ff/faceit_lt?a=_RnkFBIswwk:LwS7e23Io64:yIl2AUoC8zA"><img border="0" src="http://feeds.feedburner.com/~ff/faceit_lt?d=yIl2AUoC8zA" /></a> <a href="http://feeds.feedburner.com/~ff/faceit_lt?a=_RnkFBIswwk:LwS7e23Io64:qj6IDK7rITs"><img border="0" src="http://feeds.feedburner.com/~ff/faceit_lt?d=qj6IDK7rITs" /></a>\u000a</div><img height="1" src="http://feeds.feedburner.com/~r/faceit_lt/~4/_RnkFBIswwk" width="1" />
p698
stRp699
sg14
(lp700
g1
(g2
g3
(dp701
g17
Vhttp://feedproxy.google.com/~r/faceit_lt/~3/_RnkFBIswwk/
p702
sg19
g20
sg21
g22
stRp703
asg129
(lp704
g1
(g2
g3
(dp705
g132
VHARDWARE
p706
sg134
Nsg135
NstRp707
ag1
(g2
g3
(dp708
g132
VMotinin\u0117s plok\u0161t\u0117s
p709
sg134
Nsg135
NstRp710
ag1
(g2
g3
(dp711
g132
Vintel
p712
sg134
Nsg135
NstRp713
asS'feedburner_origlink'
p714
Vhttp://faceit.lt/2014/07/intel-atsisveikina-su-7-series-mikroschemu-rinkiniais/
p715
sg49
g702
sg148
(lp716
g1
(g2
g3
(dtRp717
asg151
Vhttp://faceit.lt/?p=59687
p718
sS'author_detail'
p719
g1
(g2
g3
(dp720
g42
VFACEIT Team
p721
stRp722
sS'wfw_commentrss'
p723
Vhttp://faceit.lt/2014/07/intel-atsisveikina-su-7-series-mikroschemu-rinkiniais/feed/
p724
sS'slash_comments'
p725
V0
sg160
g12
((I2014
I7
I10
I6
I20
I44
I3
I191
I0
t(dtRp726
sg61
VIntel atsisveikina su \u201e7 Series\u201c mikroschem\u0173 rinkiniais
p727
sg163
g721
sS'comments'
p728
Vhttp://faceit.lt/2014/07/intel-atsisveikina-su-7-series-mikroschemu-rinkiniais/#comments
p729
sg166
g698
sg167
I00
sS'title_detail'
p730
g1
(g2
g3
(dp731
g65
Vhttp://feeds.feedburner.com/faceit_lt
p732
sg19
g73
sg58
Nsg68
g727
stRp733
sg172
VThu, 10 Jul 2014 06:20:44 +0000
p734
stRp735
ag1
(g2
g3
(dp736
S'summary_detail'
p737
g1
(g2
g3
(dp738
g65
Vhttp://feeds.feedburner.com/faceit_lt
p739
sg19
g67
sg58
Nsg68
V<p><img alt="you-slow-200" class="attachment-post-thumbnail wp-post-image" height="150" src="http://faceit.lt/wp-content/uploads/2014/07/you-slow-200.jpg" width="200" /></p>Vaizd\u0173 tarnyba Youtube \u012fdieg\u0117 nauj\u0105 funkcij\u0105, kuri, tik\u0117tina, nenud\u017eiugins kai kuriuos Interneto paslaug\u0173 tiek\u0117jus (IPT). Prane\u0161ama, kad kai kurie vartotojai vaizdo klip\u0173 per\u017ei\u016bros metu \u0117m\u0117 pasteb\u0117ti prane\u0161im\u0105, kuriuose teigiama, kad [&hellip;]<div class="feedflare">\u000a<a href="http://feeds.feedburner.com/~ff/faceit_lt?a=47z1SA0hkFg:0RyBVNrgPkc:yIl2AUoC8zA"><img border="0" src="http://feeds.feedburner.com/~ff/faceit_lt?d=yIl2AUoC8zA" /></a> <a href="http://feeds.feedburner.com/~ff/faceit_lt?a=47z1SA0hkFg:0RyBVNrgPkc:qj6IDK7rITs"><img border="0" src="http://feeds.feedburner.com/~ff/faceit_lt?d=qj6IDK7rITs" /></a>\u000a</div><img height="1" src="http://feeds.feedburner.com/~r/faceit_lt/~4/47z1SA0hkFg" width="1" />
p740
stRp741
sg14
(lp742
g1
(g2
g3
(dp743
g17
Vhttp://feedproxy.google.com/~r/faceit_lt/~3/47z1SA0hkFg/
p744
sg19
g20
sg21
g22
stRp745
asg129
(lp746
g1
(g2
g3
(dp747
g132
VSOFTWARE
p748
sg134
Nsg135
NstRp749
ag1
(g2
g3
(dp750
g132
Vyoutube
p751
sg134
Nsg135
NstRp752
asS'feedburner_origlink'
p753
Vhttp://faceit.lt/2014/07/google-gedina-interneto-tiekejus-del-leto-youtube-vaizdo-klipu-atkurimo/
p754
sg49
g744
sg148
(lp755
g1
(g2
g3
(dtRp756
asg151
Vhttp://faceit.lt/?p=59683
p757
sS'author_detail'
p758
g1
(g2
g3
(dp759
g42
VFACEIT Team
p760
stRp761
sS'wfw_commentrss'
p762
Vhttp://faceit.lt/2014/07/google-gedina-interneto-tiekejus-del-leto-youtube-vaizdo-klipu-atkurimo/feed/
p763
sS'slash_comments'
p764
V0
sg160
g12
((I2014
I7
I9
I10
I45
I35
I2
I190
I0
t(dtRp765
sg61
VGoogle g\u0117dina Interneto tiek\u0117jus d\u0117l l\u0117to Youtube vaizdo klip\u0173 atk\u016brimo
p766
sg163
g760
sS'comments'
p767
Vhttp://faceit.lt/2014/07/google-gedina-interneto-tiekejus-del-leto-youtube-vaizdo-klipu-atkurimo/#comments
p768
sg166
g740
sg167
I00
sS'title_detail'
p769
g1
(g2
g3
(dp770
g65
Vhttp://feeds.feedburner.com/faceit_lt
p771
sg19
g73
sg58
Nsg68
g766
stRp772
sg172
VWed, 09 Jul 2014 10:45:35 +0000
p773
stRp774
asS'namespaces'
p775
(dp776
S''
Vhttp://www.w3.org/2005/Atom
p777
sS'sy'
p778
Vhttp://purl.org/rss/1.0/modules/syndication/
p779
sS'dc'
p780
Vhttp://purl.org/dc/elements/1.1/
p781
sS'content'
p782
Vhttp://purl.org/rss/1.0/modules/content/
p783
sS'slash'
p784
Vhttp://purl.org/rss/1.0/modules/slash/
p785
sS'feedburner'
p786
Vhttp://rssnamespace.org/feedburner/ext/1.0
p787
sS'wfw'
p788
Vhttp://wellformedweb.org/CommentAPI/
p789
sstRp790
.